 Eclipse

 Timestamp is 464ae5d3 (Wed May 16 12:06:59 2007)

 Preferred load address is 00400000

 Start         Length     Name                   Class
 0001:00000000 00040156H .text                   CODE
 0001:00040160 0000412aH .text$x                 CODE
 0002:00000000 000085d4H .rdata                  DATA
 0002:000085d8 00000dd4H .rdata$r                DATA
 0002:000093b0 00005108H .xdata$x                DATA
 0002:0000e4b8 00000000H .edata                  DATA
 0003:00000000 00000004H .CRT$XCA                DATA
 0003:00000004 00000004H .CRT$XCL                DATA
 0003:00000008 00000040H .CRT$XCU                DATA
 0003:00000048 00000004H .CRT$XCZ                DATA
 0003:0000004c 00000004H .CRT$XIA                DATA
 0003:00000050 00000004H .CRT$XIZ                DATA
 0003:00000060 00001e74H .data                   DATA
 0003:00001ed8 000002e0H .bss                    DATA
 0004:00000000 000000f0H .idata$2                DATA
 0004:000000f0 00000014H .idata$3                DATA
 0004:00000104 00000bd0H .idata$4                DATA
 0004:00000cd4 00000bd0H .idata$5                DATA
 0004:000018a4 0000097eH .idata$6                DATA
 0005:00000000 00001180H .rsrc$01                DATA
 0005:00001180 0000abf8H .rsrc$02                DATA

  Address         Publics by Value              Rva+Base     Lib:Object

 0001:00000000       ??0CAcquisitionTab@@QAE@PAVCWnd@@@Z 00401000 f   AcquisitionTab.obj
 0001:00000090       ??_ECAcquisitionTab@@UAEPAXI@Z 00401090 f i AcquisitionTab.obj
 0001:00000090       ??_GCAcquisitionTab@@UAEPAXI@Z 00401090 f i AcquisitionTab.obj
 0001:000000d0       ??0CIndicators@@QAE@XZ     004010d0 f i AcquisitionTab.obj
 0001:00000100       ?Create@CIndicators@@UAEHPBD0KABUtagRECT@@PAVCWnd@@IPAUCCreateContext@@@Z 00401100 f i AcquisitionTab.obj
 0001:00000140       ?GetClsid@CIndicators@@QAEABU_GUID@@XZ 00401140 f i AcquisitionTab.obj
 0001:00000160       ??1CIndicators@@UAE@XZ     00401160 f i AcquisitionTab.obj
 0001:00000180       ??1CAcquisitionTab@@UAE@XZ 00401180 f i AcquisitionTab.obj
 0001:000001f0       ??_GCIndicators@@UAEPAXI@Z 004011f0 f i AcquisitionTab.obj
 0001:000001f0       ??_ECIndicators@@UAEPAXI@Z 004011f0 f i AcquisitionTab.obj
 0001:00000230       ?DoDataExchange@CAcquisitionTab@@MAEXPAVCDataExchange@@@Z 00401230 f   AcquisitionTab.obj
 0001:000002a0       ?_GetBaseMessageMap@CAcquisitionTab@@KGPBUAFX_MSGMAP@@XZ 004012a0 f   AcquisitionTab.obj
 0001:000002c0       ?GetMessageMap@CAcquisitionTab@@MBEPBUAFX_MSGMAP@@XZ 004012c0 f   AcquisitionTab.obj
 0001:000002e0       ?OnInstProps@CAcquisitionTab@@IAEXXZ 004012e0 f   AcquisitionTab.obj
 0001:00000330       ?OnAcqStart@CAcquisitionTab@@UAEXXZ 00401330 f   AcquisitionTab.obj
 0001:000004e0       ?OnAcqStop@CAcquisitionTab@@UAEXXZ 004014e0 f   AcquisitionTab.obj
 0001:00000680       ?GetAverageView@CMainFrame@@QAEPAVCAverageView@@XZ 00401680 f i AcquisitionTab.obj
 0001:000006a0       ?OnInitDialog@CAcquisitionTab@@MAEHXZ 004016a0 f   AcquisitionTab.obj
 0001:00000820       ?OnTimer@CAcquisitionTab@@IAEXI@Z 00401820 f   AcquisitionTab.obj
 0001:00000ad0       ?DestroyWindow@CAcquisitionTab@@UAEHXZ 00401ad0 f   AcquisitionTab.obj
 0001:00000b00       ?OnModeTrend@CAcquisitionTab@@QAEXXZ 00401b00 f   AcquisitionTab.obj
 0001:00000b60       ?OnModeAverage@CAcquisitionTab@@QAEXXZ 00401b60 f   AcquisitionTab.obj
 0001:00000bc0       ?OnDestroy@CAcquisitionTab@@IAEXXZ 00401bc0 f   AcquisitionTab.obj
 0001:00000bf0       ?OnClose@CAcquisitionTab@@IAEXXZ 00401bf0 f   AcquisitionTab.obj
 0001:00000c10       ?OnRealtime@CAcquisitionTab@@IAEXXZ 00401c10 f   AcquisitionTab.obj
 0001:00000c80       ?OnCancel@CAcquisitionTab@@MAEXXZ 00401c80 f   AcquisitionTab.obj
 0001:00000ca0       ?OnOK@CAcquisitionTab@@MAEXXZ 00401ca0 f   AcquisitionTab.obj
 0001:00000cc0       ??_9@$BNM@AE               00401cc0 f i AcquisitionTab.obj
 0001:00000cd0       ??_9@$BNI@AE               00401cd0 f i AcquisitionTab.obj
 0001:00000ce0       ??0CAddCalItem@@QAE@PAVCWnd@@VCString@@PAV2@@Z 00401ce0 f   AddCalItem.obj
 0001:00000d90       ??_GCAddCalItem@@UAEPAXI@Z 00401d90 f i AddCalItem.obj
 0001:00000d90       ??_ECAddCalItem@@UAEPAXI@Z 00401d90 f i AddCalItem.obj
 0001:00000dd0       ??1CAddCalItem@@UAE@XZ     00401dd0 f i AddCalItem.obj
 0001:00000e40       ?DoDataExchange@CAddCalItem@@MAEXPAVCDataExchange@@@Z 00401e40 f   AddCalItem.obj
 0001:00000e70       ?_GetBaseMessageMap@CAddCalItem@@KGPBUAFX_MSGMAP@@XZ 00401e70 f   AddCalItem.obj
 0001:00000e90       ?GetMessageMap@CAddCalItem@@MBEPBUAFX_MSGMAP@@XZ 00401e90 f   AddCalItem.obj
 0001:00000eb0       ?OnInitDialog@CAddCalItem@@MAEHXZ 00401eb0 f   AddCalItem.obj
 0001:00000fc0       ?OnUpdateCalValue@CAddCalItem@@IAEXXZ 00401fc0 f   AddCalItem.obj
 0001:00001070       ?OnOK@CAddCalItem@@MAEXXZ  00402070 f   AddCalItem.obj
 0001:00001090       ??0CAnalysisTab@@QAE@PAVCWnd@@@Z 00402090 f   AnalysisTab.obj
 0001:00001100       ??_GCAnalysisTab@@UAEPAXI@Z 00402100 f i AnalysisTab.obj
 0001:00001100       ??_ECAnalysisTab@@UAEPAXI@Z 00402100 f i AnalysisTab.obj
 0001:00001140       ??1CAnalysisTab@@UAE@XZ    00402140 f i AnalysisTab.obj
 0001:00001160       ?DoDataExchange@CAnalysisTab@@MAEXPAVCDataExchange@@@Z 00402160 f   AnalysisTab.obj
 0001:00001190       ?_GetBaseMessageMap@CAnalysisTab@@KGPBUAFX_MSGMAP@@XZ 00402190 f   AnalysisTab.obj
 0001:000011b0       ?GetMessageMap@CAnalysisTab@@MBEPBUAFX_MSGMAP@@XZ 004021b0 f   AnalysisTab.obj
 0001:000011d0       ?OnInitDialog@CAnalysisTab@@MAEHXZ 004021d0 f   AnalysisTab.obj
 0001:00001690       ?OnMeasurements@CAnalysisTab@@QAEXXZ 00402690 f   AnalysisTab.obj
 0001:00001fe0       ?GetSettings@CAverageView@@QAEPAVCSettings@@XZ 00402fe0 f i AnalysisTab.obj
 0001:00002000       ?GetAverageXData@CAverageView@@QAEPAUtagVARIANT@@XZ 00403000 f i AnalysisTab.obj
 0001:00002020       ?GetAverageYData@CAverageView@@QAEPAUtagVARIANT@@XZ 00403020 f i AnalysisTab.obj
 0001:00002040       ?GetCalXData@CAverageView@@QAEPAUtagVARIANT@@XZ 00403040 f i AnalysisTab.obj
 0001:00002060       ?OnDestroy@CAnalysisTab@@IAEXXZ 00403060 f   AnalysisTab.obj
 0001:00002280       ?GetMeasurementVersions@CAnalysisTab@@QAE?AVCString@@H@Z 00403280 f   AnalysisTab.obj
 0001:000023a0       ?OnSelchangeMeasure1@CAnalysisTab@@IAEXXZ 004033a0 f   AnalysisTab.obj
 0001:000023c0       ?OnSelchangeMeasure2@CAnalysisTab@@IAEXXZ 004033c0 f   AnalysisTab.obj
 0001:000023e0       ?OnSelchangeMeasure3@CAnalysisTab@@IAEXXZ 004033e0 f   AnalysisTab.obj
 0001:00002400       ?OnSelchangeMeasure4@CAnalysisTab@@IAEXXZ 00403400 f   AnalysisTab.obj
 0001:00002420       ?OnShowWindow@CAnalysisTab@@IAEXHI@Z 00403420 f   AnalysisTab.obj
 0001:00002460       ?OnCancel@CAnalysisTab@@MAEXXZ 00403460 f   AnalysisTab.obj
 0001:00002480       ?OnOK@CAnalysisTab@@MAEXXZ 00403480 f   AnalysisTab.obj
 0001:000024a0       ??0CAverageSaveDlg@@QAE@PAVCWnd@@PAVCString@@@Z 004034a0 f   AverageSaveDlg.obj
 0001:00002540       ??_ECAverageSaveDlg@@UAEPAXI@Z 00403540 f i AverageSaveDlg.obj
 0001:00002540       ??_GCAverageSaveDlg@@UAEPAXI@Z 00403540 f i AverageSaveDlg.obj
 0001:00002580       ??1CAverageSaveDlg@@UAE@XZ 00403580 f i AverageSaveDlg.obj
 0001:000025f0       ?DoDataExchange@CAverageSaveDlg@@MAEXPAVCDataExchange@@@Z 004035f0 f   AverageSaveDlg.obj
 0001:00002630       ?_GetBaseMessageMap@CAverageSaveDlg@@KGPBUAFX_MSGMAP@@XZ 00403630 f   AverageSaveDlg.obj
 0001:00002650       ?GetMessageMap@CAverageSaveDlg@@MBEPBUAFX_MSGMAP@@XZ 00403650 f   AverageSaveDlg.obj
 0001:00002670       ?OnInitDialog@CAverageSaveDlg@@MAEHXZ 00403670 f   AverageSaveDlg.obj
 0001:00002810       ?OnUpdateName@CAverageSaveDlg@@IAEXXZ 00403810 f   AverageSaveDlg.obj
 0001:00002880       ?OnOK@CAverageSaveDlg@@MAEXXZ 00403880 f   AverageSaveDlg.obj
 0001:00002a40       ?OnSelchangeDirFiles@CAverageSaveDlg@@IAEXXZ 00403a40 f   AverageSaveDlg.obj
 0001:00002af0       ?CreateObject@CAverageView@@SGPAVCObject@@XZ 00403af0 f   AverageView.obj
 0001:00002b70       ?_GetBaseClass@CAverageView@@KGPAUCRuntimeClass@@XZ 00403b70 f   AverageView.obj
 0001:00002b90       ?GetRuntimeClass@CAverageView@@UBEPAUCRuntimeClass@@XZ 00403b90 f   AverageView.obj
 0001:00002bb0       ??0CAverageView@@IAE@XZ    00403bb0 f   AverageView.obj
 0001:00002cd0       ?GetGraph@CAverageView@@UAEPAVCGSX2@@XZ 00403cd0 f i AverageView.obj
 0001:00002cf0       ?GetNumberOfAverages@CAverageView@@UAEHXZ 00403cf0 f i AverageView.obj
 0001:00002d10       ??_GCAverageView@@MAEPAXI@Z 00403d10 f i AverageView.obj
 0001:00002d10       ??_ECAverageView@@MAEPAXI@Z 00403d10 f i AverageView.obj
 0001:00002d50       ??0CGSX2@@QAE@XZ           00403d50 f i AverageView.obj
 0001:00002d80       ?Create@CGSX2@@UAEHPBD0KABUtagRECT@@PAVCWnd@@IPAUCCreateContext@@@Z 00403d80 f i AverageView.obj
 0001:00002dc0       ?GetClsid@CGSX2@@QAEABU_GUID@@XZ 00403dc0 f i AverageView.obj
 0001:00002de0       ??1CGSX2@@UAE@XZ           00403de0 f i AverageView.obj
 0001:00002e00       ??_GCGSX2@@UAEPAXI@Z       00403e00 f i AverageView.obj
 0001:00002e00       ??_ECGSX2@@UAEPAXI@Z       00403e00 f i AverageView.obj
 0001:00002e40       ??1CAverageView@@MAE@XZ    00403e40 f   AverageView.obj
 0001:00002f50       ?_GetBaseMessageMap@CAverageView@@KGPBUAFX_MSGMAP@@XZ 00403f50 f   AverageView.obj
 0001:00002f70       ?GetMessageMap@CAverageView@@MBEPBUAFX_MSGMAP@@XZ 00403f70 f   AverageView.obj
 0001:00002f90       ?_GetBaseEventSinkMap@CAverageView@@KGPBUAFX_EVENTSINKMAP@@XZ 00403f90 f   AverageView.obj
 0001:00002fb0       ?GetEventSinkMap@CAverageView@@MBEPBUAFX_EVENTSINKMAP@@XZ 00403fb0 f   AverageView.obj
 0001:00002fd0       ?OnDraw@CAverageView@@MAEXPAVCDC@@@Z 00403fd0 f   AverageView.obj
 0001:00002ff0       ?AssertValid@CAverageView@@MBEXXZ 00403ff0 f   AverageView.obj
 0001:00003010       ?Dump@CAverageView@@MBEXAAVCDumpContext@@@Z 00404010 f   AverageView.obj
 0001:00003040       ?CreateGraph@CAverageView@@UAE_NXZ 00404040 f   AverageView.obj
 0001:00003250       ?Create@CGSX2@@QAEHPBDKABUtagRECT@@PAVCWnd@@IPAVCFile@@HPAG@Z 00404250 f i AverageView.obj
 0001:000032a0       ?Create@CAverageView@@UAEHPBD0KABUtagRECT@@PAVCWnd@@IPAUCCreateContext@@@Z 004042a0 f   AverageView.obj
 0001:00003310       ?OnSize@CAverageView@@IAEXIHH@Z 00404310 f   AverageView.obj
 0001:00003360       ?LoadDataToBeCombined@CAverageView@@UAEXXZ 00404360 f   AverageView.obj
 0001:00003570       ?StartAverageAcquisition@CAverageView@@UAEXVCString@@@Z 00404570 f   AverageView.obj
 0001:00003a20       ?StopAverageAcquisition@CAverageView@@UAEXXZ 00404a20 f   AverageView.obj
 0001:00003af0       ?OnTimer@CAverageView@@IAEXI@Z 00404af0 f   AverageView.obj
 0001:00003e80       ?GetLED1@CAcquisitionTab@@QAEPAVCIndicators@@XZ 00404e80 f i AverageView.obj
 0001:00003ea0       ?DisplayHoverWindow@CAverageView@@UAEXXZ 00404ea0 f   AverageView.obj
 0001:00004200       ?RetrieveAverageActive@CAverageView@@UAE_NH@Z 00405200 f   AverageView.obj
 0001:000045b0       ?RetrieveTrendAverageFile@CAverageView@@UAE_NVCString@@H@Z 004055b0 f   AverageView.obj
 0001:00004990       ?SaveAsAverageFile@CAverageView@@UAE_NVCString@@0@Z 00405990 f   AverageView.obj
 0001:00004d80       ?GetUnitsText@CCalibration@@UAE?AVCString@@XZ 00405d80 f i AverageView.obj
 0001:00004dc0       ?GetFileName@CCalibration@@UAE?AVCString@@XZ 00405dc0 f i AverageView.obj
 0001:00004e00       ?GetCalType@CCalibration@@UAE?AW4ECalType@@XZ 00405e00 f i AverageView.obj
 0001:00004e20       ?GetCoef1@CCalibration@@UAENXZ 00405e20 f i AverageView.obj
 0001:00004e40       ?GetCoef2@CCalibration@@UAENXZ 00405e40 f i AverageView.obj
 0001:00004e60       ?GetCoef3@CCalibration@@UAENXZ 00405e60 f i AverageView.obj
 0001:00004e80       ?GetCoef4@CCalibration@@UAENXZ 00405e80 f i AverageView.obj
 0001:00004ea0       ??1CCalibration@@UAE@XZ    00405ea0 f i AverageView.obj
 0001:00004f40       ??1CMkrInfo@@UAE@XZ        00405f40 f i AverageView.obj
 0001:00004f60       ?SaveAverageFile@CAverageView@@UAE_NVCString@@@Z 00405f60 f   AverageView.obj
 0001:000051e0       ?OpenAverageFile@CAverageView@@UAE_NVCString@@H@Z 004061e0 f   AverageView.obj
 0001:00005740       ?OnGSXMouseDown@CAverageView@@IAEXFFJJ@Z 00406740 f   AverageView.obj
 0001:00005760       ?OnGSXMouseUp@CAverageView@@IAEXFFJJ@Z 00406760 f   AverageView.obj
 0001:000059f0       ?OnGSXMouseMove@CAverageView@@IAEXFFJJ@Z 004069f0 f   AverageView.obj
 0001:00005c40       ?OnGSXRepaint@CAverageView@@IAEXJJJJJ@Z 00406c40 f   AverageView.obj
 0001:00005c70       ?OnGSXClick@CAverageView@@IAEXXZ 00406c70 f   AverageView.obj
 0001:00005c90       ?OnPrint@CAverageView@@MAEXPAVCDC@@PAUCPrintInfo@@@Z 00406c90 f   AverageView.obj
 0001:00005e50       ?OnPreparePrinting@CAverageView@@MAEHPAUCPrintInfo@@@Z 00406e50 f   AverageView.obj
 0001:00005e80       ?OnCopygraph@CAverageView@@IAEXXZ 00406e80 f   AverageView.obj
 0001:00005ea0       ?OnViewFFT@CAverageView@@IAEXXZ 00406ea0 f   AverageView.obj
 0001:00005fb0       ?UpdateAnalysisInfo@CAverageView@@UAEXXZ 00406fb0 f   AverageView.obj
 0001:000062f0       ?GetFFTDlg@CAverageView@@QAEPAVCShowFFT@@XZ 004072f0 f i AverageView.obj
 0001:00006310       ?OnRightCalibrationEnable@CAverageView@@QAEXXZ 00407310 f   AverageView.obj
 0001:000064a0       ?CalibrateAverageXData@CAverageView@@UAE_NXZ 004074a0 f   AverageView.obj
 0001:00006640       ?OnRightGraphProperties@CAverageView@@IAEXXZ 00407640 f   AverageView.obj
 0001:000066c0       ??1CGraphProperties@@UAE@XZ 004076c0 f i AverageView.obj
 0001:00006740       ?OnRightSetMarkerTool@CAverageView@@IAEXXZ 00407740 f   AverageView.obj
 0001:00006790       ?OnRightSetZoomTool@CAverageView@@IAEXXZ 00407790 f   AverageView.obj
 0001:000067e0       ?GraphSettings@CAverageView@@UAEX_N@Z 004077e0 f   AverageView.obj
 0001:00006fc0       ?OnDestroy@CAverageView@@IAEXXZ 00407fc0 f   AverageView.obj
 0001:00006ff0       ?OnSetCursor@CAverageView@@IAEHPAVCWnd@@II@Z 00407ff0 f   AverageView.obj
 0001:00007020       ?OnAddOverlay@CAverageView@@IAEXXZ 00408020 f   AverageView.obj
 0001:00007ad0       ??1CFileDialog@@UAE@XZ     00408ad0 f i AverageView.obj
 0001:00007b30       ??1CCommonDialog@@UAE@XZ   00408b30 f i AverageView.obj
 0001:00007b50       ?OnRemoveOverlay@CAverageView@@IAEXXZ 00408b50 f   AverageView.obj
 0001:00007bd0       ?RemoveAllOverlays@CAverageView@@UAEXXZ 00408bd0 f   AverageView.obj
 0001:00007c60       ?UpdateLabels@CAverageView@@UAEXXZ 00408c60 f   AverageView.obj
 0001:00008070       ?OnGSXUpdateComplete@CAverageView@@IAEXXZ 00409070 f   AverageView.obj
 0001:000080a0       ?OnModifyData@CAverageView@@IAEXXZ 004090a0 f   AverageView.obj
 0001:00008720       ??1CModifyData@@UAE@XZ     00409720 f i AverageView.obj
 0001:000087c0       ?OnDataProps@CAverageView@@IAEXXZ 004097c0 f   AverageView.obj
 0001:00008820       ??1CSelectedProperties@@UAE@XZ 00409820 f i AverageView.obj
 0001:00008840       ?GetSynthData@CAverageView@@UAE_NPAUtagVARIANT@@0@Z 00409840 f   AverageView.obj
 0001:00008ab0       ?CreateObject@CCalibration@@SGPAVCObject@@XZ 00409ab0 f   Calibration.obj
 0001:00008b30       ?_GetBaseClass@CCalibration@@KGPAUCRuntimeClass@@XZ 00409b30 f   Calibration.obj
 0001:00008b50       ?GetRuntimeClass@CCalibration@@UBEPAUCRuntimeClass@@XZ 00409b50 f   Calibration.obj
 0001:00008bb0       ??0AFX_CLASSINIT@@QAE@PAUCRuntimeClass@@@Z 00409bb0 f i Calibration.obj
 0001:00008be0       ??5@YGAAVCArchive@@AAV0@AAPAVCCalibration@@@Z 00409be0 f   Calibration.obj
 0001:00008c10       ?CreateObject@CMkrInfo@@SGPAVCObject@@XZ 00409c10 f   Calibration.obj
 0001:00008c90       ??0CMkrInfo@@QAE@XZ        00409c90 f i Calibration.obj
 0001:00008cc0       ??_GCMkrInfo@@UAEPAXI@Z    00409cc0 f i Calibration.obj
 0001:00008d00       ?_GetBaseClass@CMkrInfo@@KGPAUCRuntimeClass@@XZ 00409d00 f   Calibration.obj
 0001:00008d20       ?GetRuntimeClass@CMkrInfo@@UBEPAUCRuntimeClass@@XZ 00409d20 f   Calibration.obj
 0001:00008d80       ??5@YGAAVCArchive@@AAV0@AAPAVCMkrInfo@@@Z 00409d80 f   Calibration.obj
 0001:00008db0       ?Serialize@CMkrInfo@@UAEXAAVCArchive@@@Z 00409db0 f   Calibration.obj
 0001:00008e60       ?_GetBaseMessageMap@CCalibration@@KGPBUAFX_MSGMAP@@XZ 00409e60 f   Calibration.obj
 0001:00008e80       ?GetMessageMap@CCalibration@@MBEPBUAFX_MSGMAP@@XZ 00409e80 f   Calibration.obj
 0001:00008ea0       ??0CCalibration@@QAE@W4ECalType@@HPAVCMkrInfo@@@Z 00409ea0 f   Calibration.obj
 0001:00008f80       ?GetChiSquare@CCalibration@@UAENXZ 00409f80 f i Calibration.obj
 0001:00008fa0       ?SetUnitsText@CCalibration@@UAEXVCString@@@Z 00409fa0 f i Calibration.obj
 0001:00009000       ?SetFileName@CCalibration@@UAEXVCString@@@Z 0040a000 f i Calibration.obj
 0001:00009060       ?SetFilePath@CCalibration@@UAEXVCString@@@Z 0040a060 f i Calibration.obj
 0001:000090c0       ?GetFilePath@CCalibration@@UAE?AVCString@@XZ 0040a0c0 f i Calibration.obj
 0001:00009100       ?GetNumOfValues@CCalibration@@UAEHXZ 0040a100 f i Calibration.obj
 0001:00009120       ?GetMarkerInfo@CCalibration@@UAEPAVCMkrInfo@@H@Z 0040a120 f i Calibration.obj
 0001:00009150       ??_GCCalibration@@UAEPAXI@Z 0040a150 f i Calibration.obj
 0001:00009150       ??_ECCalibration@@UAEPAXI@Z 0040a150 f i Calibration.obj
 0001:00009190       ?Calibrate@CCalibration@@UAEXW4ECalType@@HPAVCMkrInfo@@@Z 0040a190 f   Calibration.obj
 0001:000094a0       ?Calibrate@CCalibration@@UAEXW4ECalType@@NNNN@Z 0040a4a0 f   Calibration.obj
 0001:00009520       ?Apply@CCalibration@@UAE_NPAUtagVARIANT@@@Z 0040a520 f   Calibration.obj
 0001:000099c0       ?PolyFit@CCalibration@@AAENHHPAN00@Z 0040a9c0 f   Calibration.obj
 0001:00009ba0       ?svdfit@CCalibration@@CAXPAN00H0HQAY05N100P6AXN0H@Z@Z 0040aba0 f   Calibration.obj
 0001:00009d60       ?svdcmp@CCalibration@@CAXQAY05NHHQAN0@Z 0040ad60 f   Calibration.obj
 0001:0000b280       ?svbksb@CCalibration@@CAXQAY05NQAN0HH11@Z 0040c280 f   Calibration.obj
 0001:0000b3b0       ?fpoly@CCalibration@@CAXNPANH@Z 0040c3b0 f   Calibration.obj
 0001:0000b410       ?Serialize@CCalibration@@UAEXAAVCArchive@@@Z 0040c410 f   Calibration.obj
 0001:0000b6f0       ??0CCalibrationTab@@QAE@PAVCWnd@@@Z 0040c6f0 f   CalibrationTab.obj
 0001:0000b780       ?SetCalCentroid@CCalibrationTab@@UAEXN@Z 0040c780 f i CalibrationTab.obj
 0001:0000b7b0       ?SetCalStartMarker@CCalibrationTab@@UAEXN@Z 0040c7b0 f i CalibrationTab.obj
 0001:0000b7e0       ?SetCalEndMarker@CCalibrationTab@@UAEXN@Z 0040c7e0 f i CalibrationTab.obj
 0001:0000b810       ??_ECCalibrationTab@@UAEPAXI@Z 0040c810 f i CalibrationTab.obj
 0001:0000b810       ??_GCCalibrationTab@@UAEPAXI@Z 0040c810 f i CalibrationTab.obj
 0001:0000b850       ??1CCalibrationTab@@UAE@XZ 0040c850 f   CalibrationTab.obj
 0001:0000b8c0       ?DoDataExchange@CCalibrationTab@@MAEXPAVCDataExchange@@@Z 0040c8c0 f   CalibrationTab.obj
 0001:0000b900       ?_GetBaseMessageMap@CCalibrationTab@@KGPBUAFX_MSGMAP@@XZ 0040c900 f   CalibrationTab.obj
 0001:0000b920       ?GetMessageMap@CCalibrationTab@@MBEPBUAFX_MSGMAP@@XZ 0040c920 f   CalibrationTab.obj
 0001:0000b940       ?OnCalView@CCalibrationTab@@IAEXXZ 0040c940 f   CalibrationTab.obj
 0001:0000b9c0       ??1CCalibrationView@@UAE@XZ 0040c9c0 f i CalibrationTab.obj
 0001:0000ba30       ?OnCalfileBrowse@CCalibrationTab@@IAEXXZ 0040ca30 f   CalibrationTab.obj
 0001:0000c190       ?OnAddCalItem@CCalibrationTab@@IAEXXZ 0040d190 f   CalibrationTab.obj
 0001:0000c550       ?GetCalObject@CCalibrationTab@@QAEPAVCCalibration@@XZ 0040d550 f i CalibrationTab.obj
 0001:0000c570       ?DeleteCalItem@CCalibrationTab@@UAEXH@Z 0040d570 f   CalibrationTab.obj
 0001:0000c7b0       ?OnDestroy@CCalibrationTab@@IAEXXZ 0040d7b0 f   CalibrationTab.obj
 0001:0000c7e0       ?OnInitDialog@CCalibrationTab@@MAEHXZ 0040d7e0 f   CalibrationTab.obj
 0001:0000c910       ?OnCalSave@CCalibrationTab@@IAEXXZ 0040d910 f   CalibrationTab.obj
 0001:0000cc50       ?OnCalClear@CCalibrationTab@@IAEXXZ 0040dc50 f   CalibrationTab.obj
 0001:0000cd80       ?OnCalApply@CCalibrationTab@@UAEXXZ 0040dd80 f   CalibrationTab.obj
 0001:0000d080       ??_ECMkrInfo@@UAEPAXI@Z    0040e080 f i CalibrationTab.obj
 0001:0000d100       ?OnRclickCallibraryList@CCalibrationTab@@IAEXPAUtagNMHDR@@PAJ@Z 0040e100 f   CalibrationTab.obj
 0001:0000d210       ?OnRightDelete@CCalibrationTab@@IAEXXZ 0040e210 f   CalibrationTab.obj
 0001:0000d240       ?OnRightUpdate@CCalibrationTab@@IAEXXZ 0040e240 f   CalibrationTab.obj
 0001:0000d4e0       ?EnableItems@CCalibrationTab@@UAEXH@Z 0040e4e0 f   CalibrationTab.obj
 0001:0000d650       ?UpdateBasedOnItems@CCalibrationTab@@UAEXXZ 0040e650 f   CalibrationTab.obj
 0001:0000d750       ?OnSelchangeCalType@CCalibrationTab@@IAEXXZ 0040e750 f   CalibrationTab.obj
 0001:0000d7f0       ?OnCancel@CCalibrationTab@@MAEXXZ 0040e7f0 f   CalibrationTab.obj
 0001:0000d810       ?OnOK@CCalibrationTab@@MAEXXZ 0040e810 f   CalibrationTab.obj
 0001:0000d830       ??0CCalibrationView@@QAE@PAVCWnd@@PAVCListCtrl@@PAVCCalibration@@@Z 0040e830 f   CalibrationView.obj
 0001:0000d920       ??_GCCalibrationView@@UAEPAXI@Z 0040e920 f i CalibrationView.obj
 0001:0000d920       ??_ECCalibrationView@@UAEPAXI@Z 0040e920 f i CalibrationView.obj
 0001:0000d960       ?DoDataExchange@CCalibrationView@@MAEXPAVCDataExchange@@@Z 0040e960 f   CalibrationView.obj
 0001:0000d9b0       ?_GetBaseMessageMap@CCalibrationView@@KGPBUAFX_MSGMAP@@XZ 0040e9b0 f   CalibrationView.obj
 0001:0000d9d0       ?GetMessageMap@CCalibrationView@@MBEPBUAFX_MSGMAP@@XZ 0040e9d0 f   CalibrationView.obj
 0001:0000d9f0       ?_GetBaseEventSinkMap@CCalibrationView@@KGPBUAFX_EVENTSINKMAP@@XZ 0040e9f0 f   CalibrationView.obj
 0001:0000da10       ?GetEventSinkMap@CCalibrationView@@MBEPBUAFX_EVENTSINKMAP@@XZ 0040ea10 f   CalibrationView.obj
 0001:0000da30       ?OnInitDialog@CCalibrationView@@MAEHXZ 0040ea30 f   CalibrationView.obj
 0001:0000dec0       ?GetValueData@CCalibrationView@@QAEXPAUtagVARIANT@@0@Z 0040eec0 f   CalibrationView.obj
 0001:0000e070       ?GetCurveData@CCalibrationView@@QAEXPAUtagVARIANT@@0@Z 0040f070 f   CalibrationView.obj
 0001:0000e240       ?OnClickCalList@CCalibrationView@@IAEXPAUtagNMHDR@@PAJ@Z 0040f240 f   CalibrationView.obj
 0001:0000e330       ?OnGSXClickGsxCtrl@CCalibrationView@@IAEXXZ 0040f330 f   CalibrationView.obj
 0001:0000e430       ?OnItemchangedCalList@CCalibrationView@@IAEXPAUtagNMHDR@@PAJ@Z 0040f430 f   CalibrationView.obj
 0001:0000e530       ??0CCompAdvanced@@QAE@PAVCWnd@@H@Z 0040f530 f   CompAdvanced.obj
 0001:0000e5e0       ??_ECCompAdvanced@@UAEPAXI@Z 0040f5e0 f i CompAdvanced.obj
 0001:0000e5e0       ??_GCCompAdvanced@@UAEPAXI@Z 0040f5e0 f i CompAdvanced.obj
 0001:0000e620       ??1CCompAdvanced@@UAE@XZ   0040f620 f i CompAdvanced.obj
 0001:0000e680       ?DoDataExchange@CCompAdvanced@@MAEXPAVCDataExchange@@@Z 0040f680 f   CompAdvanced.obj
 0001:0000e710       ?_GetBaseMessageMap@CCompAdvanced@@KGPBUAFX_MSGMAP@@XZ 0040f710 f   CompAdvanced.obj
 0001:0000e730       ?GetMessageMap@CCompAdvanced@@MBEPBUAFX_MSGMAP@@XZ 0040f730 f   CompAdvanced.obj
 0001:0000e750       ?OnInitDialog@CCompAdvanced@@MAEHXZ 0040f750 f   CompAdvanced.obj
 0001:0000e7c0       ?OnOK@CCompAdvanced@@MAEXXZ 0040f7c0 f   CompAdvanced.obj
 0001:0000e820       ??0CDataHover@@QAE@XZ      0040f820 f   DataHover.obj
 0001:0000e890       ??_GCDataHover@@UAEPAXI@Z  0040f890 f i DataHover.obj
 0001:0000e890       ??_ECDataHover@@UAEPAXI@Z  0040f890 f i DataHover.obj
 0001:0000e8d0       ??1CDataHover@@UAE@XZ      0040f8d0 f   DataHover.obj
 0001:0000e930       ?_GetBaseMessageMap@CDataHover@@KGPBUAFX_MSGMAP@@XZ 0040f930 f   DataHover.obj
 0001:0000e950       ?GetMessageMap@CDataHover@@MBEPBUAFX_MSGMAP@@XZ 0040f950 f   DataHover.obj
 0001:0000e970       ?PreCreateWindow@CDataHover@@MAEHAAUtagCREATESTRUCTA@@@Z 0040f970 f   DataHover.obj
 0001:0000e9a0       ?Create@CDataHover@@UAE_NXZ 0040f9a0 f   DataHover.obj
 0001:0000ea30       ?GetWindowSize@CDataHover@@UAEXPAVCRect@@VCString@@@Z 0040fa30 f   DataHover.obj
 0001:0000eb90       ?OnPaint@CDataHover@@IAEXXZ 0040fb90 f   DataHover.obj
 0001:0000ecd0       ?OnNcHitTest@CDataHover@@IAEIVCPoint@@@Z 0040fcd0 f   DataHover.obj
 0001:0000ecf0       ?_GetBaseMessageMap@CEclipseApp@@KGPBUAFX_MSGMAP@@XZ 0040fcf0 f   Eclipse.obj
 0001:0000ed10       ?GetMessageMap@CEclipseApp@@MBEPBUAFX_MSGMAP@@XZ 0040fd10 f   Eclipse.obj
 0001:0000ed30       ??0CEclipseApp@@QAE@XZ     0040fd30 f   Eclipse.obj
 0001:0000eda0       ?GetMode@CEclipseApp@@UAEHXZ 0040fda0 f i Eclipse.obj
 0001:0000edc0       ?GetIsDSPPresent@CEclipseApp@@UAE_NXZ 0040fdc0 f i Eclipse.obj
 0001:0000ede0       ?SetIsDSPPresent@CEclipseApp@@UAEX_N@Z 0040fde0 f i Eclipse.obj
 0001:0000ee10       ?GetIsInstrumentPresent@CEclipseApp@@UAE_NXZ 0040fe10 f i Eclipse.obj
 0001:0000ee30       ?SetIsInstrumentPresent@CEclipseApp@@UAEX_N@Z 0040fe30 f i Eclipse.obj
 0001:0000ee60       ?GetXAxisText@CEclipseApp@@UAE?AVCString@@XZ 0040fe60 f i Eclipse.obj
 0001:0000eea0       ?SetXAxisText@CEclipseApp@@UAEXVCString@@@Z 0040fea0 f i Eclipse.obj
 0001:0000ef00       ?SetLastPropPageInitialize@CEclipseApp@@UAEXPAVCPropertyPage@@@Z 0040ff00 f i Eclipse.obj
 0001:0000ef30       ?GetLastPropPageInitialize@CEclipseApp@@UAEPAVCPropertyPage@@XZ 0040ff30 f i Eclipse.obj
 0001:0000ef50       ??_ECEclipseApp@@UAEPAXI@Z 0040ff50 f i Eclipse.obj
 0001:0000ef50       ??_GCEclipseApp@@UAEPAXI@Z 0040ff50 f i Eclipse.obj
 0001:0000ef90       ??1CEclipseApp@@UAE@XZ     0040ff90 f i Eclipse.obj
 0001:0000f070       ?InitInstance@CEclipseApp@@UAEHXZ 00410070 f   Eclipse.obj
 0001:0000fa00       ?SetTrendView@CMainFrame@@QAEXPAVCTrendView@@@Z 00410a00 f i Eclipse.obj
 0001:0000fa30       ?SetAverageView@CMainFrame@@QAEXPAVCAverageView@@@Z 00410a30 f i Eclipse.obj
 0001:0000fa60       ?GetSplitter@CMainFrame@@QAEPAVCSplitterWnd@@XZ 00410a60 f i Eclipse.obj
 0001:0000fa80       ?ExitInstance@CEclipseApp@@UAEHXZ 00410a80 f   Eclipse.obj
 0001:0000fac0       ?GetDataDir@CEclipseApp@@UAE?AVCString@@XZ 00410ac0 f   Eclipse.obj
 0001:0000fb10       ?SetDataDir@CEclipseApp@@UAEXVCString@@@Z 00410b10 f   Eclipse.obj
 0001:0000fb80       ?GetLastCalPath@CEclipseApp@@UAE?AVCString@@XZ 00410b80 f   Eclipse.obj
 0001:0000fbd0       ?SetLastCalPath@CEclipseApp@@UAEXVCString@@@Z 00410bd0 f   Eclipse.obj
 0001:0000fc40       ?GetLastOpenPath@CEclipseApp@@UAE?AVCString@@XZ 00410c40 f   Eclipse.obj
 0001:0000fc90       ?SetLastOpenPath@CEclipseApp@@UAEXVCString@@@Z 00410c90 f   Eclipse.obj
 0001:0000fd00       ?GetProt0CalPath@CEclipseApp@@UAE?AVCString@@XZ 00410d00 f   Eclipse.obj
 0001:0000fd50       ?SetProt0CalPath@CEclipseApp@@UAEXVCString@@@Z 00410d50 f   Eclipse.obj
 0001:0000fdc0       ?GetProt1CalPath@CEclipseApp@@UAE?AVCString@@XZ 00410dc0 f   Eclipse.obj
 0001:0000fe10       ?SetProt1CalPath@CEclipseApp@@UAEXVCString@@@Z 00410e10 f   Eclipse.obj
 0001:0000fe80       ?GetProt2CalPath@CEclipseApp@@UAE?AVCString@@XZ 00410e80 f   Eclipse.obj
 0001:0000fed0       ?SetProt2CalPath@CEclipseApp@@UAEXVCString@@@Z 00410ed0 f   Eclipse.obj
 0001:0000ff40       ?GetProt3CalPath@CEclipseApp@@UAE?AVCString@@XZ 00410f40 f   Eclipse.obj
 0001:0000ff90       ?SetProt3CalPath@CEclipseApp@@UAEXVCString@@@Z 00410f90 f   Eclipse.obj
 0001:00010000       ?GetProt4CalPath@CEclipseApp@@UAE?AVCString@@XZ 00411000 f   Eclipse.obj
 0001:00010050       ?SetProt4CalPath@CEclipseApp@@UAEXVCString@@@Z 00411050 f   Eclipse.obj
 0001:000100c0       ?GetProt5CalPath@CEclipseApp@@UAE?AVCString@@XZ 004110c0 f   Eclipse.obj
 0001:00010110       ?SetProt5CalPath@CEclipseApp@@UAEXVCString@@@Z 00411110 f   Eclipse.obj
 0001:00010180       ?GetProt6CalPath@CEclipseApp@@UAE?AVCString@@XZ 00411180 f   Eclipse.obj
 0001:000101d0       ?SetProt6CalPath@CEclipseApp@@UAEXVCString@@@Z 004111d0 f   Eclipse.obj
 0001:00010240       ?GetProt7CalPath@CEclipseApp@@UAE?AVCString@@XZ 00411240 f   Eclipse.obj
 0001:00010290       ?SetProt7CalPath@CEclipseApp@@UAEXVCString@@@Z 00411290 f   Eclipse.obj
 0001:00010300       ?GetCalState@CEclipseApp@@UAEHXZ 00411300 f   Eclipse.obj
 0001:00010330       ?SetCalState@CEclipseApp@@UAEXH@Z 00411330 f   Eclipse.obj
 0001:00010360       ?GetLastMode@CEclipseApp@@UAEHXZ 00411360 f   Eclipse.obj
 0001:00010390       ?SetLastMode@CEclipseApp@@UAEXH@Z 00411390 f   Eclipse.obj
 0001:000103c0       ?GetLastRealTime@CEclipseApp@@UAEHXZ 004113c0 f   Eclipse.obj
 0001:000103f0       ?SetLastRealTime@CEclipseApp@@UAEXH@Z 004113f0 f   Eclipse.obj
 0001:00010420       ?GetCurrentViewProtocol@CEclipseApp@@UAEHXZ 00411420 f   Eclipse.obj
 0001:00010450       ?SetCurrentViewProtocol@CEclipseApp@@UAEXH@Z 00411450 f   Eclipse.obj
 0001:00010480       ?GetFilename@CEclipseApp@@UAE?AVCString@@XZ 00411480 f   Eclipse.obj
 0001:000104d0       ?SetFilename@CEclipseApp@@UAEXVCString@@@Z 004114d0 f   Eclipse.obj
 0001:00010540       ?GetFilePath@CEclipseApp@@UAE?AVCString@@XZ 00411540 f   Eclipse.obj
 0001:00010590       ?SetFilePath@CEclipseApp@@UAEXVCString@@@Z 00411590 f   Eclipse.obj
 0001:00010600       ?GetFileOperator@CEclipseApp@@UAEHXZ 00411600 f   Eclipse.obj
 0001:00010630       ?SetFileOperator@CEclipseApp@@UAEXH@Z 00411630 f   Eclipse.obj
 0001:00010660       ?GetIsCombineFile@CEclipseApp@@UAEHXZ 00411660 f   Eclipse.obj
 0001:00010690       ?SetIsCombineFile@CEclipseApp@@UAEXH@Z 00411690 f   Eclipse.obj
 0001:000106c0       ?GetConstValue@CEclipseApp@@UAE?AVCString@@XZ 004116c0 f   Eclipse.obj
 0001:00010710       ?SetConstValue@CEclipseApp@@UAEXVCString@@@Z 00411710 f   Eclipse.obj
 0001:00010780       ?GetConstOperator@CEclipseApp@@UAEHXZ 00411780 f   Eclipse.obj
 0001:000107b0       ?SetConstOperator@CEclipseApp@@UAEXH@Z 004117b0 f   Eclipse.obj
 0001:000107e0       ?GetIsApplyConst@CEclipseApp@@UAEHXZ 004117e0 f   Eclipse.obj
 0001:00010810       ?SetIsApplyConst@CEclipseApp@@UAEXH@Z 00411810 f   Eclipse.obj
 0001:00010840       ?GetAnalysisMeasurement1Name@CEclipseApp@@UAE?AVCString@@XZ 00411840 f   Eclipse.obj
 0001:00010890       ?SetAnalysisMeasurement1Name@CEclipseApp@@UAEXVCString@@@Z 00411890 f   Eclipse.obj
 0001:00010900       ?GetAnalysisMeasurement2Name@CEclipseApp@@UAE?AVCString@@XZ 00411900 f   Eclipse.obj
 0001:00010950       ?SetAnalysisMeasurement2Name@CEclipseApp@@UAEXVCString@@@Z 00411950 f   Eclipse.obj
 0001:000109c0       ?GetAnalysisMeasurement3Name@CEclipseApp@@UAE?AVCString@@XZ 004119c0 f   Eclipse.obj
 0001:00010a10       ?SetAnalysisMeasurement3Name@CEclipseApp@@UAEXVCString@@@Z 00411a10 f   Eclipse.obj
 0001:00010a80       ?GetAnalysisMeasurement4Name@CEclipseApp@@UAE?AVCString@@XZ 00411a80 f   Eclipse.obj
 0001:00010ad0       ?SetAnalysisMeasurement4Name@CEclipseApp@@UAEXVCString@@@Z 00411ad0 f   Eclipse.obj
 0001:00010b40       ?GetProt0PPR@CEclipseApp@@UAEHXZ 00411b40 f   Eclipse.obj
 0001:00010b70       ?SetProt0PPR@CEclipseApp@@UAEXH@Z 00411b70 f   Eclipse.obj
 0001:00010ba0       ?GetProt1PPR@CEclipseApp@@UAEHXZ 00411ba0 f   Eclipse.obj
 0001:00010bd0       ?SetProt1PPR@CEclipseApp@@UAEXH@Z 00411bd0 f   Eclipse.obj
 0001:00010c00       ?GetProt2PPR@CEclipseApp@@UAEHXZ 00411c00 f   Eclipse.obj
 0001:00010c30       ?SetProt2PPR@CEclipseApp@@UAEXH@Z 00411c30 f   Eclipse.obj
 0001:00010c60       ?SetProt3PPR@CEclipseApp@@UAEXH@Z 00411c60 f   Eclipse.obj
 0001:00010c90       ?GetProt3PPR@CEclipseApp@@UAEHXZ 00411c90 f   Eclipse.obj
 0001:00010cc0       ?SetProt4PPR@CEclipseApp@@UAEXH@Z 00411cc0 f   Eclipse.obj
 0001:00010cf0       ?GetProt4PPR@CEclipseApp@@UAEHXZ 00411cf0 f   Eclipse.obj
 0001:00010d20       ?SetProt5PPR@CEclipseApp@@UAEXH@Z 00411d20 f   Eclipse.obj
 0001:00010d50       ?GetProt5PPR@CEclipseApp@@UAEHXZ 00411d50 f   Eclipse.obj
 0001:00010d80       ?SetProt6PPR@CEclipseApp@@UAEXH@Z 00411d80 f   Eclipse.obj
 0001:00010db0       ?GetProt6PPR@CEclipseApp@@UAEHXZ 00411db0 f   Eclipse.obj
 0001:00010de0       ?SetProt7PPR@CEclipseApp@@UAEXH@Z 00411de0 f   Eclipse.obj
 0001:00010e10       ?GetProt7PPR@CEclipseApp@@UAEHXZ 00411e10 f   Eclipse.obj
 0001:00010e40       ?GetIsMaxTimeUsed@CEclipseApp@@UAEHXZ 00411e40 f   Eclipse.obj
 0001:00010e70       ?SetIsMaxTimeUsed@CEclipseApp@@UAEXH@Z 00411e70 f   Eclipse.obj
 0001:00010ea0       ?GetIsMaxNumberUsed@CEclipseApp@@UAEHXZ 00411ea0 f   Eclipse.obj
 0001:00010ed0       ?SetIsMaxNumberUsed@CEclipseApp@@UAEXH@Z 00411ed0 f   Eclipse.obj
 0001:00010f00       ?GetMaxNumber@CEclipseApp@@UAEHXZ 00411f00 f   Eclipse.obj
 0001:00010f30       ?SetMaxNumber@CEclipseApp@@UAEXH@Z 00411f30 f   Eclipse.obj
 0001:00010f60       ?GetMaxTime@CEclipseApp@@UAEHXZ 00411f60 f   Eclipse.obj
 0001:00010f90       ?SetMaxTime@CEclipseApp@@UAEXH@Z 00411f90 f   Eclipse.obj
 0001:00010fc0       ?SetMode@CEclipseApp@@UAEXH@Z 00411fc0 f   Eclipse.obj
 0001:00011550       ?GetTrendView@CMainFrame@@QAEPAVCTrendView@@XZ 00412550 f i Eclipse.obj
 0001:00011570       ?GetVersion@CEclipseApp@@UAE?AVCString@@XZ 00412570 f   Eclipse.obj
 0001:000117c0       ??0CAboutDlg@@QAE@XZ       004127c0 f   Eclipse.obj
 0001:000117f0       ??_GCAboutDlg@@UAEPAXI@Z   004127f0 f i Eclipse.obj
 0001:000117f0       ??_ECAboutDlg@@UAEPAXI@Z   004127f0 f i Eclipse.obj
 0001:00011830       ??1CAboutDlg@@UAE@XZ       00412830 f i Eclipse.obj
 0001:00011850       ?DoDataExchange@CAboutDlg@@MAEXPAVCDataExchange@@@Z 00412850 f   Eclipse.obj
 0001:00011880       ?_GetBaseMessageMap@CAboutDlg@@KGPBUAFX_MSGMAP@@XZ 00412880 f   Eclipse.obj
 0001:000118a0       ?GetMessageMap@CAboutDlg@@MBEPBUAFX_MSGMAP@@XZ 004128a0 f   Eclipse.obj
 0001:000118c0       ?OnAppAbout@CEclipseApp@@QAEXXZ 004128c0 f   Eclipse.obj
 0001:00011920       ?OnInitDialog@CAboutDlg@@MAEHXZ 00412920 f   Eclipse.obj
 0001:00011c60       ?PreTranslateMessage@CEclipseApp@@UAEHPAUtagMSG@@@Z 00412c60 f   Eclipse.obj
 0001:00011ca0       ?CreateObject@CEclipseDoc@@SGPAVCObject@@XZ 00412ca0 f   EclipseDoc.obj
 0001:00011d20       ?_GetBaseClass@CEclipseDoc@@KGPAUCRuntimeClass@@XZ 00412d20 f   EclipseDoc.obj
 0001:00011d40       ?GetRuntimeClass@CEclipseDoc@@UBEPAUCRuntimeClass@@XZ 00412d40 f   EclipseDoc.obj
 0001:00011d60       ?_GetBaseMessageMap@CEclipseDoc@@KGPBUAFX_MSGMAP@@XZ 00412d60 f   EclipseDoc.obj
 0001:00011d80       ?GetMessageMap@CEclipseDoc@@MBEPBUAFX_MSGMAP@@XZ 00412d80 f   EclipseDoc.obj
 0001:00011da0       ??0CEclipseDoc@@IAE@XZ     00412da0 f   EclipseDoc.obj
 0001:00011dd0       ??_ECEclipseDoc@@UAEPAXI@Z 00412dd0 f i EclipseDoc.obj
 0001:00011dd0       ??_GCEclipseDoc@@UAEPAXI@Z 00412dd0 f i EclipseDoc.obj
 0001:00011e10       ??1CEclipseDoc@@UAE@XZ     00412e10 f   EclipseDoc.obj
 0001:00011e40       ?OnNewDocument@CEclipseDoc@@UAEHXZ 00412e40 f   EclipseDoc.obj
 0001:00011e70       ?Serialize@CEclipseDoc@@UAEXAAVCArchive@@@Z 00412e70 f   EclipseDoc.obj
 0001:00011e90       ?AssertValid@CEclipseDoc@@UBEXXZ 00412e90 f   EclipseDoc.obj
 0001:00011eb0       ?Dump@CEclipseDoc@@UBEXAAVCDumpContext@@@Z 00412eb0 f   EclipseDoc.obj
 0001:00011ee0       ?AnsiToUnicode@CEclipseDoc@@SAJPBDPAPAG@Z 00412ee0 f   EclipseDoc.obj
 0001:00011fb0       ??0CFloatEdit@@QAE@XZ      00412fb0 f   FloatEdit.obj
 0001:00011fe0       ?DoNotAllowNegative@CFloatEdit@@UAEXXZ 00412fe0 f i FloatEdit.obj
 0001:00012000       ??_GCFloatEdit@@UAEPAXI@Z  00413000 f i FloatEdit.obj
 0001:00012000       ??_ECFloatEdit@@UAEPAXI@Z  00413000 f i FloatEdit.obj
 0001:00012040       ??1CFloatEdit@@UAE@XZ      00413040 f   FloatEdit.obj
 0001:00012070       ?_GetBaseMessageMap@CFloatEdit@@KGPBUAFX_MSGMAP@@XZ 00413070 f   FloatEdit.obj
 0001:00012090       ?GetMessageMap@CFloatEdit@@MBEPBUAFX_MSGMAP@@XZ 00413090 f   FloatEdit.obj
 0001:000120b0       ?OnChar@CFloatEdit@@IAEXIII@Z 004130b0 f   FloatEdit.obj
 0001:000121a0       ??0CGraphProperties@@QAE@PAVCWnd@@PAVCGSX2@@_N@Z 004131a0 f   GraphProperties.obj
 0001:000122b0       ??_ECGraphProperties@@UAEPAXI@Z 004132b0 f i GraphProperties.obj
 0001:000122b0       ??_GCGraphProperties@@UAEPAXI@Z 004132b0 f i GraphProperties.obj
 0001:000122f0       ?DoDataExchange@CGraphProperties@@MAEXPAVCDataExchange@@@Z 004132f0 f   GraphProperties.obj
 0001:000123a0       ?_GetBaseMessageMap@CGraphProperties@@KGPBUAFX_MSGMAP@@XZ 004133a0 f   GraphProperties.obj
 0001:000123c0       ?GetMessageMap@CGraphProperties@@MBEPBUAFX_MSGMAP@@XZ 004133c0 f   GraphProperties.obj
 0001:000123e0       ?OnInitDialog@CGraphProperties@@MAEHXZ 004133e0 f   GraphProperties.obj
 0001:00012920       ?OnSymbols@CGraphProperties@@IAEXXZ 00413920 f   GraphProperties.obj
 0001:00012a40       ?OnSelchangeSymbolsColor@CGraphProperties@@IAEXXZ 00413a40 f   GraphProperties.obj
 0001:00012ab0       ?OnSelchangeSymbolsType@CGraphProperties@@IAEXXZ 00413ab0 f   GraphProperties.obj
 0001:00012b20       ?OnHScroll@CGraphProperties@@IAEXIIPAVCScrollBar@@@Z 00413b20 f   GraphProperties.obj
 0001:00012d00       ?OnLines@CGraphProperties@@IAEXXZ 00413d00 f   GraphProperties.obj
 0001:00012de0       ?OnSelchangeLinesColor@CGraphProperties@@IAEXXZ 00413de0 f   GraphProperties.obj
 0001:00012e50       ?OnSelchangeLinesWidth@CGraphProperties@@IAEXXZ 00413e50 f   GraphProperties.obj
 0001:00012ec0       ?OnGrid@CGraphProperties@@IAEXXZ 00413ec0 f   GraphProperties.obj
 0001:00012f70       ?OnSelchangeGridColor@CGraphProperties@@IAEXXZ 00413f70 f   GraphProperties.obj
 0001:00012fe0       ?OnSelchangeAxisColor@CGraphProperties@@IAEXXZ 00413fe0 f   GraphProperties.obj
 0001:00013050       ?OnAxisLog@CGraphProperties@@IAEXXZ 00414050 f   GraphProperties.obj
 0001:000130c0       ?OnUpdateAxisXtext@CGraphProperties@@IAEXXZ 004140c0 f   GraphProperties.obj
 0001:000131a0       ?OnUpdateAxisYtext@CGraphProperties@@IAEXXZ 004141a0 f   GraphProperties.obj
 0001:00013280       ?OnSelchangeBkgColor@CGraphProperties@@IAEXXZ 00414280 f   GraphProperties.obj
 0001:00013310       ?OnOverlayPropsButton@CGraphProperties@@IAEXXZ 00414310 f   GraphProperties.obj
 0001:00013390       ??1COverlayProps@@UAE@XZ   00414390 f i GraphProperties.obj
 0001:000133f0       ?CreateObject@CGSX2@@SGPAVCObject@@XZ 004143f0 f   gsx2.obj
 0001:00013460       ?_GetBaseClass@CGSX2@@KGPAUCRuntimeClass@@XZ 00414460 f   gsx2.obj
 0001:00013480       ?GetRuntimeClass@CGSX2@@UBEPAUCRuntimeClass@@XZ 00414480 f   gsx2.obj
 0001:000134a0       ?GetBatchMode@CGSX2@@QAEHXZ 004144a0 f   gsx2.obj
 0001:000134d0       ?SetBatchMode@CGSX2@@QAEXH@Z 004144d0 f   gsx2.obj
 0001:00013500       ?GetLegendState@CGSX2@@QAEHXZ 00414500 f   gsx2.obj
 0001:00013530       ?SetLegendState@CGSX2@@QAEXH@Z 00414530 f   gsx2.obj
 0001:00013560       ?GetAxisXText@CGSX2@@QAE?AVCString@@XZ 00414560 f   gsx2.obj
 0001:000135e0       ?SetAxisXText@CGSX2@@QAEXPBD@Z 004145e0 f   gsx2.obj
 0001:00013610       ?GetAxisYText@CGSX2@@QAE?AVCString@@XZ 00414610 f   gsx2.obj
 0001:00013690       ?SetAxisYText@CGSX2@@QAEXPBD@Z 00414690 f   gsx2.obj
 0001:000136c0       ?GetAxisColor@CGSX2@@QAEJXZ 004146c0 f   gsx2.obj
 0001:000136f0       ?SetAxisColor@CGSX2@@QAEXJ@Z 004146f0 f   gsx2.obj
 0001:00013720       ?GetGridState@CGSX2@@QAEHXZ 00414720 f   gsx2.obj
 0001:00013750       ?SetGridState@CGSX2@@QAEXH@Z 00414750 f   gsx2.obj
 0001:00013780       ?GetGridColor@CGSX2@@QAEJXZ 00414780 f   gsx2.obj
 0001:000137b0       ?SetGridColor@CGSX2@@QAEXJ@Z 004147b0 f   gsx2.obj
 0001:000137e0       ?GetPlotAreaColor@CGSX2@@QAEJXZ 004147e0 f   gsx2.obj
 0001:00013810       ?SetPlotAreaColor@CGSX2@@QAEXJ@Z 00414810 f   gsx2.obj
 0001:00013840       ?GetAxisXLog@CGSX2@@QAEHXZ 00414840 f   gsx2.obj
 0001:00013870       ?SetAxisXLog@CGSX2@@QAEXH@Z 00414870 f   gsx2.obj
 0001:000138a0       ?GetAxisYLog@CGSX2@@QAEHXZ 004148a0 f   gsx2.obj
 0001:000138d0       ?SetAxisYLog@CGSX2@@QAEXH@Z 004148d0 f   gsx2.obj
 0001:00013900       ?GetTitleText@CGSX2@@QAE?AVCString@@XZ 00414900 f   gsx2.obj
 0001:00013980       ?SetTitleText@CGSX2@@QAEXPBD@Z 00414980 f   gsx2.obj
 0001:000139b0       ?GetTitleTextColor@CGSX2@@QAEJXZ 004149b0 f   gsx2.obj
 0001:000139e0       ?SetTitleTextColor@CGSX2@@QAEXJ@Z 004149e0 f   gsx2.obj
 0001:00013a10       ?GetTitleBackgroundColor@CGSX2@@QAEJXZ 00414a10 f   gsx2.obj
 0001:00013a40       ?SetTitleBackgroundColor@CGSX2@@QAEXJ@Z 00414a40 f   gsx2.obj
 0001:00013a70       ?GetTitleBorder@CGSX2@@QAEJXZ 00414a70 f   gsx2.obj
 0001:00013aa0       ?SetTitleBorder@CGSX2@@QAEXJ@Z 00414aa0 f   gsx2.obj
 0001:00013ad0       ?GetLegendTextColor@CGSX2@@QAEJXZ 00414ad0 f   gsx2.obj
 0001:00013b00       ?SetLegendTextColor@CGSX2@@QAEXJ@Z 00414b00 f   gsx2.obj
 0001:00013b30       ?GetLegendBackgroundColor@CGSX2@@QAEJXZ 00414b30 f   gsx2.obj
 0001:00013b60       ?SetLegendBackgroundColor@CGSX2@@QAEXJ@Z 00414b60 f   gsx2.obj
 0001:00013b90       ?GetLegendBorder@CGSX2@@QAEJXZ 00414b90 f   gsx2.obj
 0001:00013bc0       ?SetLegendBorder@CGSX2@@QAEXJ@Z 00414bc0 f   gsx2.obj
 0001:00013bf0       ?GetInternalZoom@CGSX2@@QAEHXZ 00414bf0 f   gsx2.obj
 0001:00013c20       ?SetInternalZoom@CGSX2@@QAEXH@Z 00414c20 f   gsx2.obj
 0001:00013c50       ?GetNumberOfSeries@CGSX2@@QAEJXZ 00414c50 f   gsx2.obj
 0001:00013c80       ?SetNumberOfSeries@CGSX2@@QAEXJ@Z 00414c80 f   gsx2.obj
 0001:00013cb0       ?GetScrollBar@CGSX2@@QAEHXZ 00414cb0 f   gsx2.obj
 0001:00013ce0       ?SetScrollBar@CGSX2@@QAEXH@Z 00414ce0 f   gsx2.obj
 0001:00013d10       ?GetAutoScale@CGSX2@@QAEHXZ 00414d10 f   gsx2.obj
 0001:00013d40       ?SetAutoScale@CGSX2@@QAEXH@Z 00414d40 f   gsx2.obj
 0001:00013d70       ?GetShowActiveGraph@CGSX2@@QAEHXZ 00414d70 f   gsx2.obj
 0001:00013da0       ?SetShowActiveGraph@CGSX2@@QAEXH@Z 00414da0 f   gsx2.obj
 0001:00013dd0       ?GetActiveGraph@CGSX2@@QAEHXZ 00414dd0 f   gsx2.obj
 0001:00013e00       ?SetActiveGraph@CGSX2@@QAEXH@Z 00414e00 f   gsx2.obj
 0001:00013e30       ?GetInternalMarker@CGSX2@@QAEHXZ 00414e30 f   gsx2.obj
 0001:00013e60       ?SetInternalMarker@CGSX2@@QAEXH@Z 00414e60 f   gsx2.obj
 0001:00013e90       ?GetStartMarkerPos@CGSX2@@QAENXZ 00414e90 f   gsx2.obj
 0001:00013ec0       ?SetStartMarkerPos@CGSX2@@QAEXN@Z 00414ec0 f   gsx2.obj
 0001:00013ef0       ?GetEndMarkerPos@CGSX2@@QAENXZ 00414ef0 f   gsx2.obj
 0001:00013f20       ?SetEndMarkerPos@CGSX2@@QAEXN@Z 00414f20 f   gsx2.obj
 0001:00013f50       ?GetActiveTool@CGSX2@@QAEFXZ 00414f50 f   gsx2.obj
 0001:00013f80       ?SetActiveTool@CGSX2@@QAEXF@Z 00414f80 f   gsx2.obj
 0001:00013fb0       ?GetSmooth@CGSX2@@QAEFXZ   00414fb0 f   gsx2.obj
 0001:00013fe0       ?SetSmooth@CGSX2@@QAEXF@Z  00414fe0 f   gsx2.obj
 0001:00014010       ?GetAxisXMin@CGSX2@@QAENXZ 00415010 f   gsx2.obj
 0001:00014040       ?SetAxisXMin@CGSX2@@QAEXN@Z 00415040 f   gsx2.obj
 0001:00014070       ?GetAxisXMax@CGSX2@@QAENXZ 00415070 f   gsx2.obj
 0001:000140a0       ?SetAxisXMax@CGSX2@@QAEXN@Z 004150a0 f   gsx2.obj
 0001:000140d0       ?GetAxisYMin@CGSX2@@QAENXZ 004150d0 f   gsx2.obj
 0001:00014100       ?SetAxisYMin@CGSX2@@QAEXN@Z 00415100 f   gsx2.obj
 0001:00014130       ?GetAxisYMax@CGSX2@@QAENXZ 00415130 f   gsx2.obj
 0001:00014160       ?SetAxisYMax@CGSX2@@QAEXN@Z 00415160 f   gsx2.obj
 0001:00014190       ?GetInternalGain@CGSX2@@QAEHXZ 00415190 f   gsx2.obj
 0001:000141c0       ?SetInternalGain@CGSX2@@QAEXH@Z 004151c0 f   gsx2.obj
 0001:000141f0       ?GetGainValue@CGSX2@@QAENXZ 004151f0 f   gsx2.obj
 0001:00014220       ?SetGainValue@CGSX2@@QAEXN@Z 00415220 f   gsx2.obj
 0001:00014250       ?GetChartAreaColor@CGSX2@@QAEJXZ 00415250 f   gsx2.obj
 0001:00014280       ?SetChartAreaColor@CGSX2@@QAEXJ@Z 00415280 f   gsx2.obj
 0001:000142b0       ?GetMarkerHorzLine@CGSX2@@QAEHXZ 004152b0 f   gsx2.obj
 0001:000142e0       ?SetMarkerHorzLine@CGSX2@@QAEXH@Z 004152e0 f   gsx2.obj
 0001:00014310       ?GetHorzLine1State@CGSX2@@QAEHXZ 00415310 f   gsx2.obj
 0001:00014340       ?SetHorzLine1State@CGSX2@@QAEXH@Z 00415340 f   gsx2.obj
 0001:00014370       ?GetHorzLine2State@CGSX2@@QAEHXZ 00415370 f   gsx2.obj
 0001:000143a0       ?SetHorzLine2State@CGSX2@@QAEXH@Z 004153a0 f   gsx2.obj
 0001:000143d0       ?GetHorzLine1Color@CGSX2@@QAEJXZ 004153d0 f   gsx2.obj
 0001:00014400       ?SetHorzLine1Color@CGSX2@@QAEXJ@Z 00415400 f   gsx2.obj
 0001:00014430       ?GetHorzLine2Color@CGSX2@@QAEJXZ 00415430 f   gsx2.obj
 0001:00014460       ?SetHorzLine2Color@CGSX2@@QAEXJ@Z 00415460 f   gsx2.obj
 0001:00014490       ?Size@CGSX2@@QAEXJJJJ@Z    00415490 f   gsx2.obj
 0001:000144d0       ?GetVersion@CGSX2@@QAEMXZ  004154d0 f   gsx2.obj
 0001:00014500       ?CopyToClipboard@CGSX2@@QAEXXZ 00415500 f   gsx2.obj
 0001:00014530       ?ReDraw@CGSX2@@QAEXXZ      00415530 f   gsx2.obj
 0001:00014560       ?SetDefaultAxis@CGSX2@@QAEXXZ 00415560 f   gsx2.obj
 0001:00014590       ?Print@CGSX2@@QAEXJJJJ@Z   00415590 f   gsx2.obj
 0001:000145d0       ?DrawToDC@CGSX2@@QAEHJJJJJ@Z 004155d0 f   gsx2.obj
 0001:00014620       ?AddLegendText@CGSX2@@QAEXPBD@Z 00415620 f   gsx2.obj
 0001:00014660       ?RemoveLegendText@CGSX2@@QAEXH@Z 00415660 f   gsx2.obj
 0001:000146a0       ?GetDataLineColor@CGSX2@@QAEJJ@Z 004156a0 f   gsx2.obj
 0001:000146e0       ?SetDataLineColor@CGSX2@@QAEXJJ@Z 004156e0 f   gsx2.obj
 0001:00014720       ?GetDataLineWidth@CGSX2@@QAEJJ@Z 00415720 f   gsx2.obj
 0001:00014760       ?SetDataLineWidth@CGSX2@@QAEXJJ@Z 00415760 f   gsx2.obj
 0001:000147a0       ?GetDataSymbol@CGSX2@@QAEJJ@Z 004157a0 f   gsx2.obj
 0001:000147e0       ?SetDataSymbol@CGSX2@@QAEXJJ@Z 004157e0 f   gsx2.obj
 0001:00014820       ?GetDataSymbolSize@CGSX2@@QAEJJ@Z 00415820 f   gsx2.obj
 0001:00014860       ?SetDataSymbolSize@CGSX2@@QAEXJJ@Z 00415860 f   gsx2.obj
 0001:000148a0       ?GetDataSymbolColor@CGSX2@@QAEJJ@Z 004158a0 f   gsx2.obj
 0001:000148e0       ?SetDataSymbolColor@CGSX2@@QAEXJJ@Z 004158e0 f   gsx2.obj
 0001:00014920       ?ScaleDataToPixel@CGSX2@@QAEXNNPAJ0@Z 00415920 f   gsx2.obj
 0001:00014970       ?ZoomXAxisIn@CGSX2@@QAEXXZ 00415970 f   gsx2.obj
 0001:000149a0       ?ZoomXAxisOut@CGSX2@@QAEXXZ 004159a0 f   gsx2.obj
 0001:000149d0       ?ZoomYAxisIn@CGSX2@@QAEXXZ 004159d0 f   gsx2.obj
 0001:00014a00       ?ZoomYAxisOut@CGSX2@@QAEXXZ 00415a00 f   gsx2.obj
 0001:00014a30       ?ScalePixelToData@CGSX2@@QAEHJJPAN0@Z 00415a30 f   gsx2.obj
 0001:00014a80       ?GetDataLine@CGSX2@@QAEJJ@Z 00415a80 f   gsx2.obj
 0001:00014ac0       ?SetDataLine@CGSX2@@QAEXJJ@Z 00415ac0 f   gsx2.obj
 0001:00014b00       ?ScalePixelToDataIndex@CGSX2@@QAEHJJJPAJH@Z 00415b00 f   gsx2.obj
 0001:00014b50       ?ZoomYAxisAuto@CGSX2@@QAEXXZ 00415b50 f   gsx2.obj
 0001:00014b80       ?GetStartMarkerIndex@CGSX2@@QAEJJ@Z 00415b80 f   gsx2.obj
 0001:00014bc0       ?GetEndMarkerIndex@CGSX2@@QAEJJ@Z 00415bc0 f   gsx2.obj
 0001:00014c00       ?GetAnalysisFromSelection@CGSX2@@QAEJJPAN00@Z 00415c00 f   gsx2.obj
 0001:00014c50       ?GetYValueFromIndex@CGSX2@@QAENJJH@Z 00415c50 f   gsx2.obj
 0001:00014c90       ?GetYValueFromXValue@CGSX2@@QAENJN@Z 00415c90 f   gsx2.obj
 0001:00014cd0       ?GetXValueFromIndex@CGSX2@@QAENJJH@Z 00415cd0 f   gsx2.obj
 0001:00014d10       ?GetDisplaySeries@CGSX2@@QAEHJ@Z 00415d10 f   gsx2.obj
 0001:00014d50       ?SetDisplaySeries@CGSX2@@QAEXJH@Z 00415d50 f   gsx2.obj
 0001:00014d90       ?ClearData@CGSX2@@QAEXJ@Z  00415d90 f   gsx2.obj
 0001:00014dd0       ?SetDataEx@CGSX2@@QAEHPAUtagVARIANT@@0JH@Z 00415dd0 f   gsx2.obj
 0001:00014e20       ?HorzLine1@CGSX2@@QAEXNHH@Z 00415e20 f   gsx2.obj
 0001:00014e60       ?HorzLine2@CGSX2@@QAEXNHH@Z 00415e60 f   gsx2.obj
 0001:00014ea0       ?AboutBox@CGSX2@@QAEXXZ    00415ea0 f   gsx2.obj
 0001:00014ed0       ?GetTimePreset@IICSGP@@QAEJXZ 00415ed0 f   ics.obj
 0001:00014f00       ?SetTimePreset@IICSGP@@QAEXJ@Z 00415f00 f   ics.obj
 0001:00014f30       ?GetRps@IICSGP@@QAEHXZ     00415f30 f   ics.obj
 0001:00014f60       ?SetRps@IICSGP@@QAEXH@Z    00415f60 f   ics.obj
 0001:00014f90       ?GetProtocol@IICSGP@@QAEFXZ 00415f90 f   ics.obj
 0001:00014fc0       ?SetProtocol@IICSGP@@QAEXF@Z 00415fc0 f   ics.obj
 0001:00014ff0       ?GetSpectrumPreset@IICSGP@@QAEJXZ 00415ff0 f   ics.obj
 0001:00015020       ?SetSpectrumPreset@IICSGP@@QAEXJ@Z 00416020 f   ics.obj
 0001:00015050       ?GetRecord@IICSGP@@QAEJXZ  00416050 f   ics.obj
 0001:00015080       ?SetRecord@IICSGP@@QAEXJ@Z 00416080 f   ics.obj
 0001:000150b0       ?GetRecords@IICSGP@@QAEJXZ 004160b0 f   ics.obj
 0001:000150e0       ?SetRecords@IICSGP@@QAEXJ@Z 004160e0 f   ics.obj
 0001:00015110       ?GetRecordsStored@IICSGP@@QAEJXZ 00416110 f   ics.obj
 0001:00015140       ?SetRecordsStored@IICSGP@@QAEXJ@Z 00416140 f   ics.obj
 0001:00015170       ?GetDataLength@IICSGP@@QAEJXZ 00416170 f   ics.obj
 0001:000151a0       ?SetDataLength@IICSGP@@QAEXJ@Z 004161a0 f   ics.obj
 0001:000151d0       ?GetActive@IICSGP@@QAEHXZ  004161d0 f   ics.obj
 0001:00015200       ?SetActive@IICSGP@@QAEXH@Z 00416200 f   ics.obj
 0001:00015230       ?GetTimeElapsed@IICSGP@@QAEJXZ 00416230 f   ics.obj
 0001:00015260       ?SetTimeElapsed@IICSGP@@QAEXJ@Z 00416260 f   ics.obj
 0001:00015290       ?GetIsDSPPresent@IICSGP@@QAEHXZ 00416290 f   ics.obj
 0001:000152c0       ?SetIsDSPPresent@IICSGP@@QAEXH@Z 004162c0 f   ics.obj
 0001:000152f0       ?GetTriggerPolarity@IICSGP@@QAEHXZ 004162f0 f   ics.obj
 0001:00015320       ?SetTriggerPolarity@IICSGP@@QAEXH@Z 00416320 f   ics.obj
 0001:00015350       ?GetDataFromInst@IICSGP@@QAEHPAUtagVARIANT@@0@Z 00416350 f   ics.obj
 0001:00015390       ?StopAverageAcquisition@IICSGP@@QAEXXZ 00416390 f   ics.obj
 0001:000153c0       ?Reset@IICSGP@@QAEXXZ      004163c0 f   ics.obj
 0001:000153f0       ?GetRecordLength@IICSGP@@QAEMF@Z 004163f0 f   ics.obj
 0001:00015430       ?SetRecordLength@IICSGP@@QAEXFM@Z 00416430 f   ics.obj
 0001:00015470       ?GetTimeOffset@IICSGP@@QAEMF@Z 00416470 f   ics.obj
 0001:000154b0       ?SetTimeOffset@IICSGP@@QAEXFM@Z 004164b0 f   ics.obj
 0001:000154f0       ?GetSamplingInterval@IICSGP@@QAEMF@Z 004164f0 f   ics.obj
 0001:00015530       ?SetSamplingInterval@IICSGP@@QAEXFM@Z 00416530 f   ics.obj
 0001:00015570       ?GetOffset@IICSGP@@QAEMF@Z 00416570 f   ics.obj
 0001:000155b0       ?SetOffset@IICSGP@@QAEXFM@Z 004165b0 f   ics.obj
 0001:000155f0       ?GetScansAveraged@IICSGP@@QAEJF@Z 004165f0 f   ics.obj
 0001:00015630       ?SetScansAveraged@IICSGP@@QAEXFJ@Z 00416630 f   ics.obj
 0001:00015670       ?GetDeadTime@IICSGP@@QAEMF@Z 00416670 f   ics.obj
 0001:000156b0       ?SetDeadTime@IICSGP@@QAEXFM@Z 004166b0 f   ics.obj
 0001:000156f0       ?GetICSVersion@IICSGP@@QAEMXZ 004166f0 f   ics.obj
 0001:00015720       ?ResetHotLink@IICSGP@@QAEXXZ 00416720 f   ics.obj
 0001:00015750       ?GetEnhancer@IICSGP@@QAEHF@Z 00416750 f   ics.obj
 0001:00015790       ?SetEnhancer@IICSGP@@QAEXFH@Z 00416790 f   ics.obj
 0001:000157d0       ?GetInstVersion@IICSGP@@QAE?AVCString@@XZ 004167d0 f   ics.obj
 0001:00015860       ?SaveTrendDataFile@IICSGP@@QAEXPBD@Z 00416860 f   ics.obj
 0001:000158a0       ?IsInstPresent@IICSGP@@QAEHXZ 004168a0 f   ics.obj
 0001:000158d0       ?GetAverageConfig@IICSGP@@QAE?AVCString@@F@Z 004168d0 f   ics.obj
 0001:00015960       ?GetRawData@IICSGP@@QAEHPAUtagVARIANT@@JJ@Z 00416960 f   ics.obj
 0001:000159a0       ?Direct@IICSGP@@QAE?AVCString@@PBD@Z 004169a0 f   ics.obj
 0001:00015a30       ?StartAverageAcquisition@IICSGP@@QAEXABUtagVARIANT@@JNJ@Z 00416a30 f   ics.obj
 0001:00015a80       ?StopTrendAcquisition@IICSGP@@QAEXXZ 00416a80 f   ics.obj
 0001:00015ab0       ?GetTrendDataFromInst@IICSGP@@QAEHPAUtagVARIANT@@0FPAJ@Z 00416ab0 f   ics.obj
 0001:00015b00       ?ResumeTrend@IICSGP@@QAEXXZ 00416b00 f   ics.obj
 0001:00015b30       ?GetTrendData@IICSGP@@QAEHPAUtagVARIANT@@0@Z 00416b30 f   ics.obj
 0001:00015b70       ?StartTrendAcquisition@IICSGP@@QAEXPBDJH@Z 00416b70 f   ics.obj
 0001:00015bb0       ?SaveBasicTrendData@IICSGP@@QAEHPBD@Z 00416bb0 f   ics.obj
 0001:00015bf0       ?SetupTrendFileInfo@IICSGP@@QAEXPBD@Z 00416bf0 f   ics.obj
 0001:00015c30       ?GetTrendRecord@IICSGP@@QAEHPAUtagVARIANT@@0JMMFJJHH@Z 00416c30 f   ics.obj
 0001:00015ca0       ?GetProtocolFromTrendIndex@IICSGP@@QAEJPBDJ@Z 00416ca0 f   ics.obj
 0001:00015ce0       ?GetBasicTrendData@IICSGP@@QAEHPAUtagVARIANT@@0PBD@Z 00416ce0 f   ics.obj
 0001:00015d20       ?CreateObject@CIndicators@@SGPAVCObject@@XZ 00416d20 f   indicators.obj
 0001:00015d90       ?_GetBaseClass@CIndicators@@KGPAUCRuntimeClass@@XZ 00416d90 f   indicators.obj
 0001:00015db0       ?GetRuntimeClass@CIndicators@@UBEPAUCRuntimeClass@@XZ 00416db0 f   indicators.obj
 0001:00015dd0       ?GetColor@CIndicators@@QAEFXZ 00416dd0 f   indicators.obj
 0001:00015e00       ?SetColor@CIndicators@@QAEXF@Z 00416e00 f   indicators.obj
 0001:00015e30       ?GetState@CIndicators@@QAEHXZ 00416e30 f   indicators.obj
 0001:00015e60       ?SetState@CIndicators@@QAEXH@Z 00416e60 f   indicators.obj
 0001:00015e90       ?GetMomentaryTime@CIndicators@@QAEJXZ 00416e90 f   indicators.obj
 0001:00015ec0       ?SetMomentaryTime@CIndicators@@QAEXJ@Z 00416ec0 f   indicators.obj
 0001:00015ef0       ?GetFlashOffTime@CIndicators@@QAEJXZ 00416ef0 f   indicators.obj
 0001:00015f20       ?SetFlashOffTime@CIndicators@@QAEXJ@Z 00416f20 f   indicators.obj
 0001:00015f50       ?GetFlashOnTime@CIndicators@@QAEJXZ 00416f50 f   indicators.obj
 0001:00015f80       ?SetFlashOnTime@CIndicators@@QAEXJ@Z 00416f80 f   indicators.obj
 0001:00015fb0       ?GetIsFlashing@CIndicators@@QAEHXZ 00416fb0 f   indicators.obj
 0001:00015fe0       ?SetIsFlashing@CIndicators@@QAEXH@Z 00416fe0 f   indicators.obj
 0001:00016010       ?MomentaryOn@CIndicators@@QAEXXZ 00417010 f   indicators.obj
 0001:00016040       ?MomentaryOff@CIndicators@@QAEXXZ 00417040 f   indicators.obj
 0001:00016070       ?AboutBox@CIndicators@@QAEXXZ 00417070 f   indicators.obj
 0001:000160a0       ??0CInfoBar@@QAE@XZ        004170a0 f   InfoBar.obj
 0001:00016130       ?GetInfoWnd@CInfoBar@@UAEPAVCWnd@@XZ 00417130 f i InfoBar.obj
 0001:00016150       ?GetInfoDlg@CInfoBar@@UAEPAVCDialog@@XZ 00417150 f i InfoBar.obj
 0001:00016170       ??_GCInfoBar@@UAEPAXI@Z    00417170 f i InfoBar.obj
 0001:00016170       ??_ECInfoBar@@UAEPAXI@Z    00417170 f i InfoBar.obj
 0001:000161b0       ??1CInfoBar@@UAE@XZ        004171b0 f   InfoBar.obj
 0001:00016260       ?Create@CInfoBar@@QAEHPAVCWnd@@II@Z 00417260 f   InfoBar.obj
 0001:00016450       ?CalcFixedLayout@CInfoBar@@UAE?AVCSize@@HH@Z 00417450 f   InfoBar.obj
 0001:000164e0       ?OnUpdateCmdUI@CInfoBar@@UAEXPAVCFrameWnd@@H@Z 004174e0 f   InfoBar.obj
 0001:00016510       ??0CInfoBarDlg@@QAE@PAVCWnd@@@Z 00417510 f   InfoBarDlg.obj
 0001:00016550       ??_GCInfoBarDlg@@UAEPAXI@Z 00417550 f i InfoBarDlg.obj
 0001:00016550       ??_ECInfoBarDlg@@UAEPAXI@Z 00417550 f i InfoBarDlg.obj
 0001:00016590       ??1CInfoBarDlg@@UAE@XZ     00417590 f i InfoBarDlg.obj
 0001:000165b0       ?DoDataExchange@CInfoBarDlg@@MAEXPAVCDataExchange@@@Z 004175b0 f   InfoBarDlg.obj
 0001:000165e0       ?_GetBaseMessageMap@CInfoBarDlg@@KGPBUAFX_MSGMAP@@XZ 004175e0 f   InfoBarDlg.obj
 0001:00016600       ?GetMessageMap@CInfoBarDlg@@MBEPBUAFX_MSGMAP@@XZ 00417600 f   InfoBarDlg.obj
 0001:00016620       ?OnDestroy@CInfoBarDlg@@IAEXXZ 00417620 f   InfoBarDlg.obj
 0001:00016640       ?OnInitDialog@CInfoBarDlg@@MAEHXZ 00417640 f   InfoBarDlg.obj
 0001:00016740       ?OnInfoBrowse@CInfoBarDlg@@IAEXXZ 00417740 f   InfoBarDlg.obj
 0001:000168b0       ?BrowseDestProc@CInfoBarDlg@@SGHPAUHWND__@@IJJ@Z 004178b0 f   InfoBarDlg.obj
 0001:000169a0       ?OnTrendSetup@CInfoBarDlg@@IAEXXZ 004179a0 f   InfoBarDlg.obj
 0001:00016a10       ??1CTrendSetup@@UAE@XZ     00417a10 f i InfoBarDlg.obj
 0001:00016af0       ??0CInstStatusBar@@QAE@XZ  00417af0 f   InstStatusBar.obj
 0001:00016b80       ?GetStatusWnd@CInstStatusBar@@UAEPAVCWnd@@XZ 00417b80 f i InstStatusBar.obj
 0001:00016ba0       ?GetStatusDlg@CInstStatusBar@@UAEPAVCDialog@@XZ 00417ba0 f i InstStatusBar.obj
 0001:00016bc0       ??_ECInstStatusBar@@UAEPAXI@Z 00417bc0 f i InstStatusBar.obj
 0001:00016bc0       ??_GCInstStatusBar@@UAEPAXI@Z 00417bc0 f i InstStatusBar.obj
 0001:00016c00       ??1CInstStatusBar@@UAE@XZ  00417c00 f   InstStatusBar.obj
 0001:00016cb0       ?Create@CInstStatusBar@@QAEHPAVCWnd@@II@Z 00417cb0 f   InstStatusBar.obj
 0001:00016ea0       ?CalcFixedLayout@CInstStatusBar@@UAE?AVCSize@@HH@Z 00417ea0 f   InstStatusBar.obj
 0001:00016f30       ?OnUpdateCmdUI@CInstStatusBar@@UAEXPAVCFrameWnd@@H@Z 00417f30 f   InstStatusBar.obj
 0001:00016f60       ??0CInstStatusBarDlg@@QAE@PAVCWnd@@@Z 00417f60 f   InstStatusBarDlg.obj
 0001:00017010       ?GetAcqTab@CInstStatusBarDlg@@UAEPAVCAcquisitionTab@@XZ 00418010 f i InstStatusBarDlg.obj
 0001:00017030       ?GetAnaTab@CInstStatusBarDlg@@UAEPAVCAnalysisTab@@XZ 00418030 f i InstStatusBarDlg.obj
 0001:00017050       ?GetCalibrationTab@CInstStatusBarDlg@@UAEPAVCCalibrationTab@@XZ 00418050 f i InstStatusBarDlg.obj
 0001:00017070       ??_ECInstStatusBarDlg@@UAEPAXI@Z 00418070 f i InstStatusBarDlg.obj
 0001:00017070       ??_GCInstStatusBarDlg@@UAEPAXI@Z 00418070 f i InstStatusBarDlg.obj
 0001:000170b0       ??1CInstStatusBarDlg@@UAE@XZ 004180b0 f i InstStatusBarDlg.obj
 0001:00017140       ?DoDataExchange@CInstStatusBarDlg@@MAEXPAVCDataExchange@@@Z 00418140 f   InstStatusBarDlg.obj
 0001:00017180       ?_GetBaseMessageMap@CInstStatusBarDlg@@KGPBUAFX_MSGMAP@@XZ 00418180 f   InstStatusBarDlg.obj
 0001:000171a0       ?GetMessageMap@CInstStatusBarDlg@@MBEPBUAFX_MSGMAP@@XZ 004181a0 f   InstStatusBarDlg.obj
 0001:000171c0       ?OnInitDialog@CInstStatusBarDlg@@MAEHXZ 004181c0 f   InstStatusBarDlg.obj
 0001:00017350       ?OnSelchangeStatustab@CInstStatusBarDlg@@IAEXPAUtagNMHDR@@PAJ@Z 00418350 f   InstStatusBarDlg.obj
 0001:00017550       ?OnCancel@CInstStatusBarDlg@@MAEXXZ 00418550 f   InstStatusBarDlg.obj
 0001:00017570       ?OnOK@CInstStatusBarDlg@@MAEXXZ 00418570 f   InstStatusBarDlg.obj
 0001:00017590       ?CreateObject@CMainFrame@@SGPAVCObject@@XZ 00418590 f   MainFrm.obj
 0001:00017610       ?_GetBaseClass@CMainFrame@@KGPAUCRuntimeClass@@XZ 00418610 f   MainFrm.obj
 0001:00017630       ?GetRuntimeClass@CMainFrame@@UBEPAUCRuntimeClass@@XZ 00418630 f   MainFrm.obj
 0001:00017650       ?_GetBaseMessageMap@CMainFrame@@KGPBUAFX_MSGMAP@@XZ 00418650 f   MainFrm.obj
 0001:00017670       ?GetMessageMap@CMainFrame@@MBEPBUAFX_MSGMAP@@XZ 00418670 f   MainFrm.obj
 0001:00017690       ??0CMainFrame@@IAE@XZ      00418690 f   MainFrm.obj
 0001:00017800       ??0IICSGP@@QAE@XZ          00418800 f i MainFrm.obj
 0001:00017820       ?GetActiveGraphIndex@CMainFrame@@UAEHXZ 00418820 f i MainFrm.obj
 0001:00017840       ?SetActiveGraphIndex@CMainFrame@@UAEXH@Z 00418840 f i MainFrm.obj
 0001:00017870       ?GetCurrentAcqPath@CMainFrame@@UAE?AVCString@@XZ 00418870 f i MainFrm.obj
 0001:000178b0       ?GetIsDataActive@CMainFrame@@UAE_NXZ 004188b0 f i MainFrm.obj
 0001:000178d0       ?GetIsAcqInProgress@CMainFrame@@UAE_NXZ 004188d0 f i MainFrm.obj
 0001:000178f0       ?SetIsAcqInProgress@CMainFrame@@UAEX_N@Z 004188f0 f i MainFrm.obj
 0001:00017920       ?GetEnableAcquisition@CMainFrame@@UAE_NXZ 00418920 f i MainFrm.obj
 0001:00017940       ?SetEnableAcquisition@CMainFrame@@UAEX_N@Z 00418940 f i MainFrm.obj
 0001:00017970       ?IsZooming@CMainFrame@@UAE_NXZ 00418970 f i MainFrm.obj
 0001:00017990       ?GetCurrentTool@CMainFrame@@UAE?AW4enumTools@@XZ 00418990 f i MainFrm.obj
 0001:000179b0       ?SetCurrentTool@CMainFrame@@UAEXW4enumTools@@@Z 004189b0 f i MainFrm.obj
 0001:000179e0       ?GetCurrentSmooth@CMainFrame@@UAE?AW4enumSmooth@@XZ 004189e0 f i MainFrm.obj
 0001:00017a00       ?SetCurrentSmooth@CMainFrame@@UAEXW4enumSmooth@@@Z 00418a00 f i MainFrm.obj
 0001:00017a30       ??_GCMainFrame@@UAEPAXI@Z  00418a30 f i MainFrm.obj
 0001:00017a30       ??_ECMainFrame@@UAEPAXI@Z  00418a30 f i MainFrm.obj
 0001:00017a70       ??1IICSGP@@QAE@XZ          00418a70 f i MainFrm.obj
 0001:00017a90       ??1CMainFrame@@UAE@XZ      00418a90 f   MainFrm.obj
 0001:00017ba0       ?OnCreate@CMainFrame@@IAEHPAUtagCREATESTRUCTA@@@Z 00418ba0 f   MainFrm.obj
 0001:00017f30       ?OnCreateClient@CMainFrame@@UAEHPAUtagCREATESTRUCTA@@PAUCCreateContext@@@Z 00418f30 f   MainFrm.obj
 0001:00018070       ?AssertValid@CMainFrame@@UBEXXZ 00419070 f   MainFrm.obj
 0001:00018090       ?Dump@CMainFrame@@UBEXAAVCDumpContext@@@Z 00419090 f   MainFrm.obj
 0001:000180c0       ?OnInststatusbar@CMainFrame@@IAEXXZ 004190c0 f   MainFrm.obj
 0001:00018100       ?OnUpdateInststatusbar@CMainFrame@@IAEXPAVCCmdUI@@@Z 00419100 f   MainFrm.obj
 0001:00018140       ?OnProperties@CMainFrame@@QAEXXZ 00419140 f   MainFrm.obj
 0001:000181b0       ?OnGraphAuto@CMainFrame@@IAEXXZ 004191b0 f   MainFrm.obj
 0001:00018220       ?OnGraphHorzin@CMainFrame@@IAEXXZ 00419220 f   MainFrm.obj
 0001:00018290       ?OnGraphHorzout@CMainFrame@@IAEXXZ 00419290 f   MainFrm.obj
 0001:00018300       ?OnGraphVertauto@CMainFrame@@IAEXXZ 00419300 f   MainFrm.obj
 0001:00018370       ?OnGraphVertin@CMainFrame@@IAEXXZ 00419370 f   MainFrm.obj
 0001:000183e0       ?OnGraphVertout@CMainFrame@@IAEXXZ 004193e0 f   MainFrm.obj
 0001:00018450       ?SetAverageFromIndex@CMainFrame@@UAEXH@Z 00419450 f   MainFrm.obj
 0001:00018620       ?SetActivePane@CMainFrame@@UAEXH@Z 00419620 f   MainFrm.obj
 0001:00018770       ?StartTrendAcquisition@CMainFrame@@UAEXXZ 00419770 f   MainFrm.obj
 0001:000188c0       ?StopTrendAcquisition@CMainFrame@@UAEXXZ 004198c0 f   MainFrm.obj
 0001:00018930       ?StartAverageAcquisition@CMainFrame@@UAEXXZ 00419930 f   MainFrm.obj
 0001:00018a70       ?StopAverageAcquisition@CMainFrame@@UAEXXZ 00419a70 f   MainFrm.obj
 0001:00018ab0       ?OnFileOpen@CMainFrame@@IAEXXZ 00419ab0 f   MainFrm.obj
 0001:000192c0       ?OnFileNew@CMainFrame@@IAEXXZ 0041a2c0 f   MainFrm.obj
 0001:000192e0       ?OnFileSave@CMainFrame@@IAEXXZ 0041a2e0 f   MainFrm.obj
 0001:000198a0       ?OnInitMenuPopup@CMainFrame@@IAEXPAVCMenu@@IH@Z 0041a8a0 f   MainFrm.obj
 0001:00019a20       ?OnAverageMode@CMainFrame@@IAEXXZ 0041aa20 f   MainFrm.obj
 0001:00019a50       ?OnTrendMode@CMainFrame@@IAEXXZ 0041aa50 f   MainFrm.obj
 0001:00019a80       ?GetICS@CMainFrame@@QAEPAVIICSGP@@XZ 0041aa80 f   MainFrm.obj
 0001:00019ac0       ?GetLED2@CAcquisitionTab@@QAEPAVCIndicators@@XZ 0041aac0 f i MainFrm.obj
 0001:00019ae0       ?GetAcqTab@CMainFrame@@QAEPAVCAcquisitionTab@@XZ 0041aae0 f   MainFrm.obj
 0001:00019b70       ?GetInstStatusBar@CMainFrame@@QAEPAVCInstStatusBar@@XZ 0041ab70 f i MainFrm.obj
 0001:00019b90       ?GetInfo@CMainFrame@@QAEPAVCInfoBarDlg@@XZ 0041ab90 f   MainFrm.obj
 0001:00019bf0       ?GetInfoBar@CMainFrame@@QAEPAVCInfoBar@@XZ 0041abf0 f i MainFrm.obj
 0001:00019c10       ?GetAnalysisTab@CMainFrame@@QAEPAVCAnalysisTab@@XZ 0041ac10 f   MainFrm.obj
 0001:00019ca0       ?GetCalibrationTab@CMainFrame@@QAEPAVCCalibrationTab@@XZ 0041aca0 f   MainFrm.obj
 0001:00019d30       ?SetStatusBarText@CMainFrame@@UAEXHVCString@@@Z 0041ad30 f   MainFrm.obj
 0001:00019da0       ?OnViewmodeMarker@CMainFrame@@QAEXXZ 0041ada0 f   MainFrm.obj
 0001:00019e10       ?OnViewmodeZoom@CMainFrame@@QAEXXZ 0041ae10 f   MainFrm.obj
 0001:00019e80       ?OnSmoothNone@CMainFrame@@IAEXXZ 0041ae80 f   MainFrm.obj
 0001:00019ef0       ?OnSmooth3pt@CMainFrame@@IAEXXZ 0041aef0 f   MainFrm.obj
 0001:00019f60       ?OnSmooth5pt@CMainFrame@@IAEXXZ 0041af60 f   MainFrm.obj
 0001:00019fd0       ?OnViewInfobar@CMainFrame@@IAEXXZ 0041afd0 f   MainFrm.obj
 0001:0001a010       ?OnUpdateViewInfobar@CMainFrame@@IAEXPAVCCmdUI@@@Z 0041b010 f   MainFrm.obj
 0001:0001a050       ?OnClose@CMainFrame@@IAEXXZ 0041b050 f   MainFrm.obj
 0001:0001a0f0       ?OnUpdateViewmodeMarker@CMainFrame@@IAEXPAVCCmdUI@@@Z 0041b0f0 f   MainFrm.obj
 0001:0001a1a0       ?OnUpdateViewmodeZoom@CMainFrame@@IAEXPAVCCmdUI@@@Z 0041b1a0 f   MainFrm.obj
 0001:0001a250       ?OnUpdateFileOpen@CMainFrame@@IAEXPAVCCmdUI@@@Z 0041b250 f   MainFrm.obj
 0001:0001a290       ?OnUpdateFileSave@CMainFrame@@IAEXPAVCCmdUI@@@Z 0041b290 f   MainFrm.obj
 0001:0001a360       ?OnStart@CMainFrame@@IAEXXZ 0041b360 f   MainFrm.obj
 0001:0001a390       ?OnStop@CMainFrame@@IAEXXZ 0041b390 f   MainFrm.obj
 0001:0001a3c0       ?OnFileSaveas@CMainFrame@@IAEXXZ 0041b3c0 f   MainFrm.obj
 0001:0001a740       ??1CSaveAs@@UAE@XZ         0041b740 f i MainFrm.obj
 0001:0001a7a0       ?OnUpdateFileSaveas@CMainFrame@@IAEXPAVCCmdUI@@@Z 0041b7a0 f   MainFrm.obj
 0001:0001a800       ?StripAxisTextLabels@CMainFrame@@UAEXPAVCString@@@Z 0041b800 f   MainFrm.obj
 0001:0001a890       ?OnViewFft@CMainFrame@@IAEXXZ 0041b890 f   MainFrm.obj
 0001:0001a8b0       ?OnUpdateViewFft@CMainFrame@@IAEXPAVCCmdUI@@@Z 0041b8b0 f   MainFrm.obj
 0001:0001a9a0       ??0CModifyData@@QAE@PAVCWnd@@_N@Z 0041b9a0 f   ModifyData.obj
 0001:0001aa60       ??_ECModifyData@@UAEPAXI@Z 0041ba60 f i ModifyData.obj
 0001:0001aa60       ??_GCModifyData@@UAEPAXI@Z 0041ba60 f i ModifyData.obj
 0001:0001aaa0       ?DoDataExchange@CModifyData@@MAEXPAVCDataExchange@@@Z 0041baa0 f   ModifyData.obj
 0001:0001aaf0       ?_GetBaseMessageMap@CModifyData@@KGPBUAFX_MSGMAP@@XZ 0041baf0 f   ModifyData.obj
 0001:0001ab10       ?GetMessageMap@CModifyData@@MBEPBUAFX_MSGMAP@@XZ 0041bb10 f   ModifyData.obj
 0001:0001ab30       ?OnInitDialog@CModifyData@@MAEHXZ 0041bb30 f   ModifyData.obj
 0001:0001ae10       ?OnFileCombine@CModifyData@@IAEXXZ 0041be10 f   ModifyData.obj
 0001:0001ae60       ?OnApplyConstant@CModifyData@@IAEXXZ 0041be60 f   ModifyData.obj
 0001:0001aeb0       ?EnableFileProps@CModifyData@@UAEX_N@Z 0041beb0 f   ModifyData.obj
 0001:0001af20       ?EnableConstProps@CModifyData@@UAEX_N@Z 0041bf20 f   ModifyData.obj
 0001:0001af70       ?OnFileBrowse@CModifyData@@IAEXXZ 0041bf70 f   ModifyData.obj
 0001:0001b240       ?OnOK@CModifyData@@MAEXXZ  0041c240 f   ModifyData.obj
 0001:0001b3d0       ?OnDestroy@CModifyData@@IAEXXZ 0041c3d0 f   ModifyData.obj
 0001:0001b3f0       ?UpdateImages@CModifyData@@UAEXXZ 0041c3f0 f   ModifyData.obj
 0001:0001b610       ?OnApplyOperator@CModifyData@@IAEXXZ 0041c610 f   ModifyData.obj
 0001:0001b690       ?OnFileOperator@CModifyData@@IAEXXZ 0041c690 f   ModifyData.obj
 0001:0001b710       ??0COverlayProps@@QAE@PAVCWnd@@PAVCGSX2@@@Z 0041c710 f   OverlayProps.obj
 0001:0001b7d0       ??_GCOverlayProps@@UAEPAXI@Z 0041c7d0 f i OverlayProps.obj
 0001:0001b7d0       ??_ECOverlayProps@@UAEPAXI@Z 0041c7d0 f i OverlayProps.obj
 0001:0001b810       ?DoDataExchange@COverlayProps@@MAEXPAVCDataExchange@@@Z 0041c810 f   OverlayProps.obj
 0001:0001b850       ?_GetBaseMessageMap@COverlayProps@@KGPBUAFX_MSGMAP@@XZ 0041c850 f   OverlayProps.obj
 0001:0001b870       ?GetMessageMap@COverlayProps@@MBEPBUAFX_MSGMAP@@XZ 0041c870 f   OverlayProps.obj
 0001:0001b890       ?OnInitDialog@COverlayProps@@MAEHXZ 0041c890 f   OverlayProps.obj
 0001:0001b8e0       ?LoadSelectedProperties@COverlayProps@@UAEXXZ 0041c8e0 f   OverlayProps.obj
 0001:0001baf0       ?EnableSymbolProps@COverlayProps@@UAEX_N@Z 0041caf0 f   OverlayProps.obj
 0001:0001bba0       ?EnableLineProps@COverlayProps@@UAEX_N@Z 0041cba0 f   OverlayProps.obj
 0001:0001bc20       ?OnLines@COverlayProps@@IAEXXZ 0041cc20 f   OverlayProps.obj
 0001:0001bcd0       ?OnSymbols@COverlayProps@@IAEXXZ 0041ccd0 f   OverlayProps.obj
 0001:0001bda0       ?OnSelchangeOverlayNumber@COverlayProps@@IAEXXZ 0041cda0 f   OverlayProps.obj
 0001:0001bdf0       ?OnSelchangeLinesColor@COverlayProps@@IAEXXZ 0041cdf0 f   OverlayProps.obj
 0001:0001be60       ?OnSelchangeLinesWidth@COverlayProps@@IAEXXZ 0041ce60 f   OverlayProps.obj
 0001:0001bed0       ?OnSelchangeSymbolsColor@COverlayProps@@IAEXXZ 0041ced0 f   OverlayProps.obj
 0001:0001bf40       ?OnSelchangeSymbolsType@COverlayProps@@IAEXXZ 0041cf40 f   OverlayProps.obj
 0001:0001bfb0       ?OnHScroll@COverlayProps@@IAEXIIPAVCScrollBar@@@Z 0041cfb0 f   OverlayProps.obj
 0001:0001c1e0       ?CreateObject@CPropGeneralPage@@SGPAVCObject@@XZ 0041d1e0 f   PropGeneralPage.obj
 0001:0001c260       ?_GetBaseClass@CPropGeneralPage@@KGPAUCRuntimeClass@@XZ 0041d260 f   PropGeneralPage.obj
 0001:0001c280       ?GetRuntimeClass@CPropGeneralPage@@UBEPAUCRuntimeClass@@XZ 0041d280 f   PropGeneralPage.obj
 0001:0001c2a0       ??0CPropGeneralPage@@QAE@XZ 0041d2a0 f   PropGeneralPage.obj
 0001:0001c3a0       ??_GCPropGeneralPage@@UAEPAXI@Z 0041d3a0 f i PropGeneralPage.obj
 0001:0001c3a0       ??_ECPropGeneralPage@@UAEPAXI@Z 0041d3a0 f i PropGeneralPage.obj
 0001:0001c3e0       ??1CPropGeneralPage@@UAE@XZ 0041d3e0 f   PropGeneralPage.obj
 0001:0001c4d0       ?DoDataExchange@CPropGeneralPage@@MAEXPAVCDataExchange@@@Z 0041d4d0 f   PropGeneralPage.obj
 0001:0001c5a0       ?_GetBaseMessageMap@CPropGeneralPage@@KGPBUAFX_MSGMAP@@XZ 0041d5a0 f   PropGeneralPage.obj
 0001:0001c5c0       ?GetMessageMap@CPropGeneralPage@@MBEPBUAFX_MSGMAP@@XZ 0041d5c0 f   PropGeneralPage.obj
 0001:0001c5e0       ?UpdateFromInst@CPropGeneralPage@@UAEXXZ 0041d5e0 f   PropGeneralPage.obj
 0001:0001c980       ?OnInitDialog@CPropGeneralPage@@MAEHXZ 0041d980 f   PropGeneralPage.obj
 0001:0001cbe0       ?OnApply@CPropGeneralPage@@UAEHXZ 0041dbe0 f   PropGeneralPage.obj
 0001:0001d010       ?OnChangePresetTime@CPropGeneralPage@@IAEXXZ 0041e010 f   PropGeneralPage.obj
 0001:0001d030       ?OnChangeSpectrumPreset@CPropGeneralPage@@IAEXXZ 0041e030 f   PropGeneralPage.obj
 0001:0001d050       ?OnRps@CPropGeneralPage@@IAEXXZ 0041e050 f   PropGeneralPage.obj
 0001:0001d070       ?OnChangeProtocol@CPropGeneralPage@@IAEXXZ 0041e070 f   PropGeneralPage.obj
 0001:0001d090       ?OnNegativepolarity@CPropGeneralPage@@IAEXXZ 0041e090 f   PropGeneralPage.obj
 0001:0001d0b0       ?OnPositivepolarity@CPropGeneralPage@@IAEXXZ 0041e0b0 f   PropGeneralPage.obj
 0001:0001d0d0       ?OnSelchangeProtocol@CPropGeneralPage@@IAEXXZ 0041e0d0 f   PropGeneralPage.obj
 0001:0001d0f0       ?OnFileCombine@CPropGeneralPage@@IAEXXZ 0041e0f0 f   PropGeneralPage.obj
 0001:0001d150       ?OnApplyConstant@CPropGeneralPage@@IAEXXZ 0041e150 f   PropGeneralPage.obj
 0001:0001d1b0       ?EnableFileProps@CPropGeneralPage@@UAEX_N@Z 0041e1b0 f   PropGeneralPage.obj
 0001:0001d230       ?EnableConstProps@CPropGeneralPage@@UAEX_N@Z 0041e230 f   PropGeneralPage.obj
 0001:0001d290       ?OnFileBrowse@CPropGeneralPage@@IAEXXZ 0041e290 f   PropGeneralPage.obj
 0001:0001d570       ?UpdateImages@CPropGeneralPage@@UAEXXZ 0041e570 f   PropGeneralPage.obj
 0001:0001d7a0       ?OnApplyOperator@CPropGeneralPage@@IAEXXZ 0041e7a0 f   PropGeneralPage.obj
 0001:0001d830       ?OnFileOperator@CPropGeneralPage@@IAEXXZ 0041e830 f   PropGeneralPage.obj
 0001:0001d8c0       ?OnUpdateConstValue@CPropGeneralPage@@IAEXXZ 0041e8c0 f   PropGeneralPage.obj
 0001:0001d8e0       ?OnMaxNumber@CPropGeneralPage@@IAEXXZ 0041e8e0 f   PropGeneralPage.obj
 0001:0001d950       ?OnMaxTime@CPropGeneralPage@@IAEXXZ 0041e950 f   PropGeneralPage.obj
 0001:0001d9c0       ?CreateObject@CPropProtocol1Page@@SGPAVCObject@@XZ 0041e9c0 f   PropProtocol1Page.obj
 0001:0001da40       ?_GetBaseClass@CPropProtocol1Page@@KGPAUCRuntimeClass@@XZ 0041ea40 f   PropProtocol1Page.obj
 0001:0001da60       ?GetRuntimeClass@CPropProtocol1Page@@UBEPAUCRuntimeClass@@XZ 0041ea60 f   PropProtocol1Page.obj
 0001:0001da80       ??0CPropProtocol1Page@@QAE@XZ 0041ea80 f   PropProtocol1Page.obj
 0001:0001db60       ??_GCPropProtocol1Page@@UAEPAXI@Z 0041eb60 f i PropProtocol1Page.obj
 0001:0001db60       ??_ECPropProtocol1Page@@UAEPAXI@Z 0041eb60 f i PropProtocol1Page.obj
 0001:0001dba0       ??1CPropProtocol1Page@@UAE@XZ 0041eba0 f   PropProtocol1Page.obj
 0001:0001dc40       ?DoDataExchange@CPropProtocol1Page@@MAEXPAVCDataExchange@@@Z 0041ec40 f   PropProtocol1Page.obj
 0001:0001dce0       ?_GetBaseMessageMap@CPropProtocol1Page@@KGPBUAFX_MSGMAP@@XZ 0041ece0 f   PropProtocol1Page.obj
 0001:0001dd00       ?GetMessageMap@CPropProtocol1Page@@MBEPBUAFX_MSGMAP@@XZ 0041ed00 f   PropProtocol1Page.obj
 0001:0001dd20       ?UpdateFromInst@CPropProtocol1Page@@UAEXXZ 0041ed20 f   PropProtocol1Page.obj
 0001:0001e060       ?OnInitDialog@CPropProtocol1Page@@MAEHXZ 0041f060 f   PropProtocol1Page.obj
 0001:0001e160       ?OnAdvanced@CPropProtocol1Page@@IAEXXZ 0041f160 f   PropProtocol1Page.obj
 0001:0001e1d0       ?OnProtcolAdvanced@CPropProtocol1Page@@IAEXXZ 0041f1d0 f   PropProtocol1Page.obj
 0001:0001e250       ??1CProtocolAdvanced@@UAE@XZ 0041f250 f i PropProtocol1Page.obj
 0001:0001e2b0       ?OnCompression@CPropProtocol1Page@@IAEXXZ 0041f2b0 f   PropProtocol1Page.obj
 0001:0001e2d0       ?OnAutonoise@CPropProtocol1Page@@IAEXXZ 0041f2d0 f   PropProtocol1Page.obj
 0001:0001e340       ?OnOK@CPropProtocol1Page@@UAEXXZ 0041f340 f   PropProtocol1Page.obj
 0001:0001e650       ?OnCalBrowse@CPropProtocol1Page@@IAEXXZ 0041f650 f   PropProtocol1Page.obj
 0001:0001e8e0       ?OnChangeCalPath@CPropProtocol1Page@@IAEXXZ 0041f8e0 f   PropProtocol1Page.obj
 0001:0001e9a0       ?OnApply@CPropProtocol1Page@@UAEHXZ 0041f9a0 f   PropProtocol1Page.obj
 0001:0001e9d0       ?OnUpdateRecordlength@CPropProtocol1Page@@IAEXXZ 0041f9d0 f   PropProtocol1Page.obj
 0001:0001e9f0       ?OnUpdateTriggerdelay@CPropProtocol1Page@@IAEXXZ 0041f9f0 f   PropProtocol1Page.obj
 0001:0001ea10       ?OnUpdateOffset@CPropProtocol1Page@@IAEXXZ 0041fa10 f   PropProtocol1Page.obj
 0001:0001ea30       ?OnUpdateRecordpreset@CPropProtocol1Page@@IAEXXZ 0041fa30 f   PropProtocol1Page.obj
 0001:0001ea50       ?OnSelchangePeriod@CPropProtocol1Page@@IAEXXZ 0041fa50 f   PropProtocol1Page.obj
 0001:0001ea70       ?CreateObject@CPropProtocol2Page@@SGPAVCObject@@XZ 0041fa70 f   PropProtocol2Page.obj
 0001:0001eaf0       ?_GetBaseClass@CPropProtocol2Page@@KGPAUCRuntimeClass@@XZ 0041faf0 f   PropProtocol2Page.obj
 0001:0001eb10       ?GetRuntimeClass@CPropProtocol2Page@@UBEPAUCRuntimeClass@@XZ 0041fb10 f   PropProtocol2Page.obj
 0001:0001eb30       ??0CPropProtocol2Page@@QAE@XZ 0041fb30 f   PropProtocol2Page.obj
 0001:0001ec10       ??_ECPropProtocol2Page@@UAEPAXI@Z 0041fc10 f i PropProtocol2Page.obj
 0001:0001ec10       ??_GCPropProtocol2Page@@UAEPAXI@Z 0041fc10 f i PropProtocol2Page.obj
 0001:0001ec50       ??1CPropProtocol2Page@@UAE@XZ 0041fc50 f   PropProtocol2Page.obj
 0001:0001ecf0       ?DoDataExchange@CPropProtocol2Page@@MAEXPAVCDataExchange@@@Z 0041fcf0 f   PropProtocol2Page.obj
 0001:0001ed90       ?_GetBaseMessageMap@CPropProtocol2Page@@KGPBUAFX_MSGMAP@@XZ 0041fd90 f   PropProtocol2Page.obj
 0001:0001edb0       ?GetMessageMap@CPropProtocol2Page@@MBEPBUAFX_MSGMAP@@XZ 0041fdb0 f   PropProtocol2Page.obj
 0001:0001edd0       ?UpdateFromInst@CPropProtocol2Page@@UAEXXZ 0041fdd0 f   PropProtocol2Page.obj
 0001:0001f110       ?OnInitDialog@CPropProtocol2Page@@MAEHXZ 00420110 f   PropProtocol2Page.obj
 0001:0001f210       ?OnAdvanced@CPropProtocol2Page@@IAEXXZ 00420210 f   PropProtocol2Page.obj
 0001:0001f280       ?OnProtcolAdvanced@CPropProtocol2Page@@IAEXXZ 00420280 f   PropProtocol2Page.obj
 0001:0001f300       ?OnCompression@CPropProtocol2Page@@IAEXXZ 00420300 f   PropProtocol2Page.obj
 0001:0001f320       ?OnAutonoise@CPropProtocol2Page@@IAEXXZ 00420320 f   PropProtocol2Page.obj
 0001:0001f390       ?OnOK@CPropProtocol2Page@@UAEXXZ 00420390 f   PropProtocol2Page.obj
 0001:0001f6a0       ?OnCalBrowse@CPropProtocol2Page@@IAEXXZ 004206a0 f   PropProtocol2Page.obj
 0001:0001f930       ?OnChangeCalPath@CPropProtocol2Page@@IAEXXZ 00420930 f   PropProtocol2Page.obj
 0001:0001f9f0       ?OnApply@CPropProtocol2Page@@UAEHXZ 004209f0 f   PropProtocol2Page.obj
 0001:0001fa20       ?OnUpdateRecordlength@CPropProtocol2Page@@IAEXXZ 00420a20 f   PropProtocol2Page.obj
 0001:0001fa40       ?OnUpdateTriggerdelay@CPropProtocol2Page@@IAEXXZ 00420a40 f   PropProtocol2Page.obj
 0001:0001fa60       ?OnUpdateOffset@CPropProtocol2Page@@IAEXXZ 00420a60 f   PropProtocol2Page.obj
 0001:0001fa80       ?OnUpdateRecordpreset@CPropProtocol2Page@@IAEXXZ 00420a80 f   PropProtocol2Page.obj
 0001:0001faa0       ?OnSelchangePeriod@CPropProtocol2Page@@IAEXXZ 00420aa0 f   PropProtocol2Page.obj
 0001:0001fac0       ?CreateObject@CPropProtocol3Page@@SGPAVCObject@@XZ 00420ac0 f   PropProtocol3Page.obj
 0001:0001fb40       ?_GetBaseClass@CPropProtocol3Page@@KGPAUCRuntimeClass@@XZ 00420b40 f   PropProtocol3Page.obj
 0001:0001fb60       ?GetRuntimeClass@CPropProtocol3Page@@UBEPAUCRuntimeClass@@XZ 00420b60 f   PropProtocol3Page.obj
 0001:0001fb80       ??0CPropProtocol3Page@@QAE@XZ 00420b80 f   PropProtocol3Page.obj
 0001:0001fc60       ??_ECPropProtocol3Page@@UAEPAXI@Z 00420c60 f i PropProtocol3Page.obj
 0001:0001fc60       ??_GCPropProtocol3Page@@UAEPAXI@Z 00420c60 f i PropProtocol3Page.obj
 0001:0001fca0       ??1CPropProtocol3Page@@UAE@XZ 00420ca0 f   PropProtocol3Page.obj
 0001:0001fd40       ?DoDataExchange@CPropProtocol3Page@@MAEXPAVCDataExchange@@@Z 00420d40 f   PropProtocol3Page.obj
 0001:0001fde0       ?_GetBaseMessageMap@CPropProtocol3Page@@KGPBUAFX_MSGMAP@@XZ 00420de0 f   PropProtocol3Page.obj
 0001:0001fe00       ?GetMessageMap@CPropProtocol3Page@@MBEPBUAFX_MSGMAP@@XZ 00420e00 f   PropProtocol3Page.obj
 0001:0001fe20       ?UpdateFromInst@CPropProtocol3Page@@UAEXXZ 00420e20 f   PropProtocol3Page.obj
 0001:000201c0       ?OnInitDialog@CPropProtocol3Page@@MAEHXZ 004211c0 f   PropProtocol3Page.obj
 0001:000202c0       ?OnAdvanced@CPropProtocol3Page@@IAEXXZ 004212c0 f   PropProtocol3Page.obj
 0001:00020330       ?OnProtcolAdvanced@CPropProtocol3Page@@IAEXXZ 00421330 f   PropProtocol3Page.obj
 0001:000203b0       ?OnCompression@CPropProtocol3Page@@IAEXXZ 004213b0 f   PropProtocol3Page.obj
 0001:000203d0       ?OnAutonoise@CPropProtocol3Page@@IAEXXZ 004213d0 f   PropProtocol3Page.obj
 0001:00020440       ?OnOK@CPropProtocol3Page@@UAEXXZ 00421440 f   PropProtocol3Page.obj
 0001:00020750       ?OnCalBrowse@CPropProtocol3Page@@IAEXXZ 00421750 f   PropProtocol3Page.obj
 0001:000209e0       ?OnChangeCalPath@CPropProtocol3Page@@IAEXXZ 004219e0 f   PropProtocol3Page.obj
 0001:00020aa0       ?OnUpdateRecordlength@CPropProtocol3Page@@IAEXXZ 00421aa0 f   PropProtocol3Page.obj
 0001:00020ac0       ?OnUpdateTriggerdelay@CPropProtocol3Page@@IAEXXZ 00421ac0 f   PropProtocol3Page.obj
 0001:00020ae0       ?OnUpdateOffset@CPropProtocol3Page@@IAEXXZ 00421ae0 f   PropProtocol3Page.obj
 0001:00020b00       ?OnUpdateRecordpreset@CPropProtocol3Page@@IAEXXZ 00421b00 f   PropProtocol3Page.obj
 0001:00020b20       ?OnSelchangePeriod@CPropProtocol3Page@@IAEXXZ 00421b20 f   PropProtocol3Page.obj
 0001:00020b40       ?CreateObject@CPropProtocol4Page@@SGPAVCObject@@XZ 00421b40 f   PropProtocol4Page.obj
 0001:00020bc0       ?_GetBaseClass@CPropProtocol4Page@@KGPAUCRuntimeClass@@XZ 00421bc0 f   PropProtocol4Page.obj
 0001:00020be0       ?GetRuntimeClass@CPropProtocol4Page@@UBEPAUCRuntimeClass@@XZ 00421be0 f   PropProtocol4Page.obj
 0001:00020c00       ??0CPropProtocol4Page@@QAE@XZ 00421c00 f   PropProtocol4Page.obj
 0001:00020ce0       ??_ECPropProtocol4Page@@UAEPAXI@Z 00421ce0 f i PropProtocol4Page.obj
 0001:00020ce0       ??_GCPropProtocol4Page@@UAEPAXI@Z 00421ce0 f i PropProtocol4Page.obj
 0001:00020d20       ??1CPropProtocol4Page@@UAE@XZ 00421d20 f   PropProtocol4Page.obj
 0001:00020dc0       ?DoDataExchange@CPropProtocol4Page@@MAEXPAVCDataExchange@@@Z 00421dc0 f   PropProtocol4Page.obj
 0001:00020e60       ?_GetBaseMessageMap@CPropProtocol4Page@@KGPBUAFX_MSGMAP@@XZ 00421e60 f   PropProtocol4Page.obj
 0001:00020e80       ?GetMessageMap@CPropProtocol4Page@@MBEPBUAFX_MSGMAP@@XZ 00421e80 f   PropProtocol4Page.obj
 0001:00020ea0       ?UpdateFromInst@CPropProtocol4Page@@UAEXXZ 00421ea0 f   PropProtocol4Page.obj
 0001:000211e0       ?OnInitDialog@CPropProtocol4Page@@MAEHXZ 004221e0 f   PropProtocol4Page.obj
 0001:000212e0       ?OnAdvanced@CPropProtocol4Page@@IAEXXZ 004222e0 f   PropProtocol4Page.obj
 0001:00021350       ?OnProtcolAdvanced@CPropProtocol4Page@@IAEXXZ 00422350 f   PropProtocol4Page.obj
 0001:000213d0       ?OnCompression@CPropProtocol4Page@@IAEXXZ 004223d0 f   PropProtocol4Page.obj
 0001:000213f0       ?OnAutonoise@CPropProtocol4Page@@IAEXXZ 004223f0 f   PropProtocol4Page.obj
 0001:00021460       ?OnOK@CPropProtocol4Page@@UAEXXZ 00422460 f   PropProtocol4Page.obj
 0001:00021770       ?OnCalBrowse@CPropProtocol4Page@@IAEXXZ 00422770 f   PropProtocol4Page.obj
 0001:00021a00       ?OnChangeCalPath@CPropProtocol4Page@@IAEXXZ 00422a00 f   PropProtocol4Page.obj
 0001:00021ac0       ?OnUpdateRecordlength@CPropProtocol4Page@@IAEXXZ 00422ac0 f   PropProtocol4Page.obj
 0001:00021ae0       ?OnUpdateTriggerdelay@CPropProtocol4Page@@IAEXXZ 00422ae0 f   PropProtocol4Page.obj
 0001:00021b00       ?OnUpdateOffset@CPropProtocol4Page@@IAEXXZ 00422b00 f   PropProtocol4Page.obj
 0001:00021b20       ?OnUpdateRecordpreset@CPropProtocol4Page@@IAEXXZ 00422b20 f   PropProtocol4Page.obj
 0001:00021b40       ?OnSelchangePeriod@CPropProtocol4Page@@IAEXXZ 00422b40 f   PropProtocol4Page.obj
 0001:00021b60       ?CreateObject@CPropProtocol5Page@@SGPAVCObject@@XZ 00422b60 f   PropProtocol5Page.obj
 0001:00021be0       ?_GetBaseClass@CPropProtocol5Page@@KGPAUCRuntimeClass@@XZ 00422be0 f   PropProtocol5Page.obj
 0001:00021c00       ?GetRuntimeClass@CPropProtocol5Page@@UBEPAUCRuntimeClass@@XZ 00422c00 f   PropProtocol5Page.obj
 0001:00021c20       ??0CPropProtocol5Page@@QAE@XZ 00422c20 f   PropProtocol5Page.obj
 0001:00021d00       ??_ECPropProtocol5Page@@UAEPAXI@Z 00422d00 f i PropProtocol5Page.obj
 0001:00021d00       ??_GCPropProtocol5Page@@UAEPAXI@Z 00422d00 f i PropProtocol5Page.obj
 0001:00021d40       ??1CPropProtocol5Page@@UAE@XZ 00422d40 f   PropProtocol5Page.obj
 0001:00021de0       ?DoDataExchange@CPropProtocol5Page@@MAEXPAVCDataExchange@@@Z 00422de0 f   PropProtocol5Page.obj
 0001:00021e80       ?_GetBaseMessageMap@CPropProtocol5Page@@KGPBUAFX_MSGMAP@@XZ 00422e80 f   PropProtocol5Page.obj
 0001:00021ea0       ?GetMessageMap@CPropProtocol5Page@@MBEPBUAFX_MSGMAP@@XZ 00422ea0 f   PropProtocol5Page.obj
 0001:00021ec0       ?UpdateFromInst@CPropProtocol5Page@@UAEXXZ 00422ec0 f   PropProtocol5Page.obj
 0001:00022200       ?OnInitDialog@CPropProtocol5Page@@MAEHXZ 00423200 f   PropProtocol5Page.obj
 0001:00022300       ?OnAdvanced@CPropProtocol5Page@@IAEXXZ 00423300 f   PropProtocol5Page.obj
 0001:00022370       ?OnProtcolAdvanced@CPropProtocol5Page@@IAEXXZ 00423370 f   PropProtocol5Page.obj
 0001:000223f0       ?OnCompression@CPropProtocol5Page@@IAEXXZ 004233f0 f   PropProtocol5Page.obj
 0001:00022410       ?OnAutonoise@CPropProtocol5Page@@IAEXXZ 00423410 f   PropProtocol5Page.obj
 0001:00022480       ?OnOK@CPropProtocol5Page@@UAEXXZ 00423480 f   PropProtocol5Page.obj
 0001:00022790       ?OnCalBrowse@CPropProtocol5Page@@IAEXXZ 00423790 f   PropProtocol5Page.obj
 0001:00022a20       ?OnChangeCalPath@CPropProtocol5Page@@IAEXXZ 00423a20 f   PropProtocol5Page.obj
 0001:00022ae0       ?OnUpdateRecordlength@CPropProtocol5Page@@IAEXXZ 00423ae0 f   PropProtocol5Page.obj
 0001:00022b00       ?OnUpdateTriggerdelay@CPropProtocol5Page@@IAEXXZ 00423b00 f   PropProtocol5Page.obj
 0001:00022b20       ?OnUpdateOffset@CPropProtocol5Page@@IAEXXZ 00423b20 f   PropProtocol5Page.obj
 0001:00022b40       ?OnUpdateRecordpreset@CPropProtocol5Page@@IAEXXZ 00423b40 f   PropProtocol5Page.obj
 0001:00022b60       ?OnSelchangePeriod@CPropProtocol5Page@@IAEXXZ 00423b60 f   PropProtocol5Page.obj
 0001:00022b80       ?CreateObject@CPropProtocol6Page@@SGPAVCObject@@XZ 00423b80 f   PropProtocol6Page.obj
 0001:00022c00       ?_GetBaseClass@CPropProtocol6Page@@KGPAUCRuntimeClass@@XZ 00423c00 f   PropProtocol6Page.obj
 0001:00022c20       ?GetRuntimeClass@CPropProtocol6Page@@UBEPAUCRuntimeClass@@XZ 00423c20 f   PropProtocol6Page.obj
 0001:00022c40       ??0CPropProtocol6Page@@QAE@XZ 00423c40 f   PropProtocol6Page.obj
 0001:00022d20       ??_ECPropProtocol6Page@@UAEPAXI@Z 00423d20 f i PropProtocol6Page.obj
 0001:00022d20       ??_GCPropProtocol6Page@@UAEPAXI@Z 00423d20 f i PropProtocol6Page.obj
 0001:00022d60       ??1CPropProtocol6Page@@UAE@XZ 00423d60 f   PropProtocol6Page.obj
 0001:00022e00       ?DoDataExchange@CPropProtocol6Page@@MAEXPAVCDataExchange@@@Z 00423e00 f   PropProtocol6Page.obj
 0001:00022ea0       ?_GetBaseMessageMap@CPropProtocol6Page@@KGPBUAFX_MSGMAP@@XZ 00423ea0 f   PropProtocol6Page.obj
 0001:00022ec0       ?GetMessageMap@CPropProtocol6Page@@MBEPBUAFX_MSGMAP@@XZ 00423ec0 f   PropProtocol6Page.obj
 0001:00022ee0       ?UpdateFromInst@CPropProtocol6Page@@UAEXXZ 00423ee0 f   PropProtocol6Page.obj
 0001:00023220       ?OnInitDialog@CPropProtocol6Page@@MAEHXZ 00424220 f   PropProtocol6Page.obj
 0001:00023320       ?OnAdvanced@CPropProtocol6Page@@IAEXXZ 00424320 f   PropProtocol6Page.obj
 0001:00023390       ?OnProtcolAdvanced@CPropProtocol6Page@@IAEXXZ 00424390 f   PropProtocol6Page.obj
 0001:00023410       ?OnCompression@CPropProtocol6Page@@IAEXXZ 00424410 f   PropProtocol6Page.obj
 0001:00023430       ?OnAutonoise@CPropProtocol6Page@@IAEXXZ 00424430 f   PropProtocol6Page.obj
 0001:000234a0       ?OnOK@CPropProtocol6Page@@UAEXXZ 004244a0 f   PropProtocol6Page.obj
 0001:000237b0       ?OnCalBrowse@CPropProtocol6Page@@IAEXXZ 004247b0 f   PropProtocol6Page.obj
 0001:00023a40       ?OnChangeCalPath@CPropProtocol6Page@@IAEXXZ 00424a40 f   PropProtocol6Page.obj
 0001:00023b00       ?OnUpdateRecordlength@CPropProtocol6Page@@IAEXXZ 00424b00 f   PropProtocol6Page.obj
 0001:00023b20       ?OnUpdateTriggerdelay@CPropProtocol6Page@@IAEXXZ 00424b20 f   PropProtocol6Page.obj
 0001:00023b40       ?OnUpdateOffset@CPropProtocol6Page@@IAEXXZ 00424b40 f   PropProtocol6Page.obj
 0001:00023b60       ?OnUpdateRecordpreset@CPropProtocol6Page@@IAEXXZ 00424b60 f   PropProtocol6Page.obj
 0001:00023b80       ?OnSelchangePeriod@CPropProtocol6Page@@IAEXXZ 00424b80 f   PropProtocol6Page.obj
 0001:00023ba0       ?CreateObject@CPropProtocol7Page@@SGPAVCObject@@XZ 00424ba0 f   PropProtocol7Page.obj
 0001:00023c20       ?_GetBaseClass@CPropProtocol7Page@@KGPAUCRuntimeClass@@XZ 00424c20 f   PropProtocol7Page.obj
 0001:00023c40       ?GetRuntimeClass@CPropProtocol7Page@@UBEPAUCRuntimeClass@@XZ 00424c40 f   PropProtocol7Page.obj
 0001:00023c60       ??0CPropProtocol7Page@@QAE@XZ 00424c60 f   PropProtocol7Page.obj
 0001:00023d40       ??_GCPropProtocol7Page@@UAEPAXI@Z 00424d40 f i PropProtocol7Page.obj
 0001:00023d40       ??_ECPropProtocol7Page@@UAEPAXI@Z 00424d40 f i PropProtocol7Page.obj
 0001:00023d80       ??1CPropProtocol7Page@@UAE@XZ 00424d80 f   PropProtocol7Page.obj
 0001:00023e20       ?DoDataExchange@CPropProtocol7Page@@MAEXPAVCDataExchange@@@Z 00424e20 f   PropProtocol7Page.obj
 0001:00023ec0       ?_GetBaseMessageMap@CPropProtocol7Page@@KGPBUAFX_MSGMAP@@XZ 00424ec0 f   PropProtocol7Page.obj
 0001:00023ee0       ?GetMessageMap@CPropProtocol7Page@@MBEPBUAFX_MSGMAP@@XZ 00424ee0 f   PropProtocol7Page.obj
 0001:00023f00       ?UpdateFromInst@CPropProtocol7Page@@UAEXXZ 00424f00 f   PropProtocol7Page.obj
 0001:00024240       ?OnInitDialog@CPropProtocol7Page@@MAEHXZ 00425240 f   PropProtocol7Page.obj
 0001:00024340       ?OnAdvanced@CPropProtocol7Page@@IAEXXZ 00425340 f   PropProtocol7Page.obj
 0001:000243b0       ?OnProtcolAdvanced@CPropProtocol7Page@@IAEXXZ 004253b0 f   PropProtocol7Page.obj
 0001:00024430       ?OnCompression@CPropProtocol7Page@@IAEXXZ 00425430 f   PropProtocol7Page.obj
 0001:00024450       ?OnAutonoise@CPropProtocol7Page@@IAEXXZ 00425450 f   PropProtocol7Page.obj
 0001:000244c0       ?OnOK@CPropProtocol7Page@@UAEXXZ 004254c0 f   PropProtocol7Page.obj
 0001:000247d0       ?OnCalBrowse@CPropProtocol7Page@@IAEXXZ 004257d0 f   PropProtocol7Page.obj
 0001:00024a60       ?OnChangeCalPath@CPropProtocol7Page@@IAEXXZ 00425a60 f   PropProtocol7Page.obj
 0001:00024b20       ?OnUpdateRecordlength@CPropProtocol7Page@@IAEXXZ 00425b20 f   PropProtocol7Page.obj
 0001:00024b40       ?OnUpdateTriggerdelay@CPropProtocol7Page@@IAEXXZ 00425b40 f   PropProtocol7Page.obj
 0001:00024b60       ?OnUpdateOffset@CPropProtocol7Page@@IAEXXZ 00425b60 f   PropProtocol7Page.obj
 0001:00024b80       ?OnUpdateRecordpreset@CPropProtocol7Page@@IAEXXZ 00425b80 f   PropProtocol7Page.obj
 0001:00024ba0       ?OnSelchangePeriod@CPropProtocol7Page@@IAEXXZ 00425ba0 f   PropProtocol7Page.obj
 0001:00024bc0       ?CreateObject@CPropProtocol8Page@@SGPAVCObject@@XZ 00425bc0 f   PropProtocol8Page.obj
 0001:00024c40       ?_GetBaseClass@CPropProtocol8Page@@KGPAUCRuntimeClass@@XZ 00425c40 f   PropProtocol8Page.obj
 0001:00024c60       ?GetRuntimeClass@CPropProtocol8Page@@UBEPAUCRuntimeClass@@XZ 00425c60 f   PropProtocol8Page.obj
 0001:00024c80       ??0CPropProtocol8Page@@QAE@XZ 00425c80 f   PropProtocol8Page.obj
 0001:00024d60       ??_GCPropProtocol8Page@@UAEPAXI@Z 00425d60 f i PropProtocol8Page.obj
 0001:00024d60       ??_ECPropProtocol8Page@@UAEPAXI@Z 00425d60 f i PropProtocol8Page.obj
 0001:00024da0       ??1CPropProtocol8Page@@UAE@XZ 00425da0 f   PropProtocol8Page.obj
 0001:00024e40       ?DoDataExchange@CPropProtocol8Page@@MAEXPAVCDataExchange@@@Z 00425e40 f   PropProtocol8Page.obj
 0001:00024ee0       ?_GetBaseMessageMap@CPropProtocol8Page@@KGPBUAFX_MSGMAP@@XZ 00425ee0 f   PropProtocol8Page.obj
 0001:00024f00       ?GetMessageMap@CPropProtocol8Page@@MBEPBUAFX_MSGMAP@@XZ 00425f00 f   PropProtocol8Page.obj
 0001:00024f20       ?UpdateFromInst@CPropProtocol8Page@@UAEXXZ 00425f20 f   PropProtocol8Page.obj
 0001:00025260       ?OnInitDialog@CPropProtocol8Page@@MAEHXZ 00426260 f   PropProtocol8Page.obj
 0001:00025360       ?OnAdvanced@CPropProtocol8Page@@IAEXXZ 00426360 f   PropProtocol8Page.obj
 0001:000253d0       ?OnProtcolAdvanced@CPropProtocol8Page@@IAEXXZ 004263d0 f   PropProtocol8Page.obj
 0001:00025450       ?OnCompression@CPropProtocol8Page@@IAEXXZ 00426450 f   PropProtocol8Page.obj
 0001:00025470       ?OnAutonoise@CPropProtocol8Page@@IAEXXZ 00426470 f   PropProtocol8Page.obj
 0001:000254e0       ?OnOK@CPropProtocol8Page@@UAEXXZ 004264e0 f   PropProtocol8Page.obj
 0001:000257f0       ?OnCalBrowse@CPropProtocol8Page@@IAEXXZ 004267f0 f   PropProtocol8Page.obj
 0001:00025a80       ?OnChangeCalPath@CPropProtocol8Page@@IAEXXZ 00426a80 f   PropProtocol8Page.obj
 0001:00025b40       ?OnUpdateRecordlength@CPropProtocol8Page@@IAEXXZ 00426b40 f   PropProtocol8Page.obj
 0001:00025b60       ?OnUpdateTriggerdelay@CPropProtocol8Page@@IAEXXZ 00426b60 f   PropProtocol8Page.obj
 0001:00025b80       ?OnUpdateOffset@CPropProtocol8Page@@IAEXXZ 00426b80 f   PropProtocol8Page.obj
 0001:00025ba0       ?OnUpdateRecordpreset@CPropProtocol8Page@@IAEXXZ 00426ba0 f   PropProtocol8Page.obj
 0001:00025bc0       ?OnSelchangePeriod@CPropProtocol8Page@@IAEXXZ 00426bc0 f   PropProtocol8Page.obj
 0001:00025be0       ?_GetBaseClass@CPropSheet@@KGPAUCRuntimeClass@@XZ 00426be0 f   PropSheet.obj
 0001:00025c00       ?GetRuntimeClass@CPropSheet@@UBEPAUCRuntimeClass@@XZ 00426c00 f   PropSheet.obj
 0001:00025c20       ??0CPropSheet@@QAE@IPAVCWnd@@I@Z 00426c20 f   PropSheet.obj
 0001:00025dd0       ??_ECPropSheet@@UAEPAXI@Z  00426dd0 f i PropSheet.obj
 0001:00025dd0       ??_GCPropSheet@@UAEPAXI@Z  00426dd0 f i PropSheet.obj
 0001:00025e10       ??0CPropSheet@@QAE@PBDPAVCWnd@@I@Z 00426e10 f   PropSheet.obj
 0001:00025fc0       ??1CPropSheet@@UAE@XZ      00426fc0 f   PropSheet.obj
 0001:000260b0       ?_GetBaseMessageMap@CPropSheet@@KGPBUAFX_MSGMAP@@XZ 004270b0 f   PropSheet.obj
 0001:000260d0       ?GetMessageMap@CPropSheet@@MBEPBUAFX_MSGMAP@@XZ 004270d0 f   PropSheet.obj
 0001:000260f0       ?OnInitDialog@CPropSheet@@UAEHXZ 004270f0 f   PropSheet.obj
 0001:00026140       ??0CProtocolAdvanced@@QAE@PAVCWnd@@H@Z 00427140 f   ProtocolAdvanced.obj
 0001:000261d0       ??_ECProtocolAdvanced@@UAEPAXI@Z 004271d0 f i ProtocolAdvanced.obj
 0001:000261d0       ??_GCProtocolAdvanced@@UAEPAXI@Z 004271d0 f i ProtocolAdvanced.obj
 0001:00026210       ?DoDataExchange@CProtocolAdvanced@@MAEXPAVCDataExchange@@@Z 00427210 f   ProtocolAdvanced.obj
 0001:00026260       ?_GetBaseMessageMap@CProtocolAdvanced@@KGPBUAFX_MSGMAP@@XZ 00427260 f   ProtocolAdvanced.obj
 0001:00026280       ?GetMessageMap@CProtocolAdvanced@@MBEPBUAFX_MSGMAP@@XZ 00427280 f   ProtocolAdvanced.obj
 0001:000262a0       ?OnInitDialog@CProtocolAdvanced@@MAEHXZ 004272a0 f   ProtocolAdvanced.obj
 0001:00026400       ?OnOK@CProtocolAdvanced@@MAEXXZ 00427400 f   ProtocolAdvanced.obj
 0001:000264f0       ??0CQuadFit@@QAE@NNNNNN_N@Z 004274f0 f   QuadFit.obj
 0001:000265c0       ?SetX1@CQuadFit@@UAEXNN@Z  004275c0 f i QuadFit.obj
 0001:00026600       ?SetX2@CQuadFit@@UAEXNN@Z  00427600 f i QuadFit.obj
 0001:00026640       ?SetX3@CQuadFit@@UAEXNN@Z  00427640 f i QuadFit.obj
 0001:00026680       ?GetA@CQuadFit@@UAENXZ     00427680 f i QuadFit.obj
 0001:000266a0       ?GetB@CQuadFit@@UAENXZ     004276a0 f i QuadFit.obj
 0001:000266c0       ?GetC@CQuadFit@@UAENXZ     004276c0 f i QuadFit.obj
 0001:000266e0       ??_ECQuadFit@@UAEPAXI@Z    004276e0 f i QuadFit.obj
 0001:000266e0       ??_GCQuadFit@@UAEPAXI@Z    004276e0 f i QuadFit.obj
 0001:00026720       ??1CQuadFit@@UAE@XZ        00427720 f i QuadFit.obj
 0001:00026740       ?PerformFit@CQuadFit@@UAE_NXZ 00427740 f   QuadFit.obj
 0001:000269b0       ??0CRecalcTrendDlg@@QAE@PAVCWnd@@@Z 004279b0 f   RecalcTrendDlg.obj
 0001:00026a20       ??_ECRecalcTrendDlg@@UAEPAXI@Z 00427a20 f i RecalcTrendDlg.obj
 0001:00026a20       ??_GCRecalcTrendDlg@@UAEPAXI@Z 00427a20 f i RecalcTrendDlg.obj
 0001:00026a60       ??1CRecalcTrendDlg@@UAE@XZ 00427a60 f i RecalcTrendDlg.obj
 0001:00026ac0       ?DoDataExchange@CRecalcTrendDlg@@MAEXPAVCDataExchange@@@Z 00427ac0 f   RecalcTrendDlg.obj
 0001:00026b00       ?_GetBaseMessageMap@CRecalcTrendDlg@@KGPBUAFX_MSGMAP@@XZ 00427b00 f   RecalcTrendDlg.obj
 0001:00026b20       ?GetMessageMap@CRecalcTrendDlg@@MBEPBUAFX_MSGMAP@@XZ 00427b20 f   RecalcTrendDlg.obj
 0001:00026b40       ?_GetBaseClass@CSaveAs@@KGPAUCRuntimeClass@@XZ 00427b40 f   SaveAs.obj
 0001:00026b60       ?GetRuntimeClass@CSaveAs@@UBEPAUCRuntimeClass@@XZ 00427b60 f   SaveAs.obj
 0001:00026b80       ??0CSaveAs@@QAE@HPBD0K0PAVCWnd@@PAVCString@@@Z 00427b80 f   SaveAs.obj
 0001:00026c20       ??_GCSaveAs@@UAEPAXI@Z     00427c20 f i SaveAs.obj
 0001:00026c20       ??_ECSaveAs@@UAEPAXI@Z     00427c20 f i SaveAs.obj
 0001:00026c60       ?_GetBaseMessageMap@CSaveAs@@KGPBUAFX_MSGMAP@@XZ 00427c60 f   SaveAs.obj
 0001:00026c80       ?GetMessageMap@CSaveAs@@MBEPBUAFX_MSGMAP@@XZ 00427c80 f   SaveAs.obj
 0001:00026ca0       ?OnInitDialog@CSaveAs@@MAEHXZ 00427ca0 f   SaveAs.obj
 0001:00026db0       ?OnInitDone@CSaveAs@@UAEXXZ 00427db0 f   SaveAs.obj
 0001:00026ef0       ?OnSaveasBrowse@CSaveAs@@IAEXXZ 00427ef0 f   SaveAs.obj
 0001:000271f0       ??0CSelectedProperties@@QAE@PAVCWnd@@@Z 004281f0 f   SelectedProperties.obj
 0001:00027230       ??_ECSelectedProperties@@UAEPAXI@Z 00428230 f i SelectedProperties.obj
 0001:00027230       ??_GCSelectedProperties@@UAEPAXI@Z 00428230 f i SelectedProperties.obj
 0001:00027270       ?DoDataExchange@CSelectedProperties@@MAEXPAVCDataExchange@@@Z 00428270 f   SelectedProperties.obj
 0001:000272a0       ?_GetBaseMessageMap@CSelectedProperties@@KGPBUAFX_MSGMAP@@XZ 004282a0 f   SelectedProperties.obj
 0001:000272c0       ?GetMessageMap@CSelectedProperties@@MBEPBUAFX_MSGMAP@@XZ 004282c0 f   SelectedProperties.obj
 0001:000272e0       ?OnInitDialog@CSelectedProperties@@MAEHXZ 004282e0 f   SelectedProperties.obj
 0001:000277f0       ?OnCopy@CSelectedProperties@@IAEXXZ 004287f0 f   SelectedProperties.obj
 0001:00027d30       ?CreateObject@CSettings@@SGPAVCObject@@XZ 00428d30 f   Settings.obj
 0001:00027db0       ?_GetBaseClass@CSettings@@KGPAUCRuntimeClass@@XZ 00428db0 f   Settings.obj
 0001:00027dd0       ?GetRuntimeClass@CSettings@@UBEPAUCRuntimeClass@@XZ 00428dd0 f   Settings.obj
 0001:00027e30       ??5@YGAAVCArchive@@AAV0@AAPAVCSettings@@@Z 00428e30 f   Settings.obj
 0001:00027e60       ?CreateObject@CProtocolSettings@@SGPAVCObject@@XZ 00428e60 f   Settings.obj
 0001:00027ee0       ??0CProtocolSettings@@QAE@XZ 00428ee0 f i Settings.obj
 0001:00027f50       ??_GCProtocolSettings@@UAEPAXI@Z 00428f50 f i Settings.obj
 0001:00027f50       ??_ECProtocolSettings@@UAEPAXI@Z 00428f50 f i Settings.obj
 0001:00027f90       ??1CProtocolSettings@@UAE@XZ 00428f90 f i Settings.obj
 0001:00028000       ?_GetBaseClass@CProtocolSettings@@KGPAUCRuntimeClass@@XZ 00429000 f   Settings.obj
 0001:00028020       ?GetRuntimeClass@CProtocolSettings@@UBEPAUCRuntimeClass@@XZ 00429020 f   Settings.obj
 0001:00028080       ??5@YGAAVCArchive@@AAV0@AAPAVCProtocolSettings@@@Z 00429080 f   Settings.obj
 0001:000280b0       ?Serialize@CProtocolSettings@@UAEXAAVCArchive@@@Z 004290b0 f   Settings.obj
 0001:00028410       ??0CSettings@@QAE@XZ       00429410 f   Settings.obj
 0001:00028490       ??_GCSettings@@UAEPAXI@Z   00429490 f i Settings.obj
 0001:00028490       ??_ECSettings@@UAEPAXI@Z   00429490 f i Settings.obj
 0001:000284d0       ??1CSettings@@UAE@XZ       004294d0 f   Settings.obj
 0001:00028540       ?_GetBaseMessageMap@CSettings@@KGPBUAFX_MSGMAP@@XZ 00429540 f   Settings.obj
 0001:00028560       ?GetMessageMap@CSettings@@MBEPBUAFX_MSGMAP@@XZ 00429560 f   Settings.obj
 0001:00028580       ?Serialize@CSettings@@UAEXAAVCArchive@@@Z 00429580 f   Settings.obj
 0001:000286a0       ?Initialize@CSettings@@UAEXXZ 004296a0 f   Settings.obj
 0001:000288e0       ?LoadSettingsFromInstrument@CSettings@@UAEXXZ 004298e0 f   Settings.obj
 0001:000296d0       ??0CShowFFT@@QAE@PAVCWnd@@PAVCGSX2@@@Z 0042a6d0 f   ShowFFT.obj
 0001:00029790       ?GetGraph@CShowFFT@@UAEPAVCGSX2@@XZ 0042a790 f i ShowFFT.obj
 0001:000297b0       ??_ECShowFFT@@UAEPAXI@Z    0042a7b0 f i ShowFFT.obj
 0001:000297b0       ??_GCShowFFT@@UAEPAXI@Z    0042a7b0 f i ShowFFT.obj
 0001:000297f0       ??1CShowFFT@@UAE@XZ        0042a7f0 f   ShowFFT.obj
 0001:00029890       ?DoDataExchange@CShowFFT@@MAEXPAVCDataExchange@@@Z 0042a890 f   ShowFFT.obj
 0001:000298d0       ?_GetBaseMessageMap@CShowFFT@@KGPBUAFX_MSGMAP@@XZ 0042a8d0 f   ShowFFT.obj
 0001:000298f0       ?GetMessageMap@CShowFFT@@MBEPBUAFX_MSGMAP@@XZ 0042a8f0 f   ShowFFT.obj
 0001:00029910       ?_GetBaseEventSinkMap@CShowFFT@@KGPBUAFX_EVENTSINKMAP@@XZ 0042a910 f   ShowFFT.obj
 0001:00029930       ?GetEventSinkMap@CShowFFT@@MBEPBUAFX_EVENTSINKMAP@@XZ 0042a930 f   ShowFFT.obj
 0001:00029950       ?OnInitDialog@CShowFFT@@MAEHXZ 0042a950 f   ShowFFT.obj
 0001:00029b20       ?OnSize@CShowFFT@@IAEXIHH@Z 0042ab20 f   ShowFFT.obj
 0001:00029bb0       ?Transfer2DtoFFT@CShowFFT@@UAEXXZ 0042abb0 f   ShowFFT.obj
 0001:0002a8a0       ?GetMagnitude@TComplex@@QBENXZ 0042b8a0 f i ShowFFT.obj
 0001:0002a8c0       ??ATBaseComplexArray@@QAEAAVTComplex@@H@Z 0042b8c0 f i ShowFFT.obj
 0001:0002a8f0       ?GetNumPoints@TBaseComplexArray@@QBEKXZ 0042b8f0 f i ShowFFT.obj
 0001:0002a910       ?PostNcDestroy@CShowFFT@@MAEXXZ 0042b910 f   ShowFFT.obj
 0001:0002a970       ?OnAutoscale@CShowFFT@@IAEXXZ 0042b970 f   ShowFFT.obj
 0001:0002a9a0       ?OnGSXMouseMove@CShowFFT@@IAEXFFJJ@Z 0042b9a0 f   ShowFFT.obj
 0001:0002ab30       ?OnLog@CShowFFT@@IAEXXZ    0042bb30 f   ShowFFT.obj
 0001:0002ab80       ?OnXIn@CShowFFT@@IAEXXZ    0042bb80 f   ShowFFT.obj
 0001:0002abb0       ?OnXOut@CShowFFT@@IAEXXZ   0042bbb0 f   ShowFFT.obj
 0001:0002abe0       ?OnYIn@CShowFFT@@IAEXXZ    0042bbe0 f   ShowFFT.obj
 0001:0002ac10       ?OnYOut@CShowFFT@@IAEXXZ   0042bc10 f   ShowFFT.obj
 0001:0002ac40       ?GetUpPwrOfTwo@CShowFFT@@UAEJJ@Z 0042bc40 f   ShowFFT.obj
 0001:0002ac80       ?MyLogBase2OfDWORD@@YAKK@Z 0042bc80 f i ShowFFT.obj
 0001:0002aca0       ?OnGSXMouseUp@CShowFFT@@IAEXFFJJ@Z 0042bca0 f   ShowFFT.obj
 0001:0002acd0       ?OnClose@CShowFFT@@IAEXXZ  0042bcd0 f   ShowFFT.obj
 0001:0002ad10       ?OnDestroy@CShowFFT@@IAEXXZ 0042bd10 f   ShowFFT.obj
 0001:0002ad30       ?OnCancel@CShowFFT@@MAEXXZ 0042bd30 f   ShowFFT.obj
 0001:0002ad70       ?Clear@CShowFFT@@UAEXXZ    0042bd70 f   ShowFFT.obj
 0001:0002add0       ?OnOK@CShowFFT@@MAEXXZ     0042bdd0 f   ShowFFT.obj
 0001:0002adf0       ??0CSplashWnd@@IAE@XZ      0042bdf0 f   Splash.obj
 0001:0002ae50       ??_GCSplashWnd@@UAEPAXI@Z  0042be50 f i Splash.obj
 0001:0002ae50       ??_ECSplashWnd@@UAEPAXI@Z  0042be50 f i Splash.obj
 0001:0002ae90       ??1CSplashWnd@@UAE@XZ      0042be90 f   Splash.obj
 0001:0002af30       ?_GetBaseMessageMap@CSplashWnd@@KGPBUAFX_MSGMAP@@XZ 0042bf30 f   Splash.obj
 0001:0002af50       ?GetMessageMap@CSplashWnd@@MBEPBUAFX_MSGMAP@@XZ 0042bf50 f   Splash.obj
 0001:0002af70       ?EnableSplashScreen@CSplashWnd@@SAXH@Z 0042bf70 f   Splash.obj
 0001:0002af90       ?ShowSplashScreen@CSplashWnd@@SAXPAVCWnd@@@Z 0042bf90 f   Splash.obj
 0001:0002b080       ?PreTranslateAppMessage@CSplashWnd@@SAHPAUtagMSG@@@Z 0042c080 f   Splash.obj
 0001:0002b120       ?Create@CSplashWnd@@IAEHPAVCWnd@@@Z 0042c120 f   Splash.obj
 0001:0002b1b0       ?HideSplashScreen@CSplashWnd@@IAEXXZ 0042c1b0 f   Splash.obj
 0001:0002b1e0       ?PostNcDestroy@CSplashWnd@@UAEXXZ 0042c1e0 f   Splash.obj
 0001:0002b220       ?OnCreate@CSplashWnd@@IAEHPAUtagCREATESTRUCTA@@@Z 0042c220 f   Splash.obj
 0001:0002b270       ?OnPaint@CSplashWnd@@IAEXXZ 0042c270 f   Splash.obj
 0001:0002b370       ?OnTimer@CSplashWnd@@IAEXI@Z 0042c370 f   Splash.obj
 0001:0002b390       ??0CTrendSetup@@QAE@PAVCWnd@@@Z 0042c390 f   TrendSetup.obj
 0001:0002b480       ??_ECTrendSetup@@UAEPAXI@Z 0042c480 f i TrendSetup.obj
 0001:0002b480       ??_GCTrendSetup@@UAEPAXI@Z 0042c480 f i TrendSetup.obj
 0001:0002b4c0       ?DoDataExchange@CTrendSetup@@MAEXPAVCDataExchange@@@Z 0042c4c0 f   TrendSetup.obj
 0001:0002b4f0       ?_GetBaseMessageMap@CTrendSetup@@KGPBUAFX_MSGMAP@@XZ 0042c4f0 f   TrendSetup.obj
 0001:0002b510       ?GetMessageMap@CTrendSetup@@MBEPBUAFX_MSGMAP@@XZ 0042c510 f   TrendSetup.obj
 0001:0002b530       ?OnTrackEnable@CTrendSetup@@IAEXXZ 0042c530 f   TrendSetup.obj
 0001:0002b5e0       ?OnTrackEnable2@CTrendSetup@@IAEXXZ 0042c5e0 f   TrendSetup.obj
 0001:0002b690       ?OnTrackEnable3@CTrendSetup@@IAEXXZ 0042c690 f   TrendSetup.obj
 0001:0002b740       ?OnTrackEnable4@CTrendSetup@@IAEXXZ 0042c740 f   TrendSetup.obj
 0001:0002b7f0       ?OnInitDialog@CTrendSetup@@MAEHXZ 0042c7f0 f   TrendSetup.obj
 0001:0002bbd0       ?LoadCurrentSettings@CTrendSetup@@UAEXXZ 0042cbd0 f   TrendSetup.obj
 0001:0002c130       ?OnOK@CTrendSetup@@MAEXXZ  0042d130 f   TrendSetup.obj
 0001:0002c160       ?Apply@CTrendSetup@@UAEXXZ 0042d160 f   TrendSetup.obj
 0001:0002c540       ?OnUpdate@CTrendSetup@@IAEXXZ 0042d540 f   TrendSetup.obj
 0001:0002c750       ?OnUpdate2@CTrendSetup@@IAEXXZ 0042d750 f   TrendSetup.obj
 0001:0002c960       ?OnUpdate3@CTrendSetup@@IAEXXZ 0042d960 f   TrendSetup.obj
 0001:0002cb70       ?OnUpdate4@CTrendSetup@@IAEXXZ 0042db70 f   TrendSetup.obj
 0001:0002cd80       ?OnSetRegion@CTrendSetup@@IAEXXZ 0042dd80 f   TrendSetup.obj
 0001:0002cf30       ?OnSetRegion2@CTrendSetup@@IAEXXZ 0042df30 f   TrendSetup.obj
 0001:0002d0e0       ?OnSetRegion3@CTrendSetup@@IAEXXZ 0042e0e0 f   TrendSetup.obj
 0001:0002d290       ?OnSetRegion4@CTrendSetup@@IAEXXZ 0042e290 f   TrendSetup.obj
 0001:0002d440       ?CreateObject@CTrendView@@SGPAVCObject@@XZ 0042e440 f   TrendView.obj
 0001:0002d4c0       ?_GetBaseClass@CTrendView@@KGPAUCRuntimeClass@@XZ 0042e4c0 f   TrendView.obj
 0001:0002d4e0       ?GetRuntimeClass@CTrendView@@UBEPAUCRuntimeClass@@XZ 0042e4e0 f   TrendView.obj
 0001:0002d500       ??0CTrendView@@IAE@XZ      0042e500 f   TrendView.obj
 0001:0002d5d0       ?GetGraph@CTrendView@@UAEPAVCGSX2@@XZ 0042e5d0 f i TrendView.obj
 0001:0002d5f0       ?GetTrendXData@CTrendView@@UAEPAUtagVARIANT@@XZ 0042e5f0 f i TrendView.obj
 0001:0002d610       ?GetTrendYData@CTrendView@@UAEPAUtagVARIANT@@XZ 0042e610 f i TrendView.obj
 0001:0002d630       ??_GCTrendView@@MAEPAXI@Z  0042e630 f i TrendView.obj
 0001:0002d630       ??_ECTrendView@@MAEPAXI@Z  0042e630 f i TrendView.obj
 0001:0002d670       ??1CTrendView@@MAE@XZ      0042e670 f   TrendView.obj
 0001:0002d760       ?_GetBaseMessageMap@CTrendView@@KGPBUAFX_MSGMAP@@XZ 0042e760 f   TrendView.obj
 0001:0002d780       ?GetMessageMap@CTrendView@@MBEPBUAFX_MSGMAP@@XZ 0042e780 f   TrendView.obj
 0001:0002d7a0       ?_GetBaseEventSinkMap@CTrendView@@KGPBUAFX_EVENTSINKMAP@@XZ 0042e7a0 f   TrendView.obj
 0001:0002d7c0       ?GetEventSinkMap@CTrendView@@MBEPBUAFX_EVENTSINKMAP@@XZ 0042e7c0 f   TrendView.obj
 0001:0002d7e0       ?OnDraw@CTrendView@@MAEXPAVCDC@@@Z 0042e7e0 f   TrendView.obj
 0001:0002d800       ?AssertValid@CTrendView@@MBEXXZ 0042e800 f   TrendView.obj
 0001:0002d820       ?Dump@CTrendView@@MBEXAAVCDumpContext@@@Z 0042e820 f   TrendView.obj
 0001:0002d850       ?CreateTrendGraph@CTrendView@@UAE_NXZ 0042e850 f   TrendView.obj
 0001:0002d970       ?Create@CTrendView@@UAEHPBD0KABUtagRECT@@PAVCWnd@@IPAUCCreateContext@@@Z 0042e970 f   TrendView.obj
 0001:0002d9e0       ?OnSize@CTrendView@@IAEXIHH@Z 0042e9e0 f   TrendView.obj
 0001:0002da40       ?StartTrendAcquisition@CTrendView@@UAEXVCString@@@Z 0042ea40 f   TrendView.obj
 0001:0002df30       ?StopTrendAcquisition@CTrendView@@UAEXXZ 0042ef30 f   TrendView.obj
 0001:0002e000       ?LoadMeasurementDLLs@CTrendView@@UAEXXZ 0042f000 f   TrendView.obj
 0001:0002e3e0       ?FreeMeasurementDLLs@CTrendView@@UAEXXZ 0042f3e0 f   TrendView.obj
 0001:0002e450       ?OnTimer@CTrendView@@IAEXI@Z 0042f450 f   TrendView.obj
 0001:0002e870       ?ReCalculateTrend@CTrendView@@UAEXXZ 0042f870 f   TrendView.obj
 0001:000304b0       ?GetProgressBar@CRecalcTrendDlg@@QAEPAVCProgressCtrl@@XZ 004314b0 f i TrendView.obj
 0001:000304d0       ?CreateTrendData@CTrendView@@UAEXXZ 004314d0 f   TrendView.obj
 0001:000321a0       ?DrawTrendData@CTrendView@@UAEXH@Z 004331a0 f   TrendView.obj
 0001:000325f0       ?DisplayHoverWindow@CTrendView@@UAEXXZ 004335f0 f   TrendView.obj
 0001:00032960       ?SaveTrendFile@CTrendView@@UAE_NVCString@@_N@Z 00433960 f   TrendView.obj
 0001:00032d10       ?RetrieveTrendFile@CTrendView@@UAE_NVCString@@@Z 00433d10 f   TrendView.obj
 0001:00033990       ?OnGSXMouseDown@CTrendView@@IAEXFFJJ@Z 00434990 f   TrendView.obj
 0001:000339f0       ?OnGSXMouseUp@CTrendView@@IAEXFFJJ@Z 004349f0 f   TrendView.obj
 0001:00033d30       ?OnGSXMouseMove@CTrendView@@IAEXFFJJ@Z 00434d30 f   TrendView.obj
 0001:00033f60       ?OnGSXRepaint@CTrendView@@IAEXJJJJJ@Z 00434f60 f   TrendView.obj
 0001:00033f80       ?OnGSXClick@CTrendView@@IAEXXZ 00434f80 f   TrendView.obj
 0001:00034060       ?OnRightGraphProperties@CTrendView@@IAEXXZ 00435060 f   TrendView.obj
 0001:00034170       ?OnRightSetMarkerTool@CTrendView@@IAEXXZ 00435170 f   TrendView.obj
 0001:000341c0       ?OnRightSetZoomTool@CTrendView@@IAEXXZ 004351c0 f   TrendView.obj
 0001:00034210       ?OnPrint@CTrendView@@MAEXPAVCDC@@PAUCPrintInfo@@@Z 00435210 f   TrendView.obj
 0001:000343d0       ?OnPreparePrinting@CTrendView@@MAEHPAUCPrintInfo@@@Z 004353d0 f   TrendView.obj
 0001:00034400       ?OnBeginPrinting@CTrendView@@MAEXPAVCDC@@PAUCPrintInfo@@@Z 00435400 f   TrendView.obj
 0001:00034430       ?OnEndPrinting@CTrendView@@MAEXPAVCDC@@PAUCPrintInfo@@@Z 00435430 f   TrendView.obj
 0001:00034460       ?OnCopygraph@CTrendView@@IAEXXZ 00435460 f   TrendView.obj
 0001:00034490       ?GraphSettings@CTrendView@@UAEX_N@Z 00435490 f   TrendView.obj
 0001:00034c40       ?OnDestroy@CTrendView@@IAEXXZ 00435c40 f   TrendView.obj
 0001:00034c70       ?OnSetCursor@CTrendView@@IAEHPAVCWnd@@II@Z 00435c70 f   TrendView.obj
 0001:00034ca0       ?OnLButtonUp@CTrendView@@IAEXIVCPoint@@@Z 00435ca0 f   TrendView.obj
 0001:00034cd0       ?OnInitialUpdate@CTrendView@@UAEXXZ 00435cd0 f   TrendView.obj
 0001:00034cf0       ?OnPaint@CTrendView@@IAEXXZ 00435cf0 f   TrendView.obj
 0001:00034d20       ?CalcWindowRect@CTrendView@@MAEXPAUtagRECT@@I@Z 00435d20 f   TrendView.obj
 0001:00034d50       ?OnRightSetTrack1@CTrendView@@IAEXXZ 00435d50 f   TrendView.obj
 0001:00034dc0       ?OnRightSetTrack2@CTrendView@@IAEXXZ 00435dc0 f   TrendView.obj
 0001:00034e30       ?OnRightSetTrack3@CTrendView@@IAEXXZ 00435e30 f   TrendView.obj
 0001:00034ea0       ?OnRightSetTrack4@CTrendView@@IAEXXZ 00435ea0 f   TrendView.obj
 0001:00034f10       ?OnRightReCalcTrend@CTrendView@@IAEXXZ 00435f10 f   TrendView.obj
 0001:00034f40       ?OnRightSum@CTrendView@@IAEXXZ 00435f40 f   TrendView.obj
 0001:000358b0       ?GetStatusBar@CMainFrame@@QAEPAVCStatusBar@@XZ 004368b0 f i TrendView.obj
 0001:000358d0       ??0CBaseWindowData@@QAE@PANH_N@Z 004368d0 f   WindowData.obj
 0001:00035960       ?GetData@CBaseWindowData@@UAEPANXZ 00436960 f i WindowData.obj
 0001:00035980       ??_ECBaseWindowData@@UAEPAXI@Z 00436980 f i WindowData.obj
 0001:00035980       ??_GCBaseWindowData@@UAEPAXI@Z 00436980 f i WindowData.obj
 0001:000359c0       ??1CBaseWindowData@@UAE@XZ 004369c0 f   WindowData.obj
 0001:00035a40       ?SetData@CBaseWindowData@@UAEXPANH@Z 00436a40 f   WindowData.obj
 0001:00035ad0       ??0CParzenWindow@@QAE@PANH_N@Z 00436ad0 f   WindowData.obj
 0001:00035b10       ??_GCParzenWindow@@UAEPAXI@Z 00436b10 f i WindowData.obj
 0001:00035b10       ??_ECParzenWindow@@UAEPAXI@Z 00436b10 f i WindowData.obj
 0001:00035b50       ??1CParzenWindow@@UAE@XZ   00436b50 f   WindowData.obj
 0001:00035b80       ?Calculate@CParzenWindow@@UAE_NXZ 00436b80 f   WindowData.obj
 0001:00035cf0       ??0CHanningWindow@@QAE@PANH_N@Z 00436cf0 f   WindowData.obj
 0001:00035d30       ??_GCHanningWindow@@UAEPAXI@Z 00436d30 f i WindowData.obj
 0001:00035d30       ??_ECHanningWindow@@UAEPAXI@Z 00436d30 f i WindowData.obj
 0001:00035d70       ??1CHanningWindow@@UAE@XZ  00436d70 f   WindowData.obj
 0001:00035da0       ?Calculate@CHanningWindow@@UAE_NXZ 00436da0 f   WindowData.obj
 0001:00035ea6       _VerQueryValueA@16         00436ea6 f   version:VERSION.dll
 0001:00035eac       _GetFileVersionInfoA@16    00436eac f   version:VERSION.dll
 0001:00035eb2       _GetFileVersionInfoSizeA@8 00436eb2 f   version:VERSION.dll
 0001:00035ec0       ??0TStretchedBitmapStatic@@QAE@I@Z 00436ec0 f   UtilLib:StretchedBitmapStatic.obj
 0001:00035ef0       ??1TStretchedBitmapStatic@@UAE@XZ 00436ef0 f   UtilLib:StretchedBitmapStatic.obj
 0001:00035f20       ?SetBitmap@TStretchedBitmapStatic@@UAEXI@Z 00436f20 f   UtilLib:StretchedBitmapStatic.obj
 0001:000360b0       ?_GetBaseMessageMap@TStretchedBitmapStatic@@KGPBUAFX_MSGMAP@@XZ 004370b0 f   UtilLib:StretchedBitmapStatic.obj
 0001:000360c0       ?GetMessageMap@TStretchedBitmapStatic@@MBEPBUAFX_MSGMAP@@XZ 004370c0 f   UtilLib:StretchedBitmapStatic.obj
 0001:000360d0       ?OnPaint@TStretchedBitmapStatic@@IAEXXZ 004370d0 f   UtilLib:StretchedBitmapStatic.obj
 0001:00036140       ??_GTStretchedBitmapStatic@@UAEPAXI@Z 00437140 f i UtilLib:StretchedBitmapStatic.obj
 0001:00036140       ??_ETStretchedBitmapStatic@@UAEPAXI@Z 00437140 f i UtilLib:StretchedBitmapStatic.obj
 0001:00036160       ??1CObject@@UAE@XZ         00437160 f i UtilLib:StretchedBitmapStatic.obj
 0001:00036170       ??_ECObject@@UAEPAXI@Z     00437170 f i UtilLib:StretchedBitmapStatic.obj
 0001:00036170       ??_GCObject@@UAEPAXI@Z     00437170 f i UtilLib:StretchedBitmapStatic.obj
 0001:00036190       ?Serialize@CObject@@UAEXAAVCArchive@@@Z 00437190 f i UtilLib:StretchedBitmapStatic.obj
 0001:000361a0       ?AssertValid@CObject@@UBEXXZ 004371a0 f i UtilLib:StretchedBitmapStatic.obj
 0001:000361b0       ?Dump@CObject@@UBEXAAVCDumpContext@@@Z 004371b0 f i UtilLib:StretchedBitmapStatic.obj
 0001:000361c0       ??_GCGdiObject@@UAEPAXI@Z  004371c0 f i UtilLib:StretchedBitmapStatic.obj
 0001:000361c0       ??_ECGdiObject@@UAEPAXI@Z  004371c0 f i UtilLib:StretchedBitmapStatic.obj
 0001:000361e0       ??1CGdiObject@@UAE@XZ      004371e0 f i UtilLib:StretchedBitmapStatic.obj
 0001:00036230       ??_GCBitmap@@UAEPAXI@Z     00437230 f i UtilLib:StretchedBitmapStatic.obj
 0001:00036250       ??1CBitmap@@UAE@XZ         00437250 f i UtilLib:StretchedBitmapStatic.obj
 0001:000362a0       ?DoDataExchange@CWnd@@MAEXPAVCDataExchange@@@Z 004372a0 f i UtilLib:StretchedBitmapStatic.obj
 0001:000362b0       ?BeginModalState@CWnd@@UAEXXZ 004372b0 f i UtilLib:StretchedBitmapStatic.obj
 0001:000362c0       ?EndModalState@CWnd@@UAEXXZ 004372c0 f i UtilLib:StretchedBitmapStatic.obj
 0001:000362d0       ?CreateUnitsListBox@TOhmEditBox@@MAEPAVTAutoListBox@@HPAVCWnd@@@Z 004372d0 f   UtilLib:OhmEditBox.obj
 0001:00036350       ?_GetBaseMessageMap@TOhmEditBox@@KGPBUAFX_MSGMAP@@XZ 00437350 f   UtilLib:OhmEditBox.obj
 0001:00036360       ?GetMessageMap@TOhmEditBox@@MBEPBUAFX_MSGMAP@@XZ 00437360 f   UtilLib:OhmEditBox.obj
 0001:00036370       ??0TOhmUnitsListBox@@QAE@HPAVCWnd@@PANPAVTOhmEditBox@@HHABUTBaseEnabler@@@Z 00437370 f   UtilLib:OhmEditBox.obj
 0001:000363c0       ??1TOhmUnitsListBox@@UAE@XZ 004373c0 f   UtilLib:OhmEditBox.obj
 0001:000363f0       ?InitUI@TOhmUnitsListBox@@UAEXXZ 004373f0 f   UtilLib:OhmEditBox.obj
 0001:00036400       ?_GetBaseMessageMap@TOhmUnitsListBox@@KGPBUAFX_MSGMAP@@XZ 00437400 f   UtilLib:OhmEditBox.obj
 0001:00036410       ?GetMessageMap@TOhmUnitsListBox@@MBEPBUAFX_MSGMAP@@XZ 00437410 f   UtilLib:OhmEditBox.obj
 0001:00036420       ?DrawItem@TOhmUnitsListBox@@IAEXPAUtagDRAWITEMSTRUCT@@@Z 00437420 f   UtilLib:OhmEditBox.obj
 0001:00036720       ??3CObject@@SGXPAX@Z       00437720 f i UtilLib:OhmEditBox.obj
 0001:00036730       ??_ETOhmUnitsListBox@@UAEPAXI@Z 00437730 f i UtilLib:OhmEditBox.obj
 0001:00036730       ??_GTOhmUnitsListBox@@UAEPAXI@Z 00437730 f i UtilLib:OhmEditBox.obj
 0001:00036750       ?_GetBaseMessageMap@?$TAutoNumberWithUnitsEditBoxTmplt@N@@KGPBUAFX_MSGMAP@@XZ 00437750 f i UtilLib:OhmEditBox.obj
 0001:00036760       ?_GetBaseMessageMap@?$TAutoEditBoxTmplt@N@@KGPBUAFX_MSGMAP@@XZ 00437760 f i UtilLib:OhmEditBox.obj
 0001:00036770       ?OnKillFocus@?$TAutoNumberWithUnitsEditBoxTmplt@N@@IAEXPAVCWnd@@@Z 00437770 f i UtilLib:OhmEditBox.obj
 0001:000367a0       ?OnSetFocus@?$TAutoNumberWithUnitsEditBoxTmplt@N@@IAEXPAVCWnd@@@Z 004377a0 f i UtilLib:OhmEditBox.obj
 0001:000367d0       ?OnChar@?$TAutoEditBoxTmplt@N@@IAEXIII@Z 004377d0 f i UtilLib:OhmEditBox.obj
 0001:000367f0       ?DivideByZero@@YANXZ       004377f0 f   UtilLib:NumberUtils.obj
 0001:00036800       ?Nan@@YANXZ                00437800 f   UtilLib:NumberUtils.obj
 0001:00036810       ?PInf@@YANXZ               00437810 f   UtilLib:NumberUtils.obj
 0001:00036820       ?IsPInf@@YA_NN@Z           00437820 f   UtilLib:NumberUtils.obj
 0001:00036840       ?NInf@@YANXZ               00437840 f   UtilLib:NumberUtils.obj
 0001:00036850       ?IsNInf@@YA_NN@Z           00437850 f   UtilLib:NumberUtils.obj
 0001:00036870       ?Sq@@YANN@Z                00437870 f   UtilLib:NumberUtils.obj
 0001:00036880       ?IsBetween@@YA_NNNN@Z      00437880 f   UtilLib:NumberUtils.obj
 0001:000368e0       ?ShiftLeftNGuts@?%C:\Documents and Settings\phononshared\Desktop\Eclipse2-00 Program Only\UtilLib\NumberUtils.cpp162246494@@YGHPAHH@Z 004378e0 f   UtilLib:NumberUtils.obj
 0001:00036900       ?ShiftLeftN@@YAHPAHH@Z     00437900 f   UtilLib:NumberUtils.obj
 0001:00036930       ?IntegralSecondsNotation@@YA?AVCString@@NN@Z 00437930 f   UtilLib:NumberUtils.obj
 0001:00036a50       ?EngineeringNotation@@YA?AVCString@@NH_N@Z 00437a50 f   UtilLib:NumberUtils.obj
 0001:00036c90       ?RoundToNearest@@YANNN@Z   00437c90 f   UtilLib:NumberUtils.obj
 0001:00036cd0       ?RoundToNearestInt@@YAHN@Z 00437cd0 f   UtilLib:NumberUtils.obj
 0001:00036d00       ?RoundToNearestInt@@YGHHH@Z 00437d00 f   UtilLib:NumberUtils.obj
 0001:00036d40       ??0TNumericExeceptionsEnable@@QAE@_N@Z 00437d40 f   UtilLib:NumberUtils.obj
 0001:00036d90       ??1TNumericExeceptionsEnable@@QAE@XZ 00437d90 f   UtilLib:NumberUtils.obj
 0001:00036db0       ?__AnyFunctionCall@@YAXXZ  00437db0 f   UtilLib:NumberUtils.obj
 0001:00036dc0       ?LineFitForEvenlySpacedPoints@@YAXPAN0PBNH1000@Z 00437dc0 f   UtilLib:NumberUtils.obj
 0001:00036f50       ?LocalFloatResetLocale@@YAXXZ 00437f50 f   UtilLib:NumberUtils.obj
 0001:00036f60       ?USFloatToLocal@@YAXPAD@Z  00437f60 f   UtilLib:NumberUtils.obj
 0001:00036ff0       ?LocalFloatToUS@@YAXPAD@Z  00437ff0 f   UtilLib:NumberUtils.obj
 0001:00037030       ?FindMaxWord@@YAGPAGH@Z    00438030 f   UtilLib:NumberUtils.obj
 0001:00037060       ?FindMinWord@@YAGPAGH@Z    00438060 f   UtilLib:NumberUtils.obj
 0001:00037090       ??0TBaseComplexArray@@QAE@K_N@Z 00438090 f   UtilLib:ComplexArray.obj
 0001:00037130       ??0TBaseComplexArray@@QAE@ABV0@@Z 00438130 f   UtilLib:ComplexArray.obj
 0001:000371d0       ??1TBaseComplexArray@@UAE@XZ 004381d0 f   UtilLib:ComplexArray.obj
 0001:000371f0       ??4TBaseComplexArray@@QAEAAV0@ABV0@@Z 004381f0 f   UtilLib:ComplexArray.obj
 0001:00037240       ??XTBaseComplexArray@@QAEAAV0@N@Z 00438240 f   UtilLib:ComplexArray.obj
 0001:00037280       ??_0TBaseComplexArray@@QAEAAV0@N@Z 00438280 f   UtilLib:ComplexArray.obj
 0001:000372c0       ??XTBaseComplexArray@@QAEAAV0@ABVTComplex@@@Z 004382c0 f   UtilLib:ComplexArray.obj
 0001:00037300       ?Zero@TBaseComplexArray@@QAEXXZ 00438300 f   UtilLib:ComplexArray.obj
 0001:00037330       ?SumSquareMagnitude@TBaseComplexArray@@QBENXZ 00438330 f   UtilLib:ComplexArray.obj
 0001:00037380       ?MaxMagnitude@TBaseComplexArray@@QBENXZ 00438380 f   UtilLib:ComplexArray.obj
 0001:000373e0       ??0TUnitVectorTable@@QAE@NK@Z 004383e0 f   UtilLib:ComplexArray.obj
 0001:00037480       ??0TComplexArray@@QAE@K_N@Z 00438480 f   UtilLib:ComplexArray.obj
 0001:00037500       ??0TComplexArray@@QAE@ABV0@@Z 00438500 f   UtilLib:ComplexArray.obj
 0001:00037570       ??4TComplexArray@@QAEAAV0@ABVTBaseComplexArray@@@Z 00438570 f   UtilLib:ComplexArray.obj
 0001:00037580       ?TimeShiftSpectralDensity@TComplexArray@@QAEXN@Z 00438580 f   UtilLib:ComplexArray.obj
 0001:00037650       ?DoFourierTransform@TComplexArray@@QAEXXZ 00438650 f   UtilLib:ComplexArray.obj
 0001:00037690       ?DoInverseFourierTransform@TComplexArray@@QAEXXZ 00438690 f   UtilLib:ComplexArray.obj
 0001:000376b0       ?LoadAsFourierTransformFromReals@TComplexArray@@QAEXQBH@Z 004386b0 f   UtilLib:ComplexArray.obj
 0001:00037700       ?LoadAsInverseFourierTransformFromReals@TComplexArray@@QAEXQBH@Z 00438700 f   UtilLib:ComplexArray.obj
 0001:00037730       ?LoadAsFourierTransformFromReals@TComplexArray@@QAEXQBN@Z 00438730 f   UtilLib:ComplexArray.obj
 0001:00037780       ?LoadAsInverseFourierTransformFromReals@TComplexArray@@QAEXQBN@Z 00438780 f   UtilLib:ComplexArray.obj
 0001:000377b0       ?DoFFTFirstTwoColumns@TComplexArray@@IAEX_N@Z 004387b0 f   UtilLib:ComplexArray.obj
 0001:00037a40       ?DoFFTLoadFromRealsAndFirstColumn@TComplexArray@@IAEXQBN_N@Z 00438a40 f   UtilLib:ComplexArray.obj
 0001:00037ad0       ?DoFFTLoadFromRealsAndFirstColumn@TComplexArray@@IAEXQBH_N@Z 00438ad0 f   UtilLib:ComplexArray.obj
 0001:00037b50       ?DoFFTFromRealsSecondColumn@TComplexArray@@IAEX_N@Z 00438b50 f   UtilLib:ComplexArray.obj
 0001:00037bd0       ?DoFFTColumnLoop@TComplexArray@@IAEXK_N@Z 00438bd0 f   UtilLib:ComplexArray.obj
 0001:00037d40       ?BitReverse@TComplexArray@@IBEKK@Z 00438d40 f   UtilLib:ComplexArray.obj
 0001:00037d70       ??_H@YGXPAXIHP6EX0@Z@Z     00438d70 f i UtilLib:ComplexArray.obj
 0001:00037da0       ??_GTBaseComplexArray@@UAEPAXI@Z 00438da0 f i UtilLib:ComplexArray.obj
 0001:00037da0       ??_ETBaseComplexArray@@UAEPAXI@Z 00438da0 f i UtilLib:ComplexArray.obj
 0001:00037dc0       ??_GTUnitVectorTable@@UAEPAXI@Z 00438dc0 f i UtilLib:ComplexArray.obj
 0001:00037dc0       ??_ETUnitVectorTable@@UAEPAXI@Z 00438dc0 f i UtilLib:ComplexArray.obj
 0001:00037de0       ??1TUnitVectorTable@@UAE@XZ 00438de0 f i UtilLib:ComplexArray.obj
 0001:00037df0       ??_ETComplexArray@@UAEPAXI@Z 00438df0 f i UtilLib:ComplexArray.obj
 0001:00037df0       ??_GTComplexArray@@UAEPAXI@Z 00438df0 f i UtilLib:ComplexArray.obj
 0001:00037e10       ??1TComplexArray@@UAE@XZ   00438e10 f i UtilLib:ComplexArray.obj
 0001:00037e60       ??0TComplex@@QAE@XZ        00438e60 f   UtilLib:Complex.obj
 0001:00037e70       ??0TComplex@@QAE@_N@Z      00438e70 f   UtilLib:Complex.obj
 0001:00037e90       ??0TComplex@@QAE@N@Z       00438e90 f   UtilLib:Complex.obj
 0001:00037eb0       ??0TComplex@@QAE@NN@Z      00438eb0 f   UtilLib:Complex.obj
 0001:00037ed0       ?FromPolar@TComplex@@QAEXNN@Z 00438ed0 f   UtilLib:Complex.obj
 0001:00037ef0       ??4TComplex@@QAEAAV0@N@Z   00438ef0 f   UtilLib:Complex.obj
 0001:00037f10       ??YTComplex@@QAEAAV0@ABV0@@Z 00438f10 f   UtilLib:Complex.obj
 0001:00037f30       ??ZTComplex@@QAEAAV0@ABV0@@Z 00438f30 f   UtilLib:Complex.obj
 0001:00037f50       ??XTComplex@@QAEAAV0@ABV0@@Z 00438f50 f   UtilLib:Complex.obj
 0001:00037f90       ??_0TComplex@@QAEAAV0@ABV0@@Z 00438f90 f   UtilLib:Complex.obj
 0001:00037fd0       ??XTComplex@@QAEAAV0@N@Z   00438fd0 f   UtilLib:Complex.obj
 0001:00037ff0       ??_0TComplex@@QAEAAV0@N@Z  00438ff0 f   UtilLib:Complex.obj
 0001:00038010       ??8TComplex@@QBE_NABV0@@Z  00439010 f   UtilLib:Complex.obj
 0001:00038040       ?GetRadius@TComplex@@QBENXZ 00439040 f   UtilLib:Complex.obj
 0001:00038060       ?GetRadius2@TComplex@@QBENXZ 00439060 f   UtilLib:Complex.obj
 0001:00038080       ?GetAngle@TComplex@@QBENXZ 00439080 f   UtilLib:Complex.obj
 0001:00038090       ?IsFinite@TComplex@@QBE_NXZ 00439090 f   UtilLib:Complex.obj
 0001:000380d0       ??H@YA?AVTComplex@@ABV0@0@Z 004390d0 f   UtilLib:Complex.obj
 0001:00038150       ??G@YA?AVTComplex@@ABV0@0@Z 00439150 f   UtilLib:Complex.obj
 0001:000381d0       ??D@YA?AVTComplex@@ABV0@0@Z 004391d0 f   UtilLib:Complex.obj
 0001:00038280       ??K@YA?AVTComplex@@ABV0@0@Z 00439280 f   UtilLib:Complex.obj
 0001:00038300       ??G@YA?AVTComplex@@ABV0@@Z 00439300 f   UtilLib:Complex.obj
 0001:00038360       ?Dot@@YANABVTComplex@@0@Z  00439360 f   UtilLib:Complex.obj
 0001:00038380       ?Conj@@YA?AVTComplex@@ABV1@@Z 00439380 f   UtilLib:Complex.obj
 0001:000383d0       ?Heading@@YA?AVTComplex@@ABV1@@Z 004393d0 f   UtilLib:Complex.obj
 0001:00038430       ?Uoo@@YA?AVTComplex@@N@Z   00439430 f   UtilLib:Complex.obj
 0001:000384e0       ?ShiftDlgItem@@YAXPAVCWnd@@HH@Z 004394e0 f   UtilLib:MyControls.obj
 0001:00038550       ??0TShadowResources@@QAE@XZ 00439550 f   UtilLib:MyControls.obj
 0001:000385e0       ??1TShadowResources@@QAE@XZ 004395e0 f   UtilLib:MyControls.obj
 0001:00038630       ?DrawRect@TShadowResources@@QAEXPAUHDC__@@PAUtagRECT@@_N22@Z 00439630 f   UtilLib:MyControls.obj
 0001:000389e0       ??0TAutoControlBase@@QAE@ABUTBaseEnabler@@@Z 004399e0 f   UtilLib:MyControls.obj
 0001:00038a60       ??0TAutoControlBase@@QAE@IPAVCWnd@@ABUTBaseEnabler@@@Z 00439a60 f   UtilLib:MyControls.obj
 0001:00038b00       ??1TAutoControlBase@@UAE@XZ 00439b00 f   UtilLib:MyControls.obj
 0001:00038b80       ?InitUI@TAutoControlBase@@UAEXXZ 00439b80 f   UtilLib:MyControls.obj
 0001:00038bb0       ?ForceDataSync@TAutoControlBase@@UAEXXZ 00439bb0 f   UtilLib:MyControls.obj
 0001:00038bc0       ?PostNcDestroy@TAutoControlBase@@MAEXXZ 00439bc0 f   UtilLib:MyControls.obj
 0001:00038be0       ?PreTranslateMessage@TAutoControlBase@@MAEHPAUtagMSG@@@Z 00439be0 f   UtilLib:MyControls.obj
 0001:00038ca0       ?_GetBaseMessageMap@TAutoControlBase@@KGPBUAFX_MSGMAP@@XZ 00439ca0 f   UtilLib:MyControls.obj
 0001:00038cb0       ?GetMessageMap@TAutoControlBase@@MBEPBUAFX_MSGMAP@@XZ 00439cb0 f   UtilLib:MyControls.obj
 0001:00038cc0       ?OnInitUI@TAutoControlBase@@AAEJIJ@Z 00439cc0 f   UtilLib:MyControls.obj
 0001:00038cd0       ?OnCreate@TAutoControlBase@@IAEHPAUtagCREATESTRUCTA@@@Z 00439cd0 f   UtilLib:MyControls.obj
 0001:00038d00       ?OnKillFocus@TAutoControlBase@@IAEXPAVCWnd@@@Z 00439d00 f   UtilLib:MyControls.obj
 0001:00038d50       ?OnSetFocus@TAutoControlBase@@IAEXPAVCWnd@@@Z 00439d50 f   UtilLib:MyControls.obj
 0001:00038d80       ??0TAutoRadioButton@@QAE@PAHHHABUTBaseEnabler@@I@Z 00439d80 f   UtilLib:MyControls.obj
 0001:00038e00       ??0TAutoRadioButton@@QAE@IPAVCWnd@@PAHHHABUTBaseEnabler@@I@Z 00439e00 f   UtilLib:MyControls.obj
 0001:00038e90       ?SameData@TAutoRadioButton@@IBE_NPBH0@Z 00439e90 f   UtilLib:MyControls.obj
 0001:00038ef0       ?CopyData@TAutoRadioButton@@IBEXPAHPBH@Z 00439ef0 f   UtilLib:MyControls.obj
 0001:00038f30       ?InitUI@TAutoRadioButton@@UAEXXZ 00439f30 f   UtilLib:MyControls.obj
 0001:00038f60       ?Changed@TAutoRadioButton@@UBE_NXZ 00439f60 f   UtilLib:MyControls.obj
 0001:00038f80       ?BNClicked@TAutoRadioButton@@MAEXXZ 00439f80 f   UtilLib:MyControls.obj
 0001:00038fe0       ?_GetBaseMessageMap@TAutoRadioButton@@KGPBUAFX_MSGMAP@@XZ 00439fe0 f   UtilLib:MyControls.obj
 0001:00038ff0       ?GetMessageMap@TAutoRadioButton@@MBEPBUAFX_MSGMAP@@XZ 00439ff0 f   UtilLib:MyControls.obj
 0001:00039000       ?OnSetFocus@TAutoRadioButton@@IAEXPAVCWnd@@@Z 0043a000 f   UtilLib:MyControls.obj
 0001:00039050       ?OnKillFocus@TAutoRadioButton@@IAEXPAVCWnd@@@Z 0043a050 f   UtilLib:MyControls.obj
 0001:000390a0       ?OnBNClicked@TAutoRadioButton@@IAEHXZ 0043a0a0 f   UtilLib:MyControls.obj
 0001:000390b0       ??0TAutoRadioButtonWithBitmap@@QAE@PAHHHIIABUTBaseEnabler@@@Z 0043a0b0 f   UtilLib:MyControls.obj
 0001:000390f0       ??0TAutoRadioButtonWithBitmap@@QAE@IPAVCWnd@@PAHHHIIABUTBaseEnabler@@@Z 0043a0f0 f   UtilLib:MyControls.obj
 0001:00039130       ?InitUI@TAutoRadioButtonWithBitmap@@UAEXXZ 0043a130 f   UtilLib:MyControls.obj
 0001:000391b0       ?_GetBaseMessageMap@TAutoRadioButtonWithBitmap@@KGPBUAFX_MSGMAP@@XZ 0043a1b0 f   UtilLib:MyControls.obj
 0001:000391c0       ?GetMessageMap@TAutoRadioButtonWithBitmap@@MBEPBUAFX_MSGMAP@@XZ 0043a1c0 f   UtilLib:MyControls.obj
 0001:000391d0       ??0TAutoCheckBox@@QAE@PAHHHHABUTBaseEnabler@@I@Z 0043a1d0 f   UtilLib:MyControls.obj
 0001:00039210       ??0TAutoCheckBox@@QAE@IPAVCWnd@@PAHHHHABUTBaseEnabler@@I@Z 0043a210 f   UtilLib:MyControls.obj
 0001:00039260       ?InitUI@TAutoCheckBox@@UAEXXZ 0043a260 f   UtilLib:MyControls.obj
 0001:00039290       ?BNClicked@TAutoCheckBox@@MAEXXZ 0043a290 f   UtilLib:MyControls.obj
 0001:000392c0       ?_GetBaseMessageMap@TAutoCheckBox@@KGPBUAFX_MSGMAP@@XZ 0043a2c0 f   UtilLib:MyControls.obj
 0001:000392d0       ?GetMessageMap@TAutoCheckBox@@MBEPBUAFX_MSGMAP@@XZ 0043a2d0 f   UtilLib:MyControls.obj
 0001:000392e0       ??0TAutoboolCheckBox@@QAE@PA_N_NABUTBaseEnabler@@@Z 0043a2e0 f   UtilLib:MyControls.obj
 0001:00039320       ??0TAutoboolCheckBox@@QAE@IPAVCWnd@@PA_N_NABUTBaseEnabler@@@Z 0043a320 f   UtilLib:MyControls.obj
 0001:00039360       ??0TAutoBOOLCheckBox@@QAE@PAHHABUTBaseEnabler@@@Z 0043a360 f   UtilLib:MyControls.obj
 0001:000393a0       ??0TAutoBOOLCheckBox@@QAE@IPAVCWnd@@PAHHABUTBaseEnabler@@@Z 0043a3a0 f   UtilLib:MyControls.obj
 0001:00039430       ??0TAutoEditBox@@QAE@IABUTBaseEnabler@@@Z 0043a430 f   UtilLib:MyControls.obj
 0001:00039490       ??0TAutoEditBox@@QAE@IPAVCWnd@@IABUTBaseEnabler@@@Z 0043a490 f   UtilLib:MyControls.obj
 0001:00039500       ?InitUI@TAutoEditBox@@UAEXXZ 0043a500 f   UtilLib:MyControls.obj
 0001:000396c0       ?ForceDataSync@TAutoEditBox@@UAEXXZ 0043a6c0 f   UtilLib:MyControls.obj
 0001:000396d0       ?ForceDataSync@TAutoEditBox@@UAEX_N@Z 0043a6d0 f   UtilLib:MyControls.obj
 0001:000397e0       ?_GetBaseMessageMap@TAutoEditBox@@KGPBUAFX_MSGMAP@@XZ 0043a7e0 f   UtilLib:MyControls.obj
 0001:000397f0       ?GetMessageMap@TAutoEditBox@@MBEPBUAFX_MSGMAP@@XZ 0043a7f0 f   UtilLib:MyControls.obj
 0001:00039800       ?OnKillFocus@TAutoEditBox@@IAEXPAVCWnd@@@Z 0043a800 f   UtilLib:MyControls.obj
 0001:00039850       ?OnSetFocus@TAutoEditBox@@IAEXPAVCWnd@@@Z 0043a850 f   UtilLib:MyControls.obj
 0001:00039870       ?OnEnable@TAutoEditBox@@IAEXH@Z 0043a870 f   UtilLib:MyControls.obj
 0001:00039890       ?OnLButtonDown@TAutoEditBox@@IAEXIVCPoint@@@Z 0043a890 f   UtilLib:MyControls.obj
 0001:00039930       ?_GetBaseMessageMap@TAutoMemoEditBox@@KGPBUAFX_MSGMAP@@XZ 0043a930 f   UtilLib:MyControls.obj
 0001:00039940       ?GetMessageMap@TAutoMemoEditBox@@MBEPBUAFX_MSGMAP@@XZ 0043a940 f   UtilLib:MyControls.obj
 0001:00039950       ?FromString@TDftTranslator@TAutoMemoEditBox@@UBEABVCString@@PBDPAUHWND__@@@Z 0043a950 f   UtilLib:MyControls.obj
 0001:000399b0       ?ToString@TDftTranslator@TAutoMemoEditBox@@UBE?AVCString@@ABV3@PAUHWND__@@@Z 0043a9b0 f   UtilLib:MyControls.obj
 0001:00039a40       ?GetData@TAutoTextEditBox@@MBEPBXXZ 0043aa40 f   UtilLib:MyControls.obj
 0001:00039a50       ?SetData@TAutoTextEditBox@@MAEXPBX@Z 0043aa50 f   UtilLib:MyControls.obj
 0001:00039a80       ?DataToText@TAutoTextEditBox@@MBE?AVCString@@PBXPAUHWND__@@@Z 0043aa80 f   UtilLib:MyControls.obj
 0001:00039af0       ?TextToData@TAutoTextEditBox@@MBEPBXPBDPAUHWND__@@@Z 0043aaf0 f   UtilLib:MyControls.obj
 0001:00039b60       ?Changed@TAutoTextEditBox@@UBE_NXZ 0043ab60 f   UtilLib:MyControls.obj
 0001:00039c00       ?_GetBaseMessageMap@TAutoDoubleEditBox@@KGPBUAFX_MSGMAP@@XZ 0043ac00 f   UtilLib:MyControls.obj
 0001:00039c10       ?GetMessageMap@TAutoDoubleEditBox@@MBEPBUAFX_MSGMAP@@XZ 0043ac10 f   UtilLib:MyControls.obj
 0001:00039c20       ?FromString@TDftTranslator@TAutoDoubleEditBox@@UBEABNPBDPAUHWND__@@@Z 0043ac20 f   UtilLib:MyControls.obj
 0001:00039c40       ?ToString@TDftTranslator@TAutoDoubleEditBox@@UBE?AVCString@@ABNPAUHWND__@@@Z 0043ac40 f   UtilLib:MyControls.obj
 0001:00039cd0       ?IsValidChar@TDftTranslator@TAutoDoubleEditBox@@UBE_ND@Z 0043acd0 f   UtilLib:MyControls.obj
 0001:00039d20       ?FromString@TFormattedTranslator@TAutoDoubleEditBox@@UBEABNPBDPAUHWND__@@@Z 0043ad20 f   UtilLib:MyControls.obj
 0001:00039de0       ?ToString@TFormattedTranslator@TAutoDoubleEditBox@@UBE?AVCString@@ABNPAUHWND__@@@Z 0043ade0 f   UtilLib:MyControls.obj
 0001:00039eb0       ?IsValidChar@TFormattedTranslator@TAutoDoubleEditBox@@UBE_ND@Z 0043aeb0 f   UtilLib:MyControls.obj
 0001:00039f30       ?FromString@TPercentTranslator@TAutoDoubleEditBox@@UBEABNPBDPAUHWND__@@@Z 0043af30 f   UtilLib:MyControls.obj
 0001:00039fc0       ?ToString@TPercentTranslator@TAutoDoubleEditBox@@UBE?AVCString@@ABNPAUHWND__@@@Z 0043afc0 f   UtilLib:MyControls.obj
 0001:0003a080       ?IsValidChar@TPercentTranslator@TAutoDoubleEditBox@@UBE_ND@Z 0043b080 f   UtilLib:MyControls.obj
 0001:0003a0f0       ?MultiplierFromIndex@TUnitsTable@TAutoDoubleWithEngUnitsEditBox@@UBENH@Z 0043b0f0 f   UtilLib:MyControls.obj
 0001:0003a120       ?UnitsFromIndex@TUnitsTable@TAutoDoubleWithEngUnitsEditBox@@UBE?AVCString@@H@Z 0043b120 f   UtilLib:MyControls.obj
 0001:0003a210       ?GetNumUnits@TUnitsTable@TAutoDoubleWithEngUnitsEditBox@@UBEHXZ 0043b210 f   UtilLib:MyControls.obj
 0001:0003a240       ?_GetBaseMessageMap@TAutoDoubleWithEngUnitsEditBox@@KGPBUAFX_MSGMAP@@XZ 0043b240 f   UtilLib:MyControls.obj
 0001:0003a250       ?GetMessageMap@TAutoDoubleWithEngUnitsEditBox@@MBEPBUAFX_MSGMAP@@XZ 0043b250 f   UtilLib:MyControls.obj
 0001:0003a2b0       ?_GetBaseMessageMap@TAutoDWORDEditBox@@KGPBUAFX_MSGMAP@@XZ 0043b2b0 f   UtilLib:MyControls.obj
 0001:0003a2c0       ?GetMessageMap@TAutoDWORDEditBox@@MBEPBUAFX_MSGMAP@@XZ 0043b2c0 f   UtilLib:MyControls.obj
 0001:0003a2d0       ?FromString@TDftTranslator@TAutoDWORDEditBox@@UBEABKPBDPAUHWND__@@@Z 0043b2d0 f   UtilLib:MyControls.obj
 0001:0003a2f0       ?ToString@TDftTranslator@TAutoDWORDEditBox@@UBE?AVCString@@ABKPAUHWND__@@@Z 0043b2f0 f   UtilLib:MyControls.obj
 0001:0003a390       ?IsValidChar@TDftTranslator@TAutoDWORDEditBox@@UBE_ND@Z 0043b390 f   UtilLib:MyControls.obj
 0001:0003a3c0       ?FromString@TFancyTranslator@TAutoDWORDEditBox@@UBEABKPBDPAUHWND__@@@Z 0043b3c0 f   UtilLib:MyControls.obj
 0001:0003a460       ?ToString@TFancyTranslator@TAutoDWORDEditBox@@UBE?AVCString@@ABKPAUHWND__@@@Z 0043b460 f   UtilLib:MyControls.obj
 0001:0003a4b0       ??0TAutoListBox@@QAE@I_NABUTBaseEnabler@@@Z 0043b4b0 f   UtilLib:MyControls.obj
 0001:0003a500       ??0TAutoListBox@@QAE@IPAVCWnd@@I_NABUTBaseEnabler@@@Z 0043b500 f   UtilLib:MyControls.obj
 0001:0003a550       ?AddString@TAutoListBox@@QAEXPBD@Z 0043b550 f   UtilLib:MyControls.obj
 0001:0003a570       ?AddString@TAutoListBox@@QAEXPBDJ@Z 0043b570 f   UtilLib:MyControls.obj
 0001:0003a5a0       ?FindString@TAutoListBox@@IBEHPBD@Z 0043b5a0 f   UtilLib:MyControls.obj
 0001:0003a6a0       ?FindItem@TAutoListBox@@IBEHJ@Z 0043b6a0 f   UtilLib:MyControls.obj
 0001:0003a710       ?SetControlMsg@TAutoListBox@@IAEXXZ 0043b710 f   UtilLib:MyControls.obj
 0001:0003a7f0       ?GetSelString@TAutoListBox@@QAE_NPAVCString@@@Z 0043b7f0 f   UtilLib:MyControls.obj
 0001:0003a880       ?GetSelItem@TAutoListBox@@QAE_NPAJ@Z 0043b880 f   UtilLib:MyControls.obj
 0001:0003a8d0       ?DataToText@TAutoListBox@@MBE?AVCString@@PBX@Z 0043b8d0 f   UtilLib:MyControls.obj
 0001:0003a900       ?TextToData@TAutoListBox@@MBEPBXPBD@Z 0043b900 f   UtilLib:MyControls.obj
 0001:0003a910       ?DataToItem@TAutoListBox@@MBEJPBX@Z 0043b910 f   UtilLib:MyControls.obj
 0001:0003a920       ?ItemToData@TAutoListBox@@MBEPBXJ@Z 0043b920 f   UtilLib:MyControls.obj
 0001:0003a940       ?InitUI@TAutoListBox@@UAEXXZ 0043b940 f   UtilLib:MyControls.obj
 0001:0003aa40       ?_GetBaseMessageMap@TAutoListBox@@KGPBUAFX_MSGMAP@@XZ 0043ba40 f   UtilLib:MyControls.obj
 0001:0003aa50       ?GetMessageMap@TAutoListBox@@MBEPBUAFX_MSGMAP@@XZ 0043ba50 f   UtilLib:MyControls.obj
 0001:0003aa60       ?OnSelChange@TAutoListBox@@IAEHXZ 0043ba60 f   UtilLib:MyControls.obj
 0001:0003ab20       ??0TAutoIntListBox@@QAE@IPAVCWnd@@PAHABUTBaseEnabler@@@Z 0043bb20 f   UtilLib:MyControls.obj
 0001:0003ab60       ?Changed@TAutoIntListBox@@MBE_NXZ 0043bb60 f   UtilLib:MyControls.obj
 0001:0003ab80       ?GetData@TAutoIntListBox@@MBEPBXXZ 0043bb80 f   UtilLib:MyControls.obj
 0001:0003ab90       ?SetData@TAutoIntListBox@@MAEXPBX@Z 0043bb90 f   UtilLib:MyControls.obj
 0001:0003aba0       ?_GetBaseMessageMap@TAutoIntListBox@@KGPBUAFX_MSGMAP@@XZ 0043bba0 f   UtilLib:MyControls.obj
 0001:0003abb0       ?GetMessageMap@TAutoIntListBox@@MBEPBUAFX_MSGMAP@@XZ 0043bbb0 f   UtilLib:MyControls.obj
 0001:0003abc0       ??0TAutoUnitsListBox@@QAE@PANPAVTAutoEditBox@@PBDIHHABUTBaseEnabler@@@Z 0043bbc0 f   UtilLib:MyControls.obj
 0001:0003ac60       ??0TAutoUnitsListBox@@QAE@HPAVCWnd@@PANPAVTAutoEditBox@@PBDIHHABUTBaseEnabler@@@Z 0043bc60 f   UtilLib:MyControls.obj
 0001:0003ad00       ??1TAutoUnitsListBox@@UAE@XZ 0043bd00 f   UtilLib:MyControls.obj
 0001:0003ad90       ?Changed@TAutoUnitsListBox@@MBE_NXZ 0043bd90 f   UtilLib:MyControls.obj
 0001:0003ada0       ?DataToItem@TAutoUnitsListBox@@MBEJPBX@Z 0043bda0 f   UtilLib:MyControls.obj
 0001:0003ae50       ?ItemToData@TAutoUnitsListBox@@MBEPBXJ@Z 0043be50 f   UtilLib:MyControls.obj
 0001:0003ae80       ?GetData@TAutoUnitsListBox@@MBEPBXXZ 0043be80 f   UtilLib:MyControls.obj
 0001:0003ae90       ?SetData@TAutoUnitsListBox@@MAEXPBX@Z 0043be90 f   UtilLib:MyControls.obj
 0001:0003aeb0       ?LoadListBox@TAutoUnitsListBox@@MAEXXZ 0043beb0 f   UtilLib:MyControls.obj
 0001:0003aef0       ?GetMultiplier@TAutoUnitsListBox@@MBEPBUSMultiplier@@H@Z 0043bef0 f   UtilLib:MyControls.obj
 0001:0003b060       ?_GetBaseMessageMap@TAutoUnitsListBox@@KGPBUAFX_MSGMAP@@XZ 0043c060 f   UtilLib:MyControls.obj
 0001:0003b070       ?GetMessageMap@TAutoUnitsListBox@@MBEPBUAFX_MSGMAP@@XZ 0043c070 f   UtilLib:MyControls.obj
 0001:0003b080       ?OnKillFocus@TAutoUnitsListBox@@IAEXPAVCWnd@@@Z 0043c080 f   UtilLib:MyControls.obj
 0001:0003b0b0       ?OnSelChange@TAutoUnitsListBox@@IAEHXZ 0043c0b0 f   UtilLib:MyControls.obj
 0001:0003b100       ??0TAutoPopoutBitmapSelector@@QAE@PAHIPBI1HHHABUTBaseEnabler@@@Z 0043c100 f   UtilLib:MyControls.obj
 0001:0003b1d0       ??0TAutoPopoutBitmapSelector@@QAE@IPAVCWnd@@PAHIPBI2HHHABUTBaseEnabler@@@Z 0043c1d0 f   UtilLib:MyControls.obj
 0001:0003b2d0       ??1TAutoPopoutBitmapSelector@@UAE@XZ 0043c2d0 f   UtilLib:MyControls.obj
 0001:0003b330       ?PreTranslateMessage@TAutoPopoutBitmapSelector@@EAEHPAUtagMSG@@@Z 0043c330 f   UtilLib:MyControls.obj
 0001:0003b390       ?_GetBaseMessageMap@TAutoPopoutBitmapSelector@@KGPBUAFX_MSGMAP@@XZ 0043c390 f   UtilLib:MyControls.obj
 0001:0003b3a0       ?GetMessageMap@TAutoPopoutBitmapSelector@@MBEPBUAFX_MSGMAP@@XZ 0043c3a0 f   UtilLib:MyControls.obj
 0001:0003b3b0       ?OnBNClicked@TAutoPopoutBitmapSelector@@AAEHXZ 0043c3b0 f   UtilLib:MyControls.obj
 0001:0003b440       ?OnSelectionWindowGone@TAutoPopoutBitmapSelector@@AAEJIJ@Z 0043c440 f   UtilLib:MyControls.obj
 0001:0003b4d0       ?OnKillFocus@TAutoPopoutBitmapSelector@@AAEXPAVCWnd@@@Z 0043c4d0 f   UtilLib:MyControls.obj
 0001:0003b500       ?OnGetDlgCode@TAutoPopoutBitmapSelector@@AAEIXZ 0043c500 f   UtilLib:MyControls.obj
 0001:0003b510       ?OnKeyDown@TAutoPopoutBitmapSelector@@AAEXIII@Z 0043c510 f   UtilLib:MyControls.obj
 0001:0003b5b0       ?DrawItem@TAutoPopoutBitmapSelector@@AAEXPAUtagDRAWITEMSTRUCT@@@Z 0043c5b0 f   UtilLib:MyControls.obj
 0001:0003b5d0       ??0TBitmapButton@@QAE@IABUTBaseEnabler@@@Z 0043c5d0 f   UtilLib:MyControls.obj
 0001:0003b610       ??0TBitmapButton@@QAE@IPAVCWnd@@IABUTBaseEnabler@@@Z 0043c610 f   UtilLib:MyControls.obj
 0001:0003b660       ??1TBitmapButton@@UAE@XZ   0043c660 f   UtilLib:MyControls.obj
 0001:0003b6e0       ?InitUI@TBitmapButton@@UAEXXZ 0043c6e0 f   UtilLib:MyControls.obj
 0001:0003b730       ?Changed@TBitmapButton@@UBE_NXZ 0043c730 f   UtilLib:MyControls.obj
 0001:0003b740       ?SetBitmap@TBitmapButton@@QAEXI@Z 0043c740 f   UtilLib:MyControls.obj
 0001:0003b7b0       ?_GetBaseMessageMap@TBitmapButton@@KGPBUAFX_MSGMAP@@XZ 0043c7b0 f   UtilLib:MyControls.obj
 0001:0003b7c0       ?GetMessageMap@TBitmapButton@@MBEPBUAFX_MSGMAP@@XZ 0043c7c0 f   UtilLib:MyControls.obj
 0001:0003b7d0       ?OnEnable@TBitmapButton@@IAEXH@Z 0043c7d0 f   UtilLib:MyControls.obj
 0001:0003b800       ?OnSetStyle@TBitmapButton@@IAEJIJ@Z 0043c800 f   UtilLib:MyControls.obj
 0001:0003b830       ?OnGetDlgCode@TBitmapButton@@IAEIXZ 0043c830 f   UtilLib:MyControls.obj
 0001:0003b840       ?DrawItem@TBitmapButton@@IAEXPAUtagDRAWITEMSTRUCT@@@Z 0043c840 f   UtilLib:MyControls.obj
 0001:0003ba80       ??0T3DBitmapStatic@@QAE@IPAVCWnd@@I@Z 0043ca80 f   UtilLib:MyControls.obj
 0001:0003bac0       ??0T3DBitmapStatic@@QAE@I@Z 0043cac0 f   UtilLib:MyControls.obj
 0001:0003baf0       ??1T3DBitmapStatic@@UAE@XZ 0043caf0 f   UtilLib:MyControls.obj
 0001:0003bb40       ?InitUI@T3DBitmapStatic@@UAEXXZ 0043cb40 f   UtilLib:MyControls.obj
 0001:0003bb60       ?SetBitmap@T3DBitmapStatic@@UAEXI@Z 0043cb60 f   UtilLib:MyControls.obj
 0001:0003bd40       ?_GetBaseMessageMap@T3DBitmapStatic@@KGPBUAFX_MSGMAP@@XZ 0043cd40 f   UtilLib:MyControls.obj
 0001:0003bd50       ?GetMessageMap@T3DBitmapStatic@@MBEPBUAFX_MSGMAP@@XZ 0043cd50 f   UtilLib:MyControls.obj
 0001:0003bd60       ?OnPaint@T3DBitmapStatic@@IAEXXZ 0043cd60 f   UtilLib:MyControls.obj
 0001:0003bdc0       ?Changed@T3DBitmapStatic@@UBE_NXZ 0043cdc0 f   UtilLib:MyControls.obj
 0001:0003bdd0       ??0TStaticForAutoRadioButton@@QAE@IPAVCWnd@@PAVTAutoRadioButton@@I@Z 0043cdd0 f   UtilLib:MyControls.obj
 0001:0003be10       ??1TStaticForAutoRadioButton@@UAE@XZ 0043ce10 f   UtilLib:MyControls.obj
 0001:0003be40       ?InitUI@TStaticForAutoRadioButton@@UAEXXZ 0043ce40 f   UtilLib:MyControls.obj
 0001:0003be70       ?BuildBitmap@TStaticForAutoRadioButton@@IAEXXZ 0043ce70 f   UtilLib:MyControls.obj
 0001:0003c0a0       ?DrawOnBitmap@TStaticForAutoRadioButton@@MAEXPAUHDC__@@@Z 0043d0a0 f   UtilLib:MyControls.obj
 0001:0003c0b0       ?Changed@TStaticForAutoRadioButton@@UBE_NXZ 0043d0b0 f   UtilLib:MyControls.obj
 0001:0003c0c0       ?PointOnUs@TStaticForAutoRadioButton@@IAE_NVCPoint@@@Z 0043d0c0 f   UtilLib:MyControls.obj
 0001:0003c150       ?_GetBaseMessageMap@TStaticForAutoRadioButton@@KGPBUAFX_MSGMAP@@XZ 0043d150 f   UtilLib:MyControls.obj
 0001:0003c160       ?GetMessageMap@TStaticForAutoRadioButton@@MBEPBUAFX_MSGMAP@@XZ 0043d160 f   UtilLib:MyControls.obj
 0001:0003c170       ?OnPaint@TStaticForAutoRadioButton@@IAEXXZ 0043d170 f   UtilLib:MyControls.obj
 0001:0003c210       ?OnLButtonDown@TStaticForAutoRadioButton@@IAEXIVCPoint@@@Z 0043d210 f   UtilLib:MyControls.obj
 0001:0003c270       ?OnLButtonUp@TStaticForAutoRadioButton@@IAEXIVCPoint@@@Z 0043d270 f   UtilLib:MyControls.obj
 0001:0003c3d0       ?OnMouseMove@TStaticForAutoRadioButton@@IAEXIVCPoint@@@Z 0043d3d0 f   UtilLib:MyControls.obj
 0001:0003c430       ?OnNcHitTest@TStaticForAutoRadioButton@@IAEIVCPoint@@@Z 0043d430 f   UtilLib:MyControls.obj
 0001:0003c440       ??0TFancyStatic@@QAE@IPAVCWnd@@PAVTAutoRadioButton@@@Z 0043d440 f   UtilLib:MyControls.obj
 0001:0003c4b0       ??1TFancyStatic@@UAE@XZ    0043d4b0 f   UtilLib:MyControls.obj
 0001:0003c540       ?ClearList@TFancyStatic@@IAEXXZ 0043d540 f   UtilLib:MyControls.obj
 0001:0003c5b0       ?GetTextPixelWidth@TFancyStatic@@QBEHXZ 0043d5b0 f   UtilLib:MyControls.obj
 0001:0003c6a0       ?DrawOnBitmap@TFancyStatic@@MAEXPAUHDC__@@@Z 0043d6a0 f   UtilLib:MyControls.obj
 0001:0003c9b0       ?_GetBaseMessageMap@TFancyStatic@@KGPBUAFX_MSGMAP@@XZ 0043d9b0 f   UtilLib:MyControls.obj
 0001:0003c9c0       ?GetMessageMap@TFancyStatic@@MBEPBUAFX_MSGMAP@@XZ 0043d9c0 f   UtilLib:MyControls.obj
 0001:0003c9d0       ?OnPaint@TFancyStatic@@IAEXXZ 0043d9d0 f   UtilLib:MyControls.obj
 0001:0003cac0       ??0TMyDialogExtraStuff@@IAE@XZ 0043dac0 f   UtilLib:MyControls.obj
 0001:0003cae0       ??1TMyDialogExtraStuff@@IAE@XZ 0043dae0 f   UtilLib:MyControls.obj
 0001:0003cb50       ?DestroySubDialogs@TMyDialogExtraStuff@@AAEXXZ 0043db50 f   UtilLib:MyControls.obj
 0001:0003cbc0       ?AddSubDialogs@TMyDialogExtraStuff@@IAEXPAVCWnd@@PBV?$TList@PAVCWnd@@@@HPBUtagRECT@@@Z 0043dbc0 f   UtilLib:MyControls.obj
 0001:0003cc70       ?AppendSubDialogToBottom@TMyDialogExtraStuff@@IAEXPAVCWnd@@0@Z 0043dc70 f   UtilLib:MyControls.obj
 0001:0003cca0       ?AddEditBox@TMyDialogExtraStuff@@IAEXPAVTAutoEditBox@@@Z 0043dca0 f   UtilLib:MyControls.obj
 0001:0003ccc0       ?ForceEditBoxSync@TMyDialogExtraStuff@@IAEXXZ 0043dcc0 f   UtilLib:MyControls.obj
 0001:0003ccf0       ?UpdateSubDialogsData@TMyDialogExtraStuff@@IAEXXZ 0043dcf0 f   UtilLib:MyControls.obj
 0001:0003cd20       ?CreateSubDialogs@TMyDialogExtraStuff@@IAEXPAVCWnd@@@Z 0043dd20 f   UtilLib:MyControls.obj
 0001:0003cf30       ?CreateBottomSubDialog@TMyDialogExtraStuff@@IAEXPAVCWnd@@@Z 0043df30 f   UtilLib:MyControls.obj
 0001:0003d020       ?MyBetterOnToolHitTest@TMyDialogExtraStuff@@IBEHPBVCWnd@@VCPoint@@PAUtagTOOLINFOA@@@Z 0043e020 f   UtilLib:MyControls.obj
 0001:0003d150       ?ExtraStuffOnToolTipNeedText@TMyDialogExtraStuff@@IAEXPAUtagNMHDR@@PAJ@Z 0043e150 f   UtilLib:MyControls.obj
 0001:0003d1f0       ??0TMyDialog@@QAE@IPAVCWnd@@@Z 0043e1f0 f   UtilLib:MyControls.obj
 0001:0003d260       ??0TMyDialog@@QAE@XZ       0043e260 f   UtilLib:MyControls.obj
 0001:0003d2d0       ?SetResourceID@TMyDialog@@QAEXH@Z 0043e2d0 f   UtilLib:MyControls.obj
 0001:0003d2f0       ?DoModeless@TMyDialog@@UAEXPAVCWnd@@@Z 0043e2f0 f   UtilLib:MyControls.obj
 0001:0003d310       ?DoDataExchange@TMyDialog@@MAEXPAVCDataExchange@@@Z 0043e310 f   UtilLib:MyControls.obj
 0001:0003d330       ?OnInitDialog@TMyDialog@@MAEHXZ 0043e330 f   UtilLib:MyControls.obj
 0001:0003d350       ?PostNcDestroy@TMyDialog@@MAEXXZ 0043e350 f   UtilLib:MyControls.obj
 0001:0003d370       ?InitUI@TMyDialog@@UAEXXZ  0043e370 f   UtilLib:MyControls.obj
 0001:0003d390       ?OnToolHitTest@TMyDialog@@MBEHVCPoint@@PAUtagTOOLINFOA@@@Z 0043e390 f   UtilLib:MyControls.obj
 0001:0003d3b0       ?_GetBaseMessageMap@TMyDialog@@KGPBUAFX_MSGMAP@@XZ 0043e3b0 f   UtilLib:MyControls.obj
 0001:0003d3c0       ?GetMessageMap@TMyDialog@@MBEPBUAFX_MSGMAP@@XZ 0043e3c0 f   UtilLib:MyControls.obj
 0001:0003d3d0       ?OnAddEditBox@TMyDialog@@AAEJIJ@Z 0043e3d0 f   UtilLib:MyControls.obj
 0001:0003d3f0       ?OnInitUI@TMyDialog@@AAEJIJ@Z 0043e3f0 f   UtilLib:MyControls.obj
 0001:0003d400       ?OnAutoControlLoosingFocus@TMyDialog@@IAEJIJ@Z 0043e400 f   UtilLib:MyControls.obj
 0001:0003d430       ?OnDialogEvent@TMyDialog@@IAEJIJ@Z 0043e430 f   UtilLib:MyControls.obj
 0001:0003d450       ?OnCancel@TMyDialog@@MAEXXZ 0043e450 f   UtilLib:MyControls.obj
 0001:0003d460       ?OnOK@TMyDialog@@MAEXXZ    0043e460 f   UtilLib:MyControls.obj
 0001:0003d470       ?OnToolTipNeedText@TMyDialog@@IAEXPAUtagNMHDR@@PAJ@Z 0043e470 f   UtilLib:MyControls.obj
 0001:0003d490       ??0TMyPropertyPage@@QAE@II@Z 0043e490 f   UtilLib:MyControls.obj
 0001:0003d500       ?DoDataExchange@TMyPropertyPage@@MAEXPAVCDataExchange@@@Z 0043e500 f   UtilLib:MyControls.obj
 0001:0003d530       ?OnInitDialog@TMyPropertyPage@@MAEHXZ 0043e530 f   UtilLib:MyControls.obj
 0001:0003d550       ?InitUI@TMyPropertyPage@@UAEXXZ 0043e550 f   UtilLib:MyControls.obj
 0001:0003d570       ?OnToolHitTest@TMyPropertyPage@@MBEHVCPoint@@PAUtagTOOLINFOA@@@Z 0043e570 f   UtilLib:MyControls.obj
 0001:0003d590       ?_GetBaseMessageMap@TMyPropertyPage@@KGPBUAFX_MSGMAP@@XZ 0043e590 f   UtilLib:MyControls.obj
 0001:0003d5a0       ?GetMessageMap@TMyPropertyPage@@MBEPBUAFX_MSGMAP@@XZ 0043e5a0 f   UtilLib:MyControls.obj
 0001:0003d5b0       ?OnAddEditBox@TMyPropertyPage@@AAEJIJ@Z 0043e5b0 f   UtilLib:MyControls.obj
 0001:0003d5d0       ?OnInitUI@TMyPropertyPage@@AAEJIJ@Z 0043e5d0 f   UtilLib:MyControls.obj
 0001:0003d5e0       ?OnAutoControlLoosingFocus@TMyPropertyPage@@IAEJIJ@Z 0043e5e0 f   UtilLib:MyControls.obj
 0001:0003d610       ?OnDialogEvent@TMyPropertyPage@@IAEJIJ@Z 0043e610 f   UtilLib:MyControls.obj
 0001:0003d630       ?OnToolTipNeedText@TMyPropertyPage@@IAEXPAUtagNMHDR@@PAJ@Z 0043e630 f   UtilLib:MyControls.obj
 0001:0003d650       ??0TAutoPopoutBitmapSelectorWindow@@QAE@PAVTAutoPopoutBitmapSelector@@@Z 0043e650 f   UtilLib:MyControls.obj
 0001:0003d850       ??1TAutoPopoutBitmapSelectorWindow@@UAE@XZ 0043e850 f   UtilLib:MyControls.obj
 0001:0003d8b0       ?PostNcDestroy@TAutoPopoutBitmapSelectorWindow@@EAEXXZ 0043e8b0 f   UtilLib:MyControls.obj
 0001:0003d8c0       ?_GetBaseMessageMap@TAutoPopoutBitmapSelectorWindow@@KGPBUAFX_MSGMAP@@XZ 0043e8c0 f   UtilLib:MyControls.obj
 0001:0003d8d0       ?GetMessageMap@TAutoPopoutBitmapSelectorWindow@@MBEPBUAFX_MSGMAP@@XZ 0043e8d0 f   UtilLib:MyControls.obj
 0001:0003d8e0       ?OnNcDestroy@TAutoPopoutBitmapSelectorWindow@@AAEXXZ 0043e8e0 f   UtilLib:MyControls.obj
 0001:0003d930       ?OnKeyDown@TAutoPopoutBitmapSelectorWindow@@AAEXIII@Z 0043e930 f   UtilLib:MyControls.obj
 0001:0003d9c0       ?OnLButtonUp@TAutoPopoutBitmapSelectorWindow@@AAEXIVCPoint@@@Z 0043e9c0 f   UtilLib:MyControls.obj
 0001:0003d9f0       ?OnMouseMove@TAutoPopoutBitmapSelectorWindow@@AAEXIVCPoint@@@Z 0043e9f0 f   UtilLib:MyControls.obj
 0001:0003da90       ?OnCaptureChanged@TAutoPopoutBitmapSelectorWindow@@AAEXPAVCWnd@@@Z 0043ea90 f   UtilLib:MyControls.obj
 0001:0003dac0       ?OnPaint@TAutoPopoutBitmapSelectorWindow@@AAEXXZ 0043eac0 f   UtilLib:MyControls.obj
 0001:0003dd20       ??1TDftEnabler@TAutoControlBase@@UAE@XZ 0043ed20 f i UtilLib:MyControls.obj
 0001:0003dd30       ?GetDisabledText@TBaseEnabler@@UBE?AVCString@@XZ 0043ed30 f i UtilLib:MyControls.obj
 0001:0003dd60       ??_GTBaseEnabler@@UAEPAXI@Z 0043ed60 f i UtilLib:MyControls.obj
 0001:0003dd60       ??_ETBaseEnabler@@UAEPAXI@Z 0043ed60 f i UtilLib:MyControls.obj
 0001:0003dd80       ??0TDftEnabler@TAutoControlBase@@QAE@XZ 0043ed80 f i UtilLib:MyControls.obj
 0001:0003dd90       ?ShouldBeEnabled@TDftEnabler@TAutoControlBase@@UBE?AW4TEnableCode@TBaseEnabler@@XZ 0043ed90 f i UtilLib:MyControls.obj
 0001:0003dda0       ?Dup@TDftEnabler@TAutoControlBase@@UBEPAUTBaseEnabler@@XZ 0043eda0 f i UtilLib:MyControls.obj
 0001:0003ddc0       ??_ETDftEnabler@TAutoControlBase@@UAEPAXI@Z 0043edc0 f i UtilLib:MyControls.obj
 0001:0003ddc0       ??_GTDftEnabler@TAutoControlBase@@UAEPAXI@Z 0043edc0 f i UtilLib:MyControls.obj
 0001:0003dde0       ??1TBaseEnabler@@UAE@XZ    0043ede0 f i UtilLib:MyControls.obj
 0001:0003ddf0       ?ShouldBeEnabled@TEnabler@@UBE?AW4TEnableCode@TBaseEnabler@@XZ 0043edf0 f i UtilLib:MyControls.obj
 0001:0003de00       ?Dup@TEnabler@@UBEPAUTBaseEnabler@@XZ 0043ee00 f i UtilLib:MyControls.obj
 0001:0003de70       ?GetDisabledText@TEnabler@@UBE?AVCString@@XZ 0043ee70 f i UtilLib:MyControls.obj
 0001:0003de90       ??_GTEnabler@@UAEPAXI@Z    0043ee90 f i UtilLib:MyControls.obj
 0001:0003de90       ??_ETEnabler@@UAEPAXI@Z    0043ee90 f i UtilLib:MyControls.obj
 0001:0003deb0       ??1TEnabler@@UAE@XZ        0043eeb0 f i UtilLib:MyControls.obj
 0001:0003df00       ??_GTAutoControlBase@@UAEPAXI@Z 0043ef00 f i UtilLib:MyControls.obj
 0001:0003df00       ??_ETAutoControlBase@@UAEPAXI@Z 0043ef00 f i UtilLib:MyControls.obj
 0001:0003df20       ??_GTAutoRadioButton@@UAEPAXI@Z 0043ef20 f i UtilLib:MyControls.obj
 0001:0003df20       ??_ETAutoRadioButton@@UAEPAXI@Z 0043ef20 f i UtilLib:MyControls.obj
 0001:0003df40       ??1TAutoRadioButton@@UAE@XZ 0043ef40 f i UtilLib:MyControls.obj
 0001:0003df50       ??_GTAutoRadioButtonWithBitmap@@UAEPAXI@Z 0043ef50 f i UtilLib:MyControls.obj
 0001:0003df50       ??_ETAutoRadioButtonWithBitmap@@UAEPAXI@Z 0043ef50 f i UtilLib:MyControls.obj
 0001:0003df70       ??1TAutoRadioButtonWithBitmap@@UAE@XZ 0043ef70 f i UtilLib:MyControls.obj
 0001:0003df80       ??_GTAutoCheckBox@@UAEPAXI@Z 0043ef80 f i UtilLib:MyControls.obj
 0001:0003df80       ??_ETAutoCheckBox@@UAEPAXI@Z 0043ef80 f i UtilLib:MyControls.obj
 0001:0003dfa0       ??1TAutoCheckBox@@UAE@XZ   0043efa0 f i UtilLib:MyControls.obj
 0001:0003dfb0       ??_GTAutoboolCheckBox@@UAEPAXI@Z 0043efb0 f i UtilLib:MyControls.obj
 0001:0003dfb0       ??_ETAutoboolCheckBox@@UAEPAXI@Z 0043efb0 f i UtilLib:MyControls.obj
 0001:0003dfd0       ??1TAutoboolCheckBox@@UAE@XZ 0043efd0 f i UtilLib:MyControls.obj
 0001:0003dfe0       ??_ETAutoBOOLCheckBox@@UAEPAXI@Z 0043efe0 f i UtilLib:MyControls.obj
 0001:0003dfe0       ??_GTAutoBOOLCheckBox@@UAEPAXI@Z 0043efe0 f i UtilLib:MyControls.obj
 0001:0003e000       ??1TAutoBOOLCheckBox@@UAE@XZ 0043f000 f i UtilLib:MyControls.obj
 0001:0003e010       ??0TDftEnabler@TAutoEditBox@@QAE@XZ 0043f010 f i UtilLib:MyControls.obj
 0001:0003e020       ?GetDisabledText@TDftEnabler@TAutoEditBox@@UBE?AVCString@@XZ 0043f020 f i UtilLib:MyControls.obj
 0001:0003e050       ?ShouldBeEnabled@TDftEnabler@TAutoEditBox@@UBE?AW4TEnableCode@TBaseEnabler@@XZ 0043f050 f i UtilLib:MyControls.obj
 0001:0003e060       ?Dup@TDftEnabler@TAutoEditBox@@UBEPAUTBaseEnabler@@XZ 0043f060 f i UtilLib:MyControls.obj
 0001:0003e080       ??_ETDftEnabler@TAutoEditBox@@UAEPAXI@Z 0043f080 f i UtilLib:MyControls.obj
 0001:0003e080       ??_GTDftEnabler@TAutoEditBox@@UAEPAXI@Z 0043f080 f i UtilLib:MyControls.obj
 0001:0003e0a0       ??1TDftEnabler@TAutoEditBox@@UAE@XZ 0043f0a0 f i UtilLib:MyControls.obj
 0001:0003e0b0       ??_ETAutoEditBox@@UAEPAXI@Z 0043f0b0 f i UtilLib:MyControls.obj
 0001:0003e0b0       ??_GTAutoEditBox@@UAEPAXI@Z 0043f0b0 f i UtilLib:MyControls.obj
 0001:0003e0d0       ??1TAutoEditBox@@UAE@XZ    0043f0d0 f i UtilLib:MyControls.obj
 0001:0003e120       ??1TDftTranslator@TAutoMemoEditBox@@UAE@XZ 0043f120 f i UtilLib:MyControls.obj
 0001:0003e130       ??_E?$TEditBoxTextTranslatorTmplt@VCString@@@@UAEPAXI@Z 0043f130 f i UtilLib:MyControls.obj
 0001:0003e130       ??_G?$TEditBoxTextTranslatorTmplt@VCString@@@@UAEPAXI@Z 0043f130 f i UtilLib:MyControls.obj
 0001:0003e150       ??0TDftTranslator@TAutoMemoEditBox@@QAE@XZ 0043f150 f i UtilLib:MyControls.obj
 0001:0003e160       ?Dup@TDftTranslator@TAutoMemoEditBox@@UBEPAU?$TEditBoxTextTranslatorTmplt@VCString@@@@XZ 0043f160 f i UtilLib:MyControls.obj
 0001:0003e180       ??_ETDftTranslator@TAutoMemoEditBox@@UAEPAXI@Z 0043f180 f i UtilLib:MyControls.obj
 0001:0003e180       ??_GTDftTranslator@TAutoMemoEditBox@@UAEPAXI@Z 0043f180 f i UtilLib:MyControls.obj
 0001:0003e1a0       ??1TDftTranslator@TAutoDoubleEditBox@@UAE@XZ 0043f1a0 f i UtilLib:MyControls.obj
 0001:0003e1b0       ??_G?$TEditBoxTextTranslatorTmplt@N@@UAEPAXI@Z 0043f1b0 f i UtilLib:MyControls.obj
 0001:0003e1b0       ??_E?$TEditBoxTextTranslatorTmplt@N@@UAEPAXI@Z 0043f1b0 f i UtilLib:MyControls.obj
 0001:0003e1d0       ??0TDftTranslator@TAutoDoubleEditBox@@QAE@XZ 0043f1d0 f i UtilLib:MyControls.obj
 0001:0003e1e0       ?Dup@TDftTranslator@TAutoDoubleEditBox@@UBEPAU?$TEditBoxTextTranslatorTmplt@N@@XZ 0043f1e0 f i UtilLib:MyControls.obj
 0001:0003e200       ??_GTDftTranslator@TAutoDoubleEditBox@@UAEPAXI@Z 0043f200 f i UtilLib:MyControls.obj
 0001:0003e200       ??_ETDftTranslator@TAutoDoubleEditBox@@UAEPAXI@Z 0043f200 f i UtilLib:MyControls.obj
 0001:0003e220       ??0TDftTranslator@TAutoDWORDEditBox@@QAE@XZ 0043f220 f i UtilLib:MyControls.obj
 0001:0003e230       ?Dup@TDftTranslator@TAutoDWORDEditBox@@UBEPAU?$TEditBoxTextTranslatorTmplt@K@@XZ 0043f230 f i UtilLib:MyControls.obj
 0001:0003e250       ??_GTDftTranslator@TAutoDWORDEditBox@@UAEPAXI@Z 0043f250 f i UtilLib:MyControls.obj
 0001:0003e250       ??_ETDftTranslator@TAutoDWORDEditBox@@UAEPAXI@Z 0043f250 f i UtilLib:MyControls.obj
 0001:0003e270       ??1TDftTranslator@TAutoDWORDEditBox@@UAE@XZ 0043f270 f i UtilLib:MyControls.obj
 0001:0003e280       ??_E?$TEditBoxTextTranslatorTmplt@K@@UAEPAXI@Z 0043f280 f i UtilLib:MyControls.obj
 0001:0003e280       ??_G?$TEditBoxTextTranslatorTmplt@K@@UAEPAXI@Z 0043f280 f i UtilLib:MyControls.obj
 0001:0003e2a0       ??_ETAutoListBox@@UAEPAXI@Z 0043f2a0 f i UtilLib:MyControls.obj
 0001:0003e2a0       ??_GTAutoListBox@@UAEPAXI@Z 0043f2a0 f i UtilLib:MyControls.obj
 0001:0003e2c0       ??1TAutoListBox@@UAE@XZ    0043f2c0 f i UtilLib:MyControls.obj
 0001:0003e2d0       ??_GTAutoIntListBox@@UAEPAXI@Z 0043f2d0 f i UtilLib:MyControls.obj
 0001:0003e2d0       ??_ETAutoIntListBox@@UAEPAXI@Z 0043f2d0 f i UtilLib:MyControls.obj
 0001:0003e2f0       ??1TAutoIntListBox@@UAE@XZ 0043f2f0 f i UtilLib:MyControls.obj
 0001:0003e300       ??_GTAutoUnitsListBox@@UAEPAXI@Z 0043f300 f i UtilLib:MyControls.obj
 0001:0003e300       ??_ETAutoUnitsListBox@@UAEPAXI@Z 0043f300 f i UtilLib:MyControls.obj
 0001:0003e320       ??_GTAutoPopoutBitmapSelector@@UAEPAXI@Z 0043f320 f i UtilLib:MyControls.obj
 0001:0003e320       ??_ETAutoPopoutBitmapSelector@@UAEPAXI@Z 0043f320 f i UtilLib:MyControls.obj
 0001:0003e340       ??_GTBitmapButton@@UAEPAXI@Z 0043f340 f i UtilLib:MyControls.obj
 0001:0003e340       ??_ETBitmapButton@@UAEPAXI@Z 0043f340 f i UtilLib:MyControls.obj
 0001:0003e360       ??_ET3DBitmapStatic@@UAEPAXI@Z 0043f360 f i UtilLib:MyControls.obj
 0001:0003e360       ??_GT3DBitmapStatic@@UAEPAXI@Z 0043f360 f i UtilLib:MyControls.obj
 0001:0003e380       ??_ETStaticForAutoRadioButton@@UAEPAXI@Z 0043f380 f i UtilLib:MyControls.obj
 0001:0003e380       ??_GTStaticForAutoRadioButton@@UAEPAXI@Z 0043f380 f i UtilLib:MyControls.obj
 0001:0003e3a0       ??_GTFancyStatic@@UAEPAXI@Z 0043f3a0 f i UtilLib:MyControls.obj
 0001:0003e3a0       ??_ETFancyStatic@@UAEPAXI@Z 0043f3a0 f i UtilLib:MyControls.obj
 0001:0003e3c0       ??1TTextPiece@TFancyStatic@@QAE@XZ 0043f3c0 f i UtilLib:MyControls.obj
 0001:0003e3d0       ??_GTMyDialog@@UAEPAXI@Z   0043f3d0 f i UtilLib:MyControls.obj
 0001:0003e3d0       ??_ETMyDialog@@UAEPAXI@Z   0043f3d0 f i UtilLib:MyControls.obj
 0001:0003e3f0       ??1TMyDialog@@UAE@XZ       0043f3f0 f i UtilLib:MyControls.obj
 0001:0003e460       ??_GTMyPropertyPage@@UAEPAXI@Z 0043f460 f i UtilLib:MyControls.obj
 0001:0003e460       ??_ETMyPropertyPage@@UAEPAXI@Z 0043f460 f i UtilLib:MyControls.obj
 0001:0003e480       ??1TMyPropertyPage@@UAE@XZ 0043f480 f i UtilLib:MyControls.obj
 0001:0003e4f0       ??0CBitmap@@QAE@XZ         0043f4f0 f i UtilLib:MyControls.obj
 0001:0003e500       ??_ETAutoPopoutBitmapSelectorWindow@@UAEPAXI@Z 0043f500 f i UtilLib:MyControls.obj
 0001:0003e500       ??_GTAutoPopoutBitmapSelectorWindow@@UAEPAXI@Z 0043f500 f i UtilLib:MyControls.obj
 0001:0003e520       ??_ECBitmap@@UAEPAXI@Z     0043f520 f i UtilLib:MyControls.obj
 0001:0003e580       ?IsValidChar@?$TEditBoxTextTranslatorTmplt@VCString@@@@UBE_ND@Z 0043f580 f i UtilLib:MyControls.obj
 0001:0003e590       ?IsValidChar@?$TEditBoxTextTranslatorTmplt@N@@UBE_ND@Z 0043f590 f i UtilLib:MyControls.obj
 0001:0003e5a0       ?IsValidChar@?$TEditBoxTextTranslatorTmplt@K@@UBE_ND@Z 0043f5a0 f i UtilLib:MyControls.obj
 0001:0003e5b0       ??1?$TList@PAUTTextPiece@TFancyStatic@@@@QAE@XZ 0043f5b0 f i UtilLib:MyControls.obj
 0001:0003e5f0       ??1?$TList@PAVCWnd@@@@QAE@XZ 0043f5f0 f i UtilLib:MyControls.obj
 0001:0003e630       ?AddTail@?$TList@PAVCWnd@@@@QAEPAU__POSITION@@ABQAVCWnd@@@Z 0043f630 f i UtilLib:MyControls.obj
 0001:0003e690       ?_GetBaseMessageMap@?$TAutoEditBoxTmplt@VCString@@@@KGPBUAFX_MSGMAP@@XZ 0043f690 f i UtilLib:MyControls.obj
 0001:0003e6a0       ?_GetBaseMessageMap@?$TAutoEditBoxTmplt@K@@KGPBUAFX_MSGMAP@@XZ 0043f6a0 f i UtilLib:MyControls.obj
 0001:0003e6b0       ?OnChar@?$TAutoEditBoxTmplt@VCString@@@@IAEXIII@Z 0043f6b0 f i UtilLib:MyControls.obj
 0001:0003e6d0       ?OnChar@?$TAutoEditBoxTmplt@K@@IAEXIII@Z 0043f6d0 f i UtilLib:MyControls.obj
 0001:0003e720       ??0TNotifier@@QAE@J@Z      0043f720 f   UtilLib:Notifier.obj
 0001:0003e7d0       ??1TNotifier@@UAE@XZ       0043f7d0 f   UtilLib:Notifier.obj
 0001:0003e860       ?Notify@TNotifier@@QAEXPAUHWND__@@@Z 0043f860 f   UtilLib:Notifier.obj
 0001:0003e880       ?Notify@TNotifier@@QAEXPAUHWND__@@I@Z 0043f880 f   UtilLib:Notifier.obj
 0001:0003e8c0       ?UnNotify@TNotifier@@QAEXPAUHWND__@@@Z 0043f8c0 f   UtilLib:Notifier.obj
 0001:0003e900       ?GetNotificationTargetCount@TNotifier@@QBEHXZ 0043f900 f   UtilLib:Notifier.obj
 0001:0003e910       ?DeclareEvent@TNotifier@@QAEXK@Z 0043f910 f   UtilLib:Notifier.obj
 0001:0003e970       ?DeferDeclareEvent@TNotifier@@QAEXK@Z 0043f970 f   UtilLib:Notifier.obj
 0001:0003e9a0       ?NotifyWindows@TNotifier@@IAEXXZ 0043f9a0 f   UtilLib:Notifier.obj
 0001:0003ea20       ?_GetBaseMessageMap@TNotifier@@KGPBUAFX_MSGMAP@@XZ 0043fa20 f   UtilLib:Notifier.obj
 0001:0003ea30       ?GetMessageMap@TNotifier@@MBEPBUAFX_MSGMAP@@XZ 0043fa30 f   UtilLib:Notifier.obj
 0001:0003ea40       ?OnSync@TNotifier@@IAEJIJ@Z 0043fa40 f   UtilLib:Notifier.obj
 0001:0003ea50       ??_GTNotifier@@UAEPAXI@Z   0043fa50 f i UtilLib:Notifier.obj
 0001:0003ea50       ??_ETNotifier@@UAEPAXI@Z   0043fa50 f i UtilLib:Notifier.obj
 0001:0003ea70       ??1?$CTypedPtrList@VCPtrList@@PAVTNotifierListNode@@@@UAE@XZ 0043fa70 f i UtilLib:Notifier.obj
 0001:0003ea80       ??_G?$CTypedPtrList@VCPtrList@@PAVTNotifierListNode@@@@UAEPAXI@Z 0043fa80 f i UtilLib:Notifier.obj
 0001:0003ea80       ??_E?$CTypedPtrList@VCPtrList@@PAVTNotifierListNode@@@@UAEPAXI@Z 0043fa80 f i UtilLib:Notifier.obj
 0001:0003eaa0       ?PreInitDialog@CDialog@@MAEXXZ 0043faa0 f   mfc42d:MFC42D.DLL
 0001:0003eaa6       ?OnSetFont@CDialog@@UAEXPAVCFont@@@Z 0043faa6 f   mfc42d:MFC42D.DLL
 0001:0003eaac       ?DoModal@CDialog@@UAEHXZ   0043faac f   mfc42d:MFC42D.DLL
 0001:0003eab2       ?SetOccDialogInfo@CDialog@@MAEHPAU_AFX_OCC_DIALOG_INFO@@@Z 0043fab2 f   mfc42d:MFC42D.DLL
 0001:0003eab8       ?IsFrameWnd@CWnd@@UBEHXZ   0043fab8 f   mfc42d:MFC42D.DLL
 0001:0003eabe       ?CheckAutoCenter@CDialog@@UAEHXZ 0043fabe f   mfc42d:MFC42D.DLL
 0001:0003eac4       ?OnChildNotify@CWnd@@MAEHIIJPAJ@Z 0043fac4 f   mfc42d:MFC42D.DLL
 0001:0003eaca       ?PostNcDestroy@CWnd@@MAEXXZ 0043faca f   mfc42d:MFC42D.DLL
 0001:0003ead0       ?DefWindowProcA@CWnd@@MAEJIIJ@Z 0043fad0 f   mfc42d:MFC42D.DLL
 0001:0003ead6       ?OnWndMsg@CWnd@@MAEHIIJPAJ@Z 0043fad6 f   mfc42d:MFC42D.DLL
 0001:0003eadc       ?WindowProc@CWnd@@MAEJIIJ@Z 0043fadc f   mfc42d:MFC42D.DLL
 0001:0003eae2       ?OnAmbientProperty@CWnd@@UAEHPAVCOleControlSite@@JPAUtagVARIANT@@@Z 0043fae2 f   mfc42d:MFC42D.DLL
 0001:0003eae8       ?PreTranslateMessage@CDialog@@UAEHPAUtagMSG@@@Z 0043fae8 f   mfc42d:MFC42D.DLL
 0001:0003eaee       ?GetSuperWndProcAddr@CWnd@@MAEPAP6GJPAUHWND__@@IIJ@ZXZ 0043faee f   mfc42d:MFC42D.DLL
 0001:0003eaf4       ?OnNotify@CWnd@@MAEHIJPAJ@Z 0043faf4 f   mfc42d:MFC42D.DLL
 0001:0003eafa       ?OnCommand@CWnd@@MAEHIJ@Z  0043fafa f   mfc42d:MFC42D.DLL
 0001:0003eb00       ?EndModalLoop@CWnd@@UAEXH@Z 0043fb00 f   mfc42d:MFC42D.DLL
 0001:0003eb06       ?ContinueModal@CWnd@@UAEHXZ 0043fb06 f   mfc42d:MFC42D.DLL
 0001:0003eb0c       ?WinHelpA@CWnd@@UAEXKI@Z   0043fb0c f   mfc42d:MFC42D.DLL
 0001:0003eb12       ?GetScrollBarCtrl@CWnd@@UBEPAVCScrollBar@@H@Z 0043fb12 f   mfc42d:MFC42D.DLL
 0001:0003eb18       ?OnToolHitTest@CWnd@@UBEHVCPoint@@PAUtagTOOLINFOA@@@Z 0043fb18 f   mfc42d:MFC42D.DLL
 0001:0003eb1e       ?CalcWindowRect@CWnd@@UAEXPAUtagRECT@@I@Z 0043fb1e f   mfc42d:MFC42D.DLL
 0001:0003eb24       ?PreCreateWindow@CWnd@@UAEHAAUtagCREATESTRUCTA@@@Z 0043fb24 f   mfc42d:MFC42D.DLL
 0001:0003eb2a       ?Create@CWnd@@UAEHPBD0KABUtagRECT@@PAV1@IPAUCCreateContext@@@Z 0043fb2a f   mfc42d:MFC42D.DLL
 0001:0003eb30       ?PreSubclassWindow@CWnd@@UAEXXZ 0043fb30 f   mfc42d:MFC42D.DLL
 0001:0003eb36       ?GetConnectionHook@CCmdTarget@@MAEPAUIConnectionPoint@@ABU_GUID@@@Z 0043fb36 f   mfc42d:MFC42D.DLL
 0001:0003eb3c       ?GetExtraConnectionPoints@CCmdTarget@@MAEHPAVCPtrArray@@@Z 0043fb3c f   mfc42d:MFC42D.DLL
 0001:0003eb42       ?GetInterfaceHook@CCmdTarget@@UAEPAUIUnknown@@PBX@Z 0043fb42 f   mfc42d:MFC42D.DLL
 0001:0003eb48       ?OnCreateAggregates@CCmdTarget@@UAEHXZ 0043fb48 f   mfc42d:MFC42D.DLL
 0001:0003eb4e       ?GetEventSinkMap@CCmdTarget@@MBEPBUAFX_EVENTSINKMAP@@XZ 0043fb4e f   mfc42d:MFC42D.DLL
 0001:0003eb54       ?GetInterfaceMap@CCmdTarget@@MBEPBUAFX_INTERFACEMAP@@XZ 0043fb54 f   mfc42d:MFC42D.DLL
 0001:0003eb5a       ?GetConnectionMap@CCmdTarget@@MBEPBUAFX_CONNECTIONMAP@@XZ 0043fb5a f   mfc42d:MFC42D.DLL
 0001:0003eb60       ?GetDispatchMap@CCmdTarget@@MBEPBUAFX_DISPMAP@@XZ 0043fb60 f   mfc42d:MFC42D.DLL
 0001:0003eb66       ?GetCommandMap@CCmdTarget@@MBEPBUAFX_OLECMDMAP@@XZ 0043fb66 f   mfc42d:MFC42D.DLL
 0001:0003eb6c       ?GetTypeLib@CCmdTarget@@UAEJKPAPAUITypeLib@@@Z 0043fb6c f   mfc42d:MFC42D.DLL
 0001:0003eb72       ?GetTypeLibCache@CCmdTarget@@UAEPAVCTypeLibCache@@XZ 0043fb72 f   mfc42d:MFC42D.DLL
 0001:0003eb78       ?GetTypeInfoCount@CCmdTarget@@UAEIXZ 0043fb78 f   mfc42d:MFC42D.DLL
 0001:0003eb7e       ?GetDispatchIID@CCmdTarget@@UAEHPAU_GUID@@@Z 0043fb7e f   mfc42d:MFC42D.DLL
 0001:0003eb84       ?IsInvokeAllowed@CCmdTarget@@UAEHJ@Z 0043fb84 f   mfc42d:MFC42D.DLL
 0001:0003eb8a       ?OnFinalRelease@CWnd@@UAEXXZ 0043fb8a f   mfc42d:MFC42D.DLL
 0001:0003eb90       ?OnCmdMsg@CDialog@@UAEHIHPAXPAUAFX_CMDHANDLERINFO@@@Z 0043fb90 f   mfc42d:MFC42D.DLL
 0001:0003eb96       ?Dump@CDialog@@UBEXAAVCDumpContext@@@Z 0043fb96 f   mfc42d:MFC42D.DLL
 0001:0003eb9c       ?AssertValid@CDialog@@UBEXXZ 0043fb9c f   mfc42d:MFC42D.DLL
 0001:0003eba2       ?GetRuntimeClass@CDialog@@UBEPAUCRuntimeClass@@XZ 0043fba2 f   mfc42d:MFC42D.DLL
 0001:0003eba8       ??1CDialog@@UAE@XZ         0043fba8 f   mfc42d:MFC42D.DLL
 0001:0003ebae       ??0CDialog@@QAE@IPAVCWnd@@@Z 0043fbae f   mfc42d:MFC42D.DLL
 0001:0003ebb4       ?SetOccDialogInfo@CWnd@@MAEHPAU_AFX_OCC_DIALOG_INFO@@@Z 0043fbb4 f   mfc42d:MFC42D.DLL
 0001:0003ebba       ?CheckAutoCenter@CWnd@@UAEHXZ 0043fbba f   mfc42d:MFC42D.DLL
 0001:0003ebc0       ?PreTranslateMessage@CWnd@@UAEHPAUtagMSG@@@Z 0043fbc0 f   mfc42d:MFC42D.DLL
 0001:0003ebc6       ?DestroyWindow@CWnd@@UAEHXZ 0043fbc6 f   mfc42d:MFC42D.DLL
 0001:0003ebcc       ?GetMessageMap@CWnd@@MBEPBUAFX_MSGMAP@@XZ 0043fbcc f   mfc42d:MFC42D.DLL
 0001:0003ebd2       ?OnCmdMsg@CCmdTarget@@UAEHIHPAXPAUAFX_CMDHANDLERINFO@@@Z 0043fbd2 f   mfc42d:MFC42D.DLL
 0001:0003ebd8       ?Dump@CWnd@@UBEXAAVCDumpContext@@@Z 0043fbd8 f   mfc42d:MFC42D.DLL
 0001:0003ebde       ?AssertValid@CWnd@@UBEXXZ  0043fbde f   mfc42d:MFC42D.DLL
 0001:0003ebe4       ??0CWnd@@QAE@XZ            0043fbe4 f   mfc42d:MFC42D.DLL
 0001:0003ebea       ??1CWnd@@UAE@XZ            0043fbea f   mfc42d:MFC42D.DLL
 0001:0003ebf0       ?DDX_Radio@@YGXPAVCDataExchange@@HAAH@Z 0043fbf0 f   mfc42d:MFC42D.DLL
 0001:0003ebf6       ?DDX_Control@@YGXPAVCDataExchange@@HAAVCWnd@@@Z 0043fbf6 f   mfc42d:MFC42D.DLL
 0001:0003ebfc       ?AfxAssertFailedLine@@YGHPBDH@Z 0043fbfc f   mfc42d:MFC42D.DLL
 0001:0003ec02       ?AfxGetMainWnd@@YGPAVCWnd@@XZ 0043fc02 f   mfc42d:MFC42D.DLL
 0001:0003ec08       ?SetTimer@CWnd@@QAEIIIP6GXPAUHWND__@@IIK@Z@Z 0043fc08 f   mfc42d:MFC42D.DLL
 0001:0003ec0e       ?EnableWindow@CWnd@@QAEHH@Z 0043fc0e f   mfc42d:MFC42D.DLL
 0001:0003ec14       ?GetDlgItem@CWnd@@QBEPAV1@H@Z 0043fc14 f   mfc42d:MFC42D.DLL
 0001:0003ec1a       ?SetDlgItemTextA@CWnd@@QAEXHPBD@Z 0043fc1a f   mfc42d:MFC42D.DLL
 0001:0003ec20       ?KillTimer@CWnd@@QAEHH@Z   0043fc20 f   mfc42d:MFC42D.DLL
 0001:0003ec26       ?AfxGetApp@@YGPAVCWinApp@@XZ 0043fc26 f   mfc42d:MFC42D.DLL
 0001:0003ec2c       ?SetCheck@CButton@@QAEXH@Z 0043fc2c f   mfc42d:MFC42D.DLL
 0001:0003ec32       ?OnInitDialog@CDialog@@UAEHXZ 0043fc32 f   mfc42d:MFC42D.DLL
 0001:0003ec38       ??1CString@@QAE@XZ         0043fc38 f   mfc42d:MFC42D.DLL
 0001:0003ec3e       ?OnTimer@CWnd@@IAEXI@Z     0043fc3e f   mfc42d:MFC42D.DLL
 0001:0003ec44       ?Delete@CException@@QAEXXZ 0043fc44 f   mfc42d:MFC42D.DLL
 0001:0003ec4a       ?AfxTrace@@YAXPBDZZ        0043fc4a f   mfc42d:MFC42D.DLL
 0001:0003ec50       ??BCString@@QBEPBDXZ       0043fc50 f   mfc42d:MFC42D.DLL
 0001:0003ec56       ?Format@CString@@QAAXPBDZZ 0043fc56 f   mfc42d:MFC42D.DLL
 0001:0003ec5c       ??0CString@@QAE@XZ         0043fc5c f   mfc42d:MFC42D.DLL
 0001:0003ec62       ?UpdateData@CWnd@@QAEHH@Z  0043fc62 f   mfc42d:MFC42D.DLL
 0001:0003ec68       ?OnDestroy@CWnd@@IAEXXZ    0043fc68 f   mfc42d:MFC42D.DLL
 0001:0003ec6e       ?OnClose@CWnd@@IAEXXZ      0043fc6e f   mfc42d:MFC42D.DLL
 0001:0003ec74       ?GetCheck@CButton@@QBEHXZ  0043fc74 f   mfc42d:MFC42D.DLL
 0001:0003ec7a       ?OnCancel@CDialog@@MAEXXZ  0043fc7a f   mfc42d:MFC42D.DLL
 0001:0003ec80       ??4CString@@QAEABV0@ABV0@@Z 0043fc80 f   mfc42d:MFC42D.DLL
 0001:0003ec86       ?SetFocus@CWnd@@QAEPAV1@XZ 0043fc86 f   mfc42d:MFC42D.DLL
 0001:0003ec8c       ?IsEmpty@CString@@QBEHXZ   0043fc8c f   mfc42d:MFC42D.DLL
 0001:0003ec92       ?SubclassDlgItem@CWnd@@QAEHIPAV1@@Z 0043fc92 f   mfc42d:MFC42D.DLL
 0001:0003ec98       ?GetDlgItemTextA@CWnd@@QBEHHAAVCString@@@Z 0043fc98 f   mfc42d:MFC42D.DLL
 0001:0003ec9e       ?OnOK@CDialog@@MAEXXZ      0043fc9e f   mfc42d:MFC42D.DLL
 0001:0003eca4       ??1CFileFind@@UAE@XZ       0043fca4 f   mfc42d:MFC42D.DLL
 0001:0003ecaa       ?SelectString@CComboBox@@QAEHHPBD@Z 0043fcaa f   mfc42d:MFC42D.DLL
 0001:0003ecb0       ?Close@CFileFind@@QAEXXZ   0043fcb0 f   mfc42d:MFC42D.DLL
 0001:0003ecb6       ?SetItemData@CComboBox@@QAEHHK@Z 0043fcb6 f   mfc42d:MFC42D.DLL
 0001:0003ecbc       ?AfxLoadLibrary@@YGPAUHINSTANCE__@@PBD@Z 0043fcbc f   mfc42d:MFC42D.DLL
 0001:0003ecc2       ?GetFilePath@CFileFind@@UBE?AVCString@@XZ 0043fcc2 f   mfc42d:MFC42D.DLL
 0001:0003ecc8       ?FindNextFileA@CFileFind@@UAEHXZ 0043fcc8 f   mfc42d:MFC42D.DLL
 0001:0003ecce       ?FindFile@CFileFind@@UAEHPBDK@Z 0043fcce f   mfc42d:MFC42D.DLL
 0001:0003ecd4       ?AddString@CComboBox@@QAEHPBD@Z 0043fcd4 f   mfc42d:MFC42D.DLL
 0001:0003ecda       ??YCString@@QAEABV0@PBD@Z  0043fcda f   mfc42d:MFC42D.DLL
 0001:0003ece0       ?Left@CString@@QBE?AV1@H@Z 0043fce0 f   mfc42d:MFC42D.DLL
 0001:0003ece6       ?GetLength@CString@@QBEHXZ 0043fce6 f   mfc42d:MFC42D.DLL
 0001:0003ecec       ??4CString@@QAEABV0@PBD@Z  0043fcec f   mfc42d:MFC42D.DLL
 0001:0003ecf2       ??0CFileFind@@QAE@XZ       0043fcf2 f   mfc42d:MFC42D.DLL
 0001:0003ecf8       ?GetItemData@CComboBox@@QBEKH@Z 0043fcf8 f   mfc42d:MFC42D.DLL
 0001:0003ecfe       ?GetCurSel@CComboBox@@QBEHXZ 0043fcfe f   mfc42d:MFC42D.DLL
 0001:0003ed04       ?AfxFreeLibrary@@YGHPAUHINSTANCE__@@@Z 0043fd04 f   mfc42d:MFC42D.DLL
 0001:0003ed0a       ??0CString@@QAE@ABV0@@Z    0043fd0a f   mfc42d:MFC42D.DLL
 0001:0003ed10       ?GetLBText@CComboBox@@QBEXHAAVCString@@@Z 0043fd10 f   mfc42d:MFC42D.DLL
 0001:0003ed16       ??0CString@@QAE@PBD@Z      0043fd16 f   mfc42d:MFC42D.DLL
 0001:0003ed1c       ?OnShowWindow@CWnd@@IAEXHI@Z 0043fd1c f   mfc42d:MFC42D.DLL
 0001:0003ed22       ??1CListBox@@UAE@XZ        0043fd22 f   mfc42d:MFC42D.DLL
 0001:0003ed28       ??0CListBox@@QAE@XZ        0043fd28 f   mfc42d:MFC42D.DLL
 0001:0003ed2e       ?SetSel@CEdit@@QAEXHHH@Z   0043fd2e f   mfc42d:MFC42D.DLL
 0001:0003ed34       ?DeleteString@CListBox@@QAEHI@Z 0043fd34 f   mfc42d:MFC42D.DLL
 0001:0003ed3a       ?FindString@CListBox@@QBEHHPBD@Z 0043fd3a f   mfc42d:MFC42D.DLL
 0001:0003ed40       ?Dir@CListBox@@QAEHIPBD@Z  0043fd40 f   mfc42d:MFC42D.DLL
 0001:0003ed46       ??H@YG?AVCString@@ABV0@PBD@Z 0043fd46 f   mfc42d:MFC42D.DLL
 0001:0003ed4c       ?Find@CString@@QBEHPBD@Z   0043fd4c f   mfc42d:MFC42D.DLL
 0001:0003ed52       ?AfxMessageBox@@YGHPBDII@Z 0043fd52 f   mfc42d:MFC42D.DLL
 0001:0003ed58       ?MakeUpper@CString@@QAEXXZ 0043fd58 f   mfc42d:MFC42D.DLL
 0001:0003ed5e       ?GetText@CListBox@@QBEXHAAVCString@@@Z 0043fd5e f   mfc42d:MFC42D.DLL
 0001:0003ed64       ?GetCurSel@CListBox@@QBEHXZ 0043fd64 f   mfc42d:MFC42D.DLL
 0001:0003ed6a       ?OnFilePrintPreview@CView@@IAEXXZ 0043fd6a f   mfc42d:MFC42D.DLL
 0001:0003ed70       ?OnFilePrint@CView@@IAEXXZ 0043fd70 f   mfc42d:MFC42D.DLL
 0001:0003ed76       ??3CObject@@SGXPAXPBDH@Z   0043fd76 f   mfc42d:MFC42D.DLL
 0001:0003ed7c       ??2CObject@@SGPAXIPBDH@Z   0043fd7c f   mfc42d:MFC42D.DLL
 0001:0003ed82       ?OnEndPrintPreview@CView@@MAEXPAVCDC@@PAUCPrintInfo@@UtagPOINT@@PAVCPreviewView@@@Z 0043fd82 f   mfc42d:MFC42D.DLL
 0001:0003ed88       ?OnEndPrinting@CView@@MAEXPAVCDC@@PAUCPrintInfo@@@Z 0043fd88 f   mfc42d:MFC42D.DLL
 0001:0003ed8e       ?OnBeginPrinting@CView@@MAEXPAVCDC@@PAUCPrintInfo@@@Z 0043fd8e f   mfc42d:MFC42D.DLL
 0001:0003ed94       ?OnUpdate@CView@@MAEXPAV1@JPAVCObject@@@Z 0043fd94 f   mfc42d:MFC42D.DLL
 0001:0003ed9a       ?OnActivateFrame@CView@@MAEXIPAVCFrameWnd@@@Z 0043fd9a f   mfc42d:MFC42D.DLL
 0001:0003eda0       ?OnActivateView@CView@@MAEXHPAV1@0@Z 0043fda0 f   mfc42d:MFC42D.DLL
 0001:0003eda6       ?OnInitialUpdate@CView@@UAEXXZ 0043fda6 f   mfc42d:MFC42D.DLL
 0001:0003edac       ?OnPrepareDC@CView@@UAEXPAVCDC@@PAUCPrintInfo@@@Z 0043fdac f   mfc42d:MFC42D.DLL
 0001:0003edb2       ?OnDragScroll@CView@@UAEKKVCPoint@@@Z 0043fdb2 f   mfc42d:MFC42D.DLL
 0001:0003edb8       ?OnDropEx@CView@@UAEKPAVCOleDataObject@@KKVCPoint@@@Z 0043fdb8 f   mfc42d:MFC42D.DLL
 0001:0003edbe       ?OnDrop@CView@@UAEHPAVCOleDataObject@@KVCPoint@@@Z 0043fdbe f   mfc42d:MFC42D.DLL
 0001:0003edc4       ?OnDragLeave@CView@@UAEXXZ 0043fdc4 f   mfc42d:MFC42D.DLL
 0001:0003edca       ?OnDragOver@CView@@UAEKPAVCOleDataObject@@KVCPoint@@@Z 0043fdca f   mfc42d:MFC42D.DLL
 0001:0003edd0       ?OnDragEnter@CView@@UAEKPAVCOleDataObject@@KVCPoint@@@Z 0043fdd0 f   mfc42d:MFC42D.DLL
 0001:0003edd6       ?OnScrollBy@CView@@UAEHVCSize@@H@Z 0043fdd6 f   mfc42d:MFC42D.DLL
 0001:0003eddc       ?OnScroll@CView@@UAEHIIH@Z 0043fddc f   mfc42d:MFC42D.DLL
 0001:0003ede2       ?IsSelected@CView@@UBEHPBVCObject@@@Z 0043fde2 f   mfc42d:MFC42D.DLL
 0001:0003ede8       ?PostNcDestroy@CView@@MAEXXZ 0043fde8 f   mfc42d:MFC42D.DLL
 0001:0003edee       ?GetScrollBarCtrl@CView@@UBEPAVCScrollBar@@H@Z 0043fdee f   mfc42d:MFC42D.DLL
 0001:0003edf4       ?CalcWindowRect@CView@@UAEXPAUtagRECT@@I@Z 0043fdf4 f   mfc42d:MFC42D.DLL
 0001:0003edfa       ?PreCreateWindow@CView@@MAEHAAUtagCREATESTRUCTA@@@Z 0043fdfa f   mfc42d:MFC42D.DLL
 0001:0003ee00       ?OnCmdMsg@CView@@UAEHIHPAXPAUAFX_CMDHANDLERINFO@@@Z 0043fe00 f   mfc42d:MFC42D.DLL
 0001:0003ee06       ??1CView@@UAE@XZ           0043fe06 f   mfc42d:MFC42D.DLL
 0001:0003ee0c       ??0CView@@IAE@XZ           0043fe0c f   mfc42d:MFC42D.DLL
 0001:0003ee12       ?GetDocument@CView@@QBEPAVCDocument@@XZ 0043fe12 f   mfc42d:MFC42D.DLL
 0001:0003ee18       ?AssertValid@CView@@UBEXXZ 0043fe18 f   mfc42d:MFC42D.DLL
 0001:0003ee1e       ?Dump@CView@@UBEXAAVCDumpContext@@@Z 0043fe1e f   mfc42d:MFC42D.DLL
 0001:0003ee24       ??BCWnd@@QBEPAUHWND__@@XZ  0043fe24 f   mfc42d:MFC42D.DLL
 0001:0003ee2a       ?SetRectEmpty@CRect@@QAEXXZ 0043fe2a f   mfc42d:MFC42D.DLL
 0001:0003ee30       ??0CRect@@QAE@XZ           0043fe30 f   mfc42d:MFC42D.DLL
 0001:0003ee36       ?OnSize@CWnd@@IAEXIHH@Z    0043fe36 f   mfc42d:MFC42D.DLL
 0001:0003ee3c       ??1CFile@@UAE@XZ           0043fe3c f   mfc42d:MFC42D.DLL
 0001:0003ee42       ??1CFileException@@UAE@XZ  0043fe42 f   mfc42d:MFC42D.DLL
 0001:0003ee48       ?EndWaitCursor@CCmdTarget@@QAEXXZ 0043fe48 f   mfc42d:MFC42D.DLL
 0001:0003ee4e       ?Close@CFile@@UAEXXZ       0043fe4e f   mfc42d:MFC42D.DLL
 0001:0003ee54       ?Read@CFile@@UAEIPAXI@Z    0043fe54 f   mfc42d:MFC42D.DLL
 0001:0003ee5a       ?Seek@CFile@@UAEJJI@Z      0043fe5a f   mfc42d:MFC42D.DLL
 0001:0003ee60       ?Open@CFile@@UAEHPBDIPAVCFileException@@@Z 0043fe60 f   mfc42d:MFC42D.DLL
 0001:0003ee66       ??0CFileException@@QAE@HJPBD@Z 0043fe66 f   mfc42d:MFC42D.DLL
 0001:0003ee6c       ??0CFile@@QAE@XZ           0043fe6c f   mfc42d:MFC42D.DLL
 0001:0003ee72       ?ShowWindow@CWnd@@QAEHH@Z  0043fe72 f   mfc42d:MFC42D.DLL
 0001:0003ee78       ?MoveWindow@CWnd@@QAEXPBUtagRECT@@H@Z 0043fe78 f   mfc42d:MFC42D.DLL
 0001:0003ee7e       ??BCRect@@QAEPAUtagRECT@@XZ 0043fe7e f   mfc42d:MFC42D.DLL
 0001:0003ee84       ?Width@CRect@@QBEHXZ       0043fe84 f   mfc42d:MFC42D.DLL
 0001:0003ee8a       ?Height@CRect@@QBEHXZ      0043fe8a f   mfc42d:MFC42D.DLL
 0001:0003ee90       ?GetSafeHwnd@CWnd@@QBEPAUHWND__@@XZ 0043fe90 f   mfc42d:MFC42D.DLL
 0001:0003ee96       ?GetParent@CWnd@@QBEPAV1@XZ 0043fe96 f   mfc42d:MFC42D.DLL
 0001:0003ee9c       ?WindowFromPoint@CWnd@@SGPAV1@UtagPOINT@@@Z 0043fe9c f   mfc42d:MFC42D.DLL
 0001:0003eea2       ?PtInRect@CRect@@QBEHUtagPOINT@@@Z 0043fea2 f   mfc42d:MFC42D.DLL
 0001:0003eea8       ?GetWindowRect@CWnd@@QBEXPAUtagRECT@@@Z 0043fea8 f   mfc42d:MFC42D.DLL
 0001:0003eeae       ??0CPoint@@QAE@XZ          0043feae f   mfc42d:MFC42D.DLL
 0001:0003eeb4       ?BeginWaitCursor@CCmdTarget@@QAEXXZ 0043feb4 f   mfc42d:MFC42D.DLL
 0001:0003eeba       ?Invalidate@CWnd@@QAEXH@Z  0043feba f   mfc42d:MFC42D.DLL
 0001:0003eec0       ??1CArchive@@QAE@XZ        0043fec0 f   mfc42d:MFC42D.DLL
 0001:0003eec6       ??0CArchive@@QAE@PAVCFile@@IHPAX@Z 0043fec6 f   mfc42d:MFC42D.DLL
 0001:0003eecc       ??0CFile@@QAE@PBDI@Z       0043fecc f   mfc42d:MFC42D.DLL
 0001:0003eed2       ??1CCmdTarget@@UAE@XZ      0043fed2 f   mfc42d:MFC42D.DLL
 0001:0003eed8       ?Write@CFile@@UAEXPBXI@Z   0043fed8 f   mfc42d:MFC42D.DLL
 0001:0003eede       ?Close@CArchive@@QAEXXZ    0043fede f   mfc42d:MFC42D.DLL
 0001:0003eee4       ?Flush@CFile@@UAEXXZ       0043fee4 f   mfc42d:MFC42D.DLL
 0001:0003eeea       ??1CMenu@@UAE@XZ           0043feea f   mfc42d:MFC42D.DLL
 0001:0003eef0       ?DestroyMenu@CMenu@@QAEHXZ 0043fef0 f   mfc42d:MFC42D.DLL
 0001:0003eef6       ?TrackPopupMenu@CMenu@@QAEHIHHPAVCWnd@@PBUtagRECT@@@Z 0043fef6 f   mfc42d:MFC42D.DLL
 0001:0003eefc       ?CheckMenuRadioItem@CMenu@@QAEHIIII@Z 0043fefc f   mfc42d:MFC42D.DLL
 0001:0003ef02       ?CheckMenuItem@CMenu@@QAEIII@Z 0043ff02 f   mfc42d:MFC42D.DLL
 0001:0003ef08       ?EnableMenuItem@CMenu@@QAEIII@Z 0043ff08 f   mfc42d:MFC42D.DLL
 0001:0003ef0e       ?GetSubMenu@CMenu@@QBEPAV1@H@Z 0043ff0e f   mfc42d:MFC42D.DLL
 0001:0003ef14       ?LoadMenuA@CMenu@@QAEHI@Z  0043ff14 f   mfc42d:MFC42D.DLL
 0001:0003ef1a       ??0CMenu@@QAE@XZ           0043ff1a f   mfc42d:MFC42D.DLL
 0001:0003ef20       ?ClientToScreen@CWnd@@QBEXPAUtagPOINT@@@Z 0043ff20 f   mfc42d:MFC42D.DLL
 0001:0003ef26       ?GetSafeHdc@CDC@@QBEPAUHDC__@@XZ 0043ff26 f   mfc42d:MFC42D.DLL
 0001:0003ef2c       ?LPtoDP@CDC@@QBEXPAUtagRECT@@@Z 0043ff2c f   mfc42d:MFC42D.DLL
 0001:0003ef32       ?GetDeviceCaps@CDC@@QBEHH@Z 0043ff32 f   mfc42d:MFC42D.DLL
 0001:0003ef38       ?GetClientRect@CWnd@@QBEXPAUtagRECT@@@Z 0043ff38 f   mfc42d:MFC42D.DLL
 0001:0003ef3e       ?DoPreparePrinting@CView@@QAEHPAUCPrintInfo@@@Z 0043ff3e f   mfc42d:MFC42D.DLL
 0001:0003ef44       ?Create@CDialog@@QAEHIPAVCWnd@@@Z 0043ff44 f   mfc42d:MFC42D.DLL
 0001:0003ef4a       ?IsWindowVisible@CWnd@@QBEHXZ 0043ff4a f   mfc42d:MFC42D.DLL
 0001:0003ef50       ??1CScrollBar@@UAE@XZ      0043ff50 f   mfc42d:MFC42D.DLL
 0001:0003ef56       ?GetProfileIntA@CWinApp@@QAEIPBD0H@Z 0043ff56 f   mfc42d:MFC42D.DLL
 0001:0003ef5c       ?GetProfileStringA@CWinApp@@QAE?AVCString@@PBD00@Z 0043ff5c f   mfc42d:MFC42D.DLL
 0001:0003ef62       ?WriteProfileInt@CWinApp@@QAEHPBD0H@Z 0043ff62 f   mfc42d:MFC42D.DLL
 0001:0003ef68       ?WriteProfileStringA@CWinApp@@QAEHPBD00@Z 0043ff68 f   mfc42d:MFC42D.DLL
 0001:0003ef6e       ?OnDestroy@CView@@IAEXXZ   0043ff6e f   mfc42d:MFC42D.DLL
 0001:0003ef74       ?OnSetCursor@CWnd@@IAEHPAV1@II@Z 0043ff74 f   mfc42d:MFC42D.DLL
 0001:0003ef7a       ?GetFileTitle@CFileDialog@@QBE?AVCString@@XZ 0043ff7a f   mfc42d:MFC42D.DLL
 0001:0003ef80       ?GetTitle@CDocument@@QBEABVCString@@XZ 0043ff80 f   mfc42d:MFC42D.DLL
 0001:0003ef86       ??9@YG_NABVCString@@0@Z    0043ff86 f   mfc42d:MFC42D.DLL
 0001:0003ef8c       ?GetPathName@CFileDialog@@QBE?AVCString@@XZ 0043ff8c f   mfc42d:MFC42D.DLL
 0001:0003ef92       ?DoModal@CFileDialog@@UAEHXZ 0043ff92 f   mfc42d:MFC42D.DLL
 0001:0003ef98       ??0CFileDialog@@QAE@HPBD0K0PAVCWnd@@@Z 0043ff98 f   mfc42d:MFC42D.DLL
 0001:0003ef9e       ?SetWindowTextA@CWnd@@QAEXPBD@Z 0043ff9e f   mfc42d:MFC42D.DLL
 0001:0003efa4       ??YCString@@QAEABV0@ABV0@@Z 0043ffa4 f   mfc42d:MFC42D.DLL
 0001:0003efaa       ?TrimRight@CString@@QAEXXZ 0043ffaa f   mfc42d:MFC42D.DLL
 0001:0003efb0       ??1CButton@@UAE@XZ         0043ffb0 f   mfc42d:MFC42D.DLL
 0001:0003efb6       ?AfxClassInit@@YGXPAUCRuntimeClass@@@Z 0043ffb6 f   mfc42d:MFC42D.DLL
 0001:0003efbc       ?ReadObject@CArchive@@QAEPAVCObject@@PBUCRuntimeClass@@@Z 0043ffbc f   mfc42d:MFC42D.DLL
 0001:0003efc2       ??0CObject@@IAE@XZ         0043ffc2 f   mfc42d:MFC42D.DLL
 0001:0003efc8       ??5CArchive@@QAEAAV0@AAN@Z 0043ffc8 f   mfc42d:MFC42D.DLL
 0001:0003efce       ??6CArchive@@QAEAAV0@N@Z   0043ffce f   mfc42d:MFC42D.DLL
 0001:0003efd4       ?IsStoring@CArchive@@QBEHXZ 0043ffd4 f   mfc42d:MFC42D.DLL
 0001:0003efda       ?OnFinalRelease@CCmdTarget@@UAEXXZ 0043ffda f   mfc42d:MFC42D.DLL
 0001:0003efe0       ?Dump@CCmdTarget@@UBEXAAVCDumpContext@@@Z 0043ffe0 f   mfc42d:MFC42D.DLL
 0001:0003efe6       ?AssertValid@CCmdTarget@@UBEXXZ 0043ffe6 f   mfc42d:MFC42D.DLL
 0001:0003efec       ??0CCmdTarget@@QAE@XZ      0043ffec f   mfc42d:MFC42D.DLL
 0001:0003eff2       ??3@YAXPAX@Z               0043fff2 f   mfc42d:MFC42D.DLL
 0001:0003eff8       ??2@YAPAXIPBDH@Z           0043fff8 f   mfc42d:MFC42D.DLL
 0001:0003effe       ??5@YGAAVCArchive@@AAV0@AAVCString@@@Z 0043fffe f   mfc42d:MFC42D.DLL
 0001:0003f004       ??5CArchive@@QAEAAV0@AAH@Z 00440004 f   mfc42d:MFC42D.DLL
 0001:0003f00a       ??5CArchive@@QAEAAV0@AAG@Z 0044000a f   mfc42d:MFC42D.DLL
 0001:0003f010       ??6@YGAAVCArchive@@AAV0@ABVCString@@@Z 00440010 f   mfc42d:MFC42D.DLL
 0001:0003f016       ??6CArchive@@QAEAAV0@H@Z   00440016 f   mfc42d:MFC42D.DLL
 0001:0003f01c       ??6CArchive@@QAEAAV0@G@Z   0044001c f   mfc42d:MFC42D.DLL
 0001:0003f022       ??1CListCtrl@@UAE@XZ       00440022 f   mfc42d:MFC42D.DLL
 0001:0003f028       ??0CListCtrl@@QAE@XZ       00440028 f   mfc42d:MFC42D.DLL
 0001:0003f02e       ?SetItemData@CListCtrl@@QAEHHK@Z 0044002e f   mfc42d:MFC42D.DLL
 0001:0003f034       ?SetItemText@CListCtrl@@QAEHHHPBD@Z 00440034 f   mfc42d:MFC42D.DLL
 0001:0003f03a       ?InsertItem@CListCtrl@@QAEHHPBD@Z 0044003a f   mfc42d:MFC42D.DLL
 0001:0003f040       ?GetItemCount@CListCtrl@@QBEHXZ 00440040 f   mfc42d:MFC42D.DLL
 0001:0003f046       ?SetCurSel@CComboBox@@QAEHH@Z 00440046 f   mfc42d:MFC42D.DLL
 0001:0003f04c       ?DeleteItem@CListCtrl@@QAEHH@Z 0044004c f   mfc42d:MFC42D.DLL
 0001:0003f052       ?GetNextItem@CListCtrl@@QBEHHH@Z 00440052 f   mfc42d:MFC42D.DLL
 0001:0003f058       ?GetSelectedCount@CListCtrl@@QBEIXZ 00440058 f   mfc42d:MFC42D.DLL
 0001:0003f05e       ?GetItemData@CListCtrl@@QBEKH@Z 0044005e f   mfc42d:MFC42D.DLL
 0001:0003f064       ?LimitText@CEdit@@QAEXH@Z  00440064 f   mfc42d:MFC42D.DLL
 0001:0003f06a       ?InsertColumn@CListCtrl@@QAEHHPBDHHH@Z 0044006a f   mfc42d:MFC42D.DLL
 0001:0003f070       ?Flush@CArchive@@QAEXXZ    00440070 f   mfc42d:MFC42D.DLL
 0001:0003f076       ??3@YAXPAXPBDH@Z           00440076 f   mfc42d:MFC42D.DLL
 0001:0003f07c       ?SetItemState@CListCtrl@@QAEHHII@Z 0044007c f   mfc42d:MFC42D.DLL
 0001:0003f082       ?GetItemText@CListCtrl@@QBE?AVCString@@HH@Z 00440082 f   mfc42d:MFC42D.DLL
 0001:0003f088       ?GetItemState@CListCtrl@@QBEIHI@Z 00440088 f   mfc42d:MFC42D.DLL
 0001:0003f08e       ?DDX_Text@@YGXPAVCDataExchange@@HAAF@Z 0044008e f   mfc42d:MFC42D.DLL
 0001:0003f094       ?DDX_Text@@YGXPAVCDataExchange@@HAAM@Z 00440094 f   mfc42d:MFC42D.DLL
 0001:0003f09a       ?GetRuntimeClass@CWnd@@UBEPAUCRuntimeClass@@XZ 0044009a f   mfc42d:MFC42D.DLL
 0001:0003f0a0       ?CreateEx@CWnd@@QAEHKPBD0KHHHHPAUHWND__@@PAUHMENU__@@PAX@Z 004400a0 f   mfc42d:MFC42D.DLL
 0001:0003f0a6       ?AfxRegisterWndClass@@YGPBDIPAUHICON__@@PAUHBRUSH__@@0@Z 004400a6 f   mfc42d:MFC42D.DLL
 0001:0003f0ac       ??1CFont@@UAE@XZ           004400ac f   mfc42d:MFC42D.DLL
 0001:0003f0b2       ?ReleaseDC@CWnd@@QAEHPAVCDC@@@Z 004400b2 f   mfc42d:MFC42D.DLL
 0001:0003f0b8       ?DrawTextA@CDC@@QAEHABVCString@@PAUtagRECT@@I@Z 004400b8 f   mfc42d:MFC42D.DLL
 0001:0003f0be       ?GetTextMetricsA@CDC@@QBEHPAUtagTEXTMETRICA@@@Z 004400be f   mfc42d:MFC42D.DLL
 0001:0003f0c4       ?CreateFontA@CFont@@QAEHHHHHHEEEEEEEEPBD@Z 004400c4 f   mfc42d:MFC42D.DLL
 0001:0003f0ca       ??0CFont@@QAE@XZ           004400ca f   mfc42d:MFC42D.DLL
 0001:0003f0d0       ?GetDC@CWnd@@QAEPAVCDC@@XZ 004400d0 f   mfc42d:MFC42D.DLL
 0001:0003f0d6       ??1CPaintDC@@UAE@XZ        004400d6 f   mfc42d:MFC42D.DLL
 0001:0003f0dc       ?SelectObject@CDC@@UAEPAVCFont@@PAV2@@Z 004400dc f   mfc42d:MFC42D.DLL
 0001:0003f0e2       ?SetBkMode@CDC@@QAEHH@Z    004400e2 f   mfc42d:MFC42D.DLL
 0001:0003f0e8       ??0CPaintDC@@QAE@PAVCWnd@@@Z 004400e8 f   mfc42d:MFC42D.DLL
 0001:0003f0ee       ?OnFilePrintSetup@CWinApp@@IAEXXZ 004400ee f   mfc42d:MFC42D.DLL
 0001:0003f0f4       ?OnFileOpen@CWinApp@@IAEXXZ 004400f4 f   mfc42d:MFC42D.DLL
 0001:0003f0fa       ?OnFileNew@CWinApp@@IAEXXZ 004400fa f   mfc42d:MFC42D.DLL
 0001:0003f100       ?WinHelpA@CWinApp@@UAEXKI@Z 00440100 f   mfc42d:MFC42D.DLL
 0001:0003f106       ?OnDDECommand@CWinApp@@UAEHPAD@Z 00440106 f   mfc42d:MFC42D.DLL
 0001:0003f10c       ?DoWaitCursor@CWinApp@@UAEXH@Z 0044010c f   mfc42d:MFC42D.DLL
 0001:0003f112       ?DoMessageBox@CWinApp@@UAEHPBDII@Z 00440112 f   mfc42d:MFC42D.DLL
 0001:0003f118       ?SaveAllModified@CWinApp@@UAEHXZ 00440118 f   mfc42d:MFC42D.DLL
 0001:0003f11e       ?InitApplication@CWinApp@@UAEHXZ 0044011e f   mfc42d:MFC42D.DLL
 0001:0003f124       ?AddToRecentFileList@CWinApp@@UAEXPBD@Z 00440124 f   mfc42d:MFC42D.DLL
 0001:0003f12a       ?OpenDocumentFile@CWinApp@@UAEPAVCDocument@@PBD@Z 0044012a f   mfc42d:MFC42D.DLL
 0001:0003f130       ?Delete@CWinThread@@UAEXXZ 00440130 f   mfc42d:MFC42D.DLL
 0001:0003f136       ?GetMainWnd@CWinThread@@UAEPAVCWnd@@XZ 00440136 f   mfc42d:MFC42D.DLL
 0001:0003f13c       ?ProcessMessageFilter@CWinThread@@UAEHHPAUtagMSG@@@Z 0044013c f   mfc42d:MFC42D.DLL
 0001:0003f142       ?ProcessWndProcException@CWinApp@@UAEJPAVCException@@PBUtagMSG@@@Z 00440142 f   mfc42d:MFC42D.DLL
 0001:0003f148       ?IsIdleMessage@CWinThread@@UAEHPAUtagMSG@@@Z 00440148 f   mfc42d:MFC42D.DLL
 0001:0003f14e       ?OnIdle@CWinApp@@UAEHJ@Z   0044014e f   mfc42d:MFC42D.DLL
 0001:0003f154       ?PumpMessage@CWinThread@@UAEHXZ 00440154 f   mfc42d:MFC42D.DLL
 0001:0003f15a       ?Run@CWinApp@@UAEHXZ       0044015a f   mfc42d:MFC42D.DLL
 0001:0003f160       ?Dump@CWinApp@@UBEXAAVCDumpContext@@@Z 00440160 f   mfc42d:MFC42D.DLL
 0001:0003f166       ?AssertValid@CWinApp@@UBEXXZ 00440166 f   mfc42d:MFC42D.DLL
 0001:0003f16c       ?GetRuntimeClass@CWinApp@@UBEPAUCRuntimeClass@@XZ 0044016c f   mfc42d:MFC42D.DLL
 0001:0003f172       ??1CWinApp@@UAE@XZ         00440172 f   mfc42d:MFC42D.DLL
 0001:0003f178       ??0CWinApp@@QAE@PBD@Z      00440178 f   mfc42d:MFC42D.DLL
 0001:0003f17e       ?GetActiveView@CFrameWnd@@QBEPAVCView@@XZ 0044017e f   mfc42d:MFC42D.DLL
 0001:0003f184       ?SetActiveView@CFrameWnd@@QAEXPAVCView@@H@Z 00440184 f   mfc42d:MFC42D.DLL
 0001:0003f18a       ?GetPane@CSplitterWnd@@QBEPAVCWnd@@HH@Z 0044018a f   mfc42d:MFC42D.DLL
 0001:0003f190       ?UpdateWindow@CWnd@@QAEXXZ 00440190 f   mfc42d:MFC42D.DLL
 0001:0003f196       ??H@YG?AVCString@@ABV0@0@Z 00440196 f   mfc42d:MFC42D.DLL
 0001:0003f19c       ??H@YG?AVCString@@PBDABV0@@Z 0044019c f   mfc42d:MFC42D.DLL
 0001:0003f1a2       ??1CCommandLineInfo@@UAE@XZ 004401a2 f   mfc42d:MFC42D.DLL
 0001:0003f1a8       ?ProcessShellCommand@CWinApp@@QAEHAAVCCommandLineInfo@@@Z 004401a8 f   mfc42d:MFC42D.DLL
 0001:0003f1ae       ?ParseCommandLine@CWinApp@@QAEXAAVCCommandLineInfo@@@Z 004401ae f   mfc42d:MFC42D.DLL
 0001:0003f1b4       ??0CCommandLineInfo@@QAE@XZ 004401b4 f   mfc42d:MFC42D.DLL
 0001:0003f1ba       ?AddDocTemplate@CWinApp@@QAEXPAVCDocTemplate@@@Z 004401ba f   mfc42d:MFC42D.DLL
 0001:0003f1c0       ??0CSingleDocTemplate@@QAE@IPAUCRuntimeClass@@00@Z 004401c0 f   mfc42d:MFC42D.DLL
 0001:0003f1c6       ?LoadStdProfileSettings@CWinApp@@IAEXI@Z 004401c6 f   mfc42d:MFC42D.DLL
 0001:0003f1cc       ?SetRegistryKey@CWinApp@@IAEXPBD@Z 004401cc f   mfc42d:MFC42D.DLL
 0001:0003f1d2       ?Enable3dControls@CWinApp@@IAEHXZ 004401d2 f   mfc42d:MFC42D.DLL
 0001:0003f1d8       ?ExitInstance@CWinApp@@UAEHXZ 004401d8 f   mfc42d:MFC42D.DLL
 0001:0003f1de       ?SetRowInfo@CSplitterWnd@@QAEXHHH@Z 004401de f   mfc42d:MFC42D.DLL
 0001:0003f1e4       ?ReverseFind@CString@@QBEHD@Z 004401e4 f   mfc42d:MFC42D.DLL
 0001:0003f1ea       ?AddString@CListBox@@QAEHPBD@Z 004401ea f   mfc42d:MFC42D.DLL
 0001:0003f1f0       ?PreTranslateMessage@CWinThread@@UAEHPAUtagMSG@@@Z 004401f0 f   mfc42d:MFC42D.DLL
 0001:0003f1f6       ?OnIdle@CDocument@@UAEXXZ  004401f6 f   mfc42d:MFC42D.DLL
 0001:0003f1fc       ?GetDefaultAccelerator@CDocument@@UAEPAUHACCEL__@@XZ 004401fc f   mfc42d:MFC42D.DLL
 0001:0003f202       ?GetDefaultMenu@CDocument@@UAEPAUHMENU__@@XZ 00440202 f   mfc42d:MFC42D.DLL
 0001:0003f208       ?UpdateFrameCounts@CDocument@@UAEXXZ 00440208 f   mfc42d:MFC42D.DLL
 0001:0003f20e       ?DoFileSave@CDocument@@UAEHXZ 0044020e f   mfc42d:MFC42D.DLL
 0001:0003f214       ?DoSave@CDocument@@UAEHPBDH@Z 00440214 f   mfc42d:MFC42D.DLL
 0001:0003f21a       ?PreCloseFrame@CDocument@@UAEXPAVCFrameWnd@@@Z 0044021a f   mfc42d:MFC42D.DLL
 0001:0003f220       ?SaveModified@CDocument@@UAEHXZ 00440220 f   mfc42d:MFC42D.DLL
 0001:0003f226       ?CanCloseFrame@CDocument@@UAEHPAVCFrameWnd@@@Z 00440226 f   mfc42d:MFC42D.DLL
 0001:0003f22c       ?ReleaseFile@CDocument@@UAEXPAVCFile@@H@Z 0044022c f   mfc42d:MFC42D.DLL
 0001:0003f232       ?GetFile@CDocument@@UAEPAVCFile@@PBDIPAVCFileException@@@Z 00440232 f   mfc42d:MFC42D.DLL
 0001:0003f238       ?ReportSaveLoadException@CDocument@@UAEXPBDPAVCException@@HI@Z 00440238 f   mfc42d:MFC42D.DLL
 0001:0003f23e       ?OnCloseDocument@CDocument@@UAEXXZ 0044023e f   mfc42d:MFC42D.DLL
 0001:0003f244       ?OnSaveDocument@CDocument@@UAEHPBD@Z 00440244 f   mfc42d:MFC42D.DLL
 0001:0003f24a       ?OnOpenDocument@CDocument@@UAEHPBD@Z 0044024a f   mfc42d:MFC42D.DLL
 0001:0003f250       ?DeleteContents@CDocument@@UAEXXZ 00440250 f   mfc42d:MFC42D.DLL
 0001:0003f256       ?OnChangedViewList@CDocument@@UAEXXZ 00440256 f   mfc42d:MFC42D.DLL
 0001:0003f25c       ?GetNextView@CDocument@@UBEPAVCView@@AAPAU__POSITION@@@Z 0044025c f   mfc42d:MFC42D.DLL
 0001:0003f262       ?GetFirstViewPosition@CDocument@@UBEPAU__POSITION@@XZ 00440262 f   mfc42d:MFC42D.DLL
 0001:0003f268       ?SetModifiedFlag@CDocument@@UAEXH@Z 00440268 f   mfc42d:MFC42D.DLL
 0001:0003f26e       ?IsModified@CDocument@@UAEHXZ 0044026e f   mfc42d:MFC42D.DLL
 0001:0003f274       ?SetPathName@CDocument@@UAEXPBDH@Z 00440274 f   mfc42d:MFC42D.DLL
 0001:0003f27a       ?SetTitle@CDocument@@UAEXPBD@Z 0044027a f   mfc42d:MFC42D.DLL
 0001:0003f280       ?OnFinalRelease@CDocument@@UAEXXZ 00440280 f   mfc42d:MFC42D.DLL
 0001:0003f286       ?OnCmdMsg@CDocument@@UAEHIHPAXPAUAFX_CMDHANDLERINFO@@@Z 00440286 f   mfc42d:MFC42D.DLL
 0001:0003f28c       ??0CDocument@@QAE@XZ       0044028c f   mfc42d:MFC42D.DLL
 0001:0003f292       ??1CDocument@@UAE@XZ       00440292 f   mfc42d:MFC42D.DLL
 0001:0003f298       ?OnNewDocument@CDocument@@UAEHXZ 00440298 f   mfc42d:MFC42D.DLL
 0001:0003f29e       ?AssertValid@CDocument@@UBEXXZ 0044029e f   mfc42d:MFC42D.DLL
 0001:0003f2a4       ?Dump@CDocument@@UBEXAAVCDumpContext@@@Z 004402a4 f   mfc42d:MFC42D.DLL
 0001:0003f2aa       ?GetRuntimeClass@CEdit@@UBEPAUCRuntimeClass@@XZ 004402aa f   mfc42d:MFC42D.DLL
 0001:0003f2b0       ??0CEdit@@QAE@XZ           004402b0 f   mfc42d:MFC42D.DLL
 0001:0003f2b6       ??1CEdit@@UAE@XZ           004402b6 f   mfc42d:MFC42D.DLL
 0001:0003f2bc       ?OnChar@CWnd@@IAEXIII@Z    004402bc f   mfc42d:MFC42D.DLL
 0001:0003f2c2       ?Find@CString@@QBEHD@Z     004402c2 f   mfc42d:MFC42D.DLL
 0001:0003f2c8       ??0CScrollBar@@QAE@XZ      004402c8 f   mfc42d:MFC42D.DLL
 0001:0003f2ce       ?DDV_MaxChars@@YGXPAVCDataExchange@@ABVCString@@H@Z 004402ce f   mfc42d:MFC42D.DLL
 0001:0003f2d4       ?DDX_Text@@YGXPAVCDataExchange@@HAAVCString@@@Z 004402d4 f   mfc42d:MFC42D.DLL
 0001:0003f2da       ?DDX_Check@@YGXPAVCDataExchange@@HAAH@Z 004402da f   mfc42d:MFC42D.DLL
 0001:0003f2e0       ?SetScrollPos@CScrollBar@@QAEHHH@Z 004402e0 f   mfc42d:MFC42D.DLL
 0001:0003f2e6       ?SetScrollRange@CScrollBar@@QAEXHHH@Z 004402e6 f   mfc42d:MFC42D.DLL
 0001:0003f2ec       ?OnHScroll@CWnd@@IAEXIIPAVCScrollBar@@@Z 004402ec f   mfc42d:MFC42D.DLL
 0001:0003f2f2       ?GetWindowTextA@CWnd@@QBEXAAVCString@@@Z 004402f2 f   mfc42d:MFC42D.DLL
 0001:0003f2f8       ??2CObject@@SGPAXI@Z       004402f8 f   mfc42d:MFC42D.DLL
 0001:0003f2fe       ?GetProperty@CWnd@@QBEXJGPAX@Z 004402fe f   mfc42d:MFC42D.DLL
 0001:0003f304       ?SetProperty@CWnd@@QAAXJGZZ 00440304 f   mfc42d:MFC42D.DLL
 0001:0003f30a       ?InvokeHelper@CWnd@@QAAXJGGPAXPBEZZ 0044030a f   mfc42d:MFC42D.DLL
 0001:0003f310       ?SetStatusText@CControlBar@@UAEHH@Z 00440310 f   mfc42d:MFC42D.DLL
 0001:0003f316       ?DoPaint@CControlBar@@UAEXPAVCDC@@@Z 00440316 f   mfc42d:MFC42D.DLL
 0001:0003f31c       ?OnBarStyleChange@CControlBar@@UAEXKK@Z 0044031c f   mfc42d:MFC42D.DLL
 0001:0003f322       ?IsDockBar@CControlBar@@UBEHXZ 00440322 f   mfc42d:MFC42D.DLL
 0001:0003f328       ?RecalcDelayShow@CControlBar@@UAEKPAUAFX_SIZEPARENTPARAMS@@@Z 00440328 f   mfc42d:MFC42D.DLL
 0001:0003f32e       ?IsVisible@CControlBar@@UBEHXZ 0044032e f   mfc42d:MFC42D.DLL
 0001:0003f334       ?DelayShow@CControlBar@@UAEXH@Z 00440334 f   mfc42d:MFC42D.DLL
 0001:0003f33a       ?CalcDynamicLayout@CControlBar@@UAE?AVCSize@@HK@Z 0044033a f   mfc42d:MFC42D.DLL
 0001:0003f340       ?PostNcDestroy@CControlBar@@UAEXXZ 00440340 f   mfc42d:MFC42D.DLL
 0001:0003f346       ?WindowProc@CControlBar@@UAEJIIJ@Z 00440346 f   mfc42d:MFC42D.DLL
 0001:0003f34c       ?PreTranslateMessage@CControlBar@@UAEHPAUtagMSG@@@Z 0044034c f   mfc42d:MFC42D.DLL
 0001:0003f352       ?PreCreateWindow@CControlBar@@UAEHAAUtagCREATESTRUCTA@@@Z 00440352 f   mfc42d:MFC42D.DLL
 0001:0003f358       ?DestroyWindow@CControlBar@@UAEHXZ 00440358 f   mfc42d:MFC42D.DLL
 0001:0003f35e       ?GetMessageMap@CControlBar@@MBEPBUAFX_MSGMAP@@XZ 0044035e f   mfc42d:MFC42D.DLL
 0001:0003f364       ?Dump@CControlBar@@UBEXAAVCDumpContext@@@Z 00440364 f   mfc42d:MFC42D.DLL
 0001:0003f36a       ?AssertValid@CControlBar@@UBEXXZ 0044036a f   mfc42d:MFC42D.DLL
 0001:0003f370       ?GetRuntimeClass@CControlBar@@UBEPAUCRuntimeClass@@XZ 00440370 f   mfc42d:MFC42D.DLL
 0001:0003f376       ??1CControlBar@@UAE@XZ     00440376 f   mfc42d:MFC42D.DLL
 0001:0003f37c       ??0CSize@@QAE@XZ           0044037c f   mfc42d:MFC42D.DLL
 0001:0003f382       ??0CControlBar@@IAE@XZ     00440382 f   mfc42d:MFC42D.DLL
 0001:0003f388       ?MoveWindow@CWnd@@QAEXHHHHH@Z 00440388 f   mfc42d:MFC42D.DLL
 0001:0003f38e       ?Size@CRect@@QBE?AVCSize@@XZ 0044038e f   mfc42d:MFC42D.DLL
 0001:0003f394       ?LoadStandardCursor@CWinApp@@QBEPAUHICON__@@PBD@Z 00440394 f   mfc42d:MFC42D.DLL
 0001:0003f39a       ??0CSize@@QAE@HH@Z         0044039a f   mfc42d:MFC42D.DLL
 0001:0003f3a0       ?UpdateDialogControls@CWnd@@QAEXPAVCCmdTarget@@H@Z 004403a0 f   mfc42d:MFC42D.DLL
 0001:0003f3a6       ??1CTabCtrl@@UAE@XZ        004403a6 f   mfc42d:MFC42D.DLL
 0001:0003f3ac       ??0CTabCtrl@@QAE@XZ        004403ac f   mfc42d:MFC42D.DLL
 0001:0003f3b2       ?ScreenToClient@CWnd@@QBEXPAUtagRECT@@@Z 004403b2 f   mfc42d:MFC42D.DLL
 0001:0003f3b8       ?SendDlgItemMessageA@CWnd@@QAEJHIIJ@Z 004403b8 f   mfc42d:MFC42D.DLL
 0001:0003f3be       ?InsertItem@CTabCtrl@@QAEHHPAUtagTCITEMA@@@Z 004403be f   mfc42d:MFC42D.DLL
 0001:0003f3c4       ?GetCurSel@CTabCtrl@@QBEHXZ 004403c4 f   mfc42d:MFC42D.DLL
 0001:0003f3ca       ?ExitHelpMode@CFrameWnd@@UAEXXZ 004403ca f   mfc42d:MFC42D.DLL
 0001:0003f3d0       ?DelayUpdateFrameMenu@CFrameWnd@@UAEXPAUHMENU__@@@Z 004403d0 f   mfc42d:MFC42D.DLL
 0001:0003f3d6       ?GetDefaultAccelerator@CFrameWnd@@UAEPAUHACCEL__@@XZ 004403d6 f   mfc42d:MFC42D.DLL
 0001:0003f3dc       ?OnUpdateFrameMenu@CFrameWnd@@UAEXPAUHMENU__@@@Z 004403dc f   mfc42d:MFC42D.DLL
 0001:0003f3e2       ?OnUpdateFrameTitle@CFrameWnd@@UAEXH@Z 004403e2 f   mfc42d:MFC42D.DLL
 0001:0003f3e8       ?NegotiateBorderSpace@CFrameWnd@@UAEHIPAUtagRECT@@@Z 004403e8 f   mfc42d:MFC42D.DLL
 0001:0003f3ee       ?GetMessageBar@CFrameWnd@@UAEPAVCWnd@@XZ 004403ee f   mfc42d:MFC42D.DLL
 0001:0003f3f4       ?OnSetPreviewMode@CFrameWnd@@UAEXHPAUCPrintPreviewState@@@Z 004403f4 f   mfc42d:MFC42D.DLL
 0001:0003f3fa       ?ActivateFrame@CFrameWnd@@UAEXH@Z 004403fa f   mfc42d:MFC42D.DLL
 0001:0003f400       ?RecalcLayout@CFrameWnd@@UAEXH@Z 00440400 f   mfc42d:MFC42D.DLL
 0001:0003f406       ?GetMessageString@CFrameWnd@@UBEXIAAVCString@@@Z 00440406 f   mfc42d:MFC42D.DLL
 0001:0003f40c       ?GetActiveFrame@CFrameWnd@@UAEPAV1@XZ 0044040c f   mfc42d:MFC42D.DLL
 0001:0003f412       ?GetActiveDocument@CFrameWnd@@UAEPAVCDocument@@XZ 00440412 f   mfc42d:MFC42D.DLL
 0001:0003f418       ?LoadFrame@CFrameWnd@@UAEHIKPAVCWnd@@PAUCCreateContext@@@Z 00440418 f   mfc42d:MFC42D.DLL
 0001:0003f41e       ?IsFrameWnd@CFrameWnd@@UBEHXZ 0044041e f   mfc42d:MFC42D.DLL
 0001:0003f424       ?PostNcDestroy@CFrameWnd@@MAEXXZ 00440424 f   mfc42d:MFC42D.DLL
 0001:0003f42a       ?PreTranslateMessage@CFrameWnd@@UAEHPAUtagMSG@@@Z 0044042a f   mfc42d:MFC42D.DLL
 0001:0003f430       ?EndModalState@CFrameWnd@@UAEXXZ 00440430 f   mfc42d:MFC42D.DLL
 0001:0003f436       ?BeginModalState@CFrameWnd@@UAEXXZ 00440436 f   mfc42d:MFC42D.DLL
 0001:0003f43c       ?OnCommand@CFrameWnd@@MAEHIJ@Z 0044043c f   mfc42d:MFC42D.DLL
 0001:0003f442       ?PreCreateWindow@CFrameWnd@@MAEHAAUtagCREATESTRUCTA@@@Z 00440442 f   mfc42d:MFC42D.DLL
 0001:0003f448       ?OnCmdMsg@CFrameWnd@@UAEHIHPAXPAUAFX_CMDHANDLERINFO@@@Z 00440448 f   mfc42d:MFC42D.DLL
 0001:0003f44e       ??1CToolBar@@UAE@XZ        0044044e f   mfc42d:MFC42D.DLL
 0001:0003f454       ??1CStatusBar@@UAE@XZ      00440454 f   mfc42d:MFC42D.DLL
 0001:0003f45a       ??1CSplitterWnd@@UAE@XZ    0044045a f   mfc42d:MFC42D.DLL
 0001:0003f460       ??1CFrameWnd@@UAE@XZ       00440460 f   mfc42d:MFC42D.DLL
 0001:0003f466       ??0CToolBar@@QAE@XZ        00440466 f   mfc42d:MFC42D.DLL
 0001:0003f46c       ??0CStatusBar@@QAE@XZ      0044046c f   mfc42d:MFC42D.DLL
 0001:0003f472       ??0CSplitterWnd@@QAE@XZ    00440472 f   mfc42d:MFC42D.DLL
 0001:0003f478       ??0CFrameWnd@@QAE@XZ       00440478 f   mfc42d:MFC42D.DLL
 0001:0003f47e       ?LoadBarState@CFrameWnd@@QAEXPBD@Z 0044047e f   mfc42d:MFC42D.DLL
 0001:0003f484       ?DockControlBar@CFrameWnd@@QAEXPAVCControlBar@@IPBUtagRECT@@@Z 00440484 f   mfc42d:MFC42D.DLL
 0001:0003f48a       ?EnableDocking@CFrameWnd@@QAEXK@Z 0044048a f   mfc42d:MFC42D.DLL
 0001:0003f490       ?SetBarStyle@CControlBar@@QAEXK@Z 00440490 f   mfc42d:MFC42D.DLL
 0001:0003f496       ?GetBarStyle@CControlBar@@QAEKXZ 00440496 f   mfc42d:MFC42D.DLL
 0001:0003f49c       ?EnableDocking@CControlBar@@QAEXK@Z 0044049c f   mfc42d:MFC42D.DLL
 0001:0003f4a2       ?SetState@CToolBarCtrl@@QAEHHI@Z 004404a2 f   mfc42d:MFC42D.DLL
 0001:0003f4a8       ?GetState@CToolBarCtrl@@QBEHH@Z 004404a8 f   mfc42d:MFC42D.DLL
 0001:0003f4ae       ?GetToolBarCtrl@CToolBar@@QBEAAVCToolBarCtrl@@XZ 004404ae f   mfc42d:MFC42D.DLL
 0001:0003f4b4       ?SetButtonStyle@CToolBar@@QAEXHI@Z 004404b4 f   mfc42d:MFC42D.DLL
 0001:0003f4ba       ?SetPaneStyle@CStatusBar@@QAEXHI@Z 004404ba f   mfc42d:MFC42D.DLL
 0001:0003f4c0       ?SetIndicators@CStatusBar@@QAEHPBIH@Z 004404c0 f   mfc42d:MFC42D.DLL
 0001:0003f4c6       ?Create@CStatusBar@@QAEHPAVCWnd@@KI@Z 004404c6 f   mfc42d:MFC42D.DLL
 0001:0003f4cc       ?LoadToolBar@CToolBar@@QAEHI@Z 004404cc f   mfc42d:MFC42D.DLL
 0001:0003f4d2       ?Create@CToolBar@@QAEHPAVCWnd@@KI@Z 004404d2 f   mfc42d:MFC42D.DLL
 0001:0003f4d8       ?OnCreate@CFrameWnd@@IAEHPAUtagCREATESTRUCTA@@@Z 004404d8 f   mfc42d:MFC42D.DLL
 0001:0003f4de       ?CreateStatic@CSplitterWnd@@QAEHPAVCWnd@@HHKI@Z 004404de f   mfc42d:MFC42D.DLL
 0001:0003f4e4       ?AssertValid@CFrameWnd@@UBEXXZ 004404e4 f   mfc42d:MFC42D.DLL
 0001:0003f4ea       ?Dump@CFrameWnd@@UBEXAAVCDumpContext@@@Z 004404ea f   mfc42d:MFC42D.DLL
 0001:0003f4f0       ?ShowControlBar@CFrameWnd@@QAEXPAVCControlBar@@HH@Z 004404f0 f   mfc42d:MFC42D.DLL
 0001:0003f4f6       ?GetStyle@CWnd@@QBEKXZ     004404f6 f   mfc42d:MFC42D.DLL
 0001:0003f4fc       ?DoModal@CPropertySheet@@UAEHXZ 004404fc f   mfc42d:MFC42D.DLL
 0001:0003f502       ??8@YG_NABVCString@@PBD@Z  00440502 f   mfc42d:MFC42D.DLL
 0001:0003f508       ?OnInitMenuPopup@CFrameWnd@@IAEXPAVCMenu@@IH@Z 00440508 f   mfc42d:MFC42D.DLL
 0001:0003f50e       ?SetPaneText@CStatusBar@@QAEHHPBDH@Z 0044050e f   mfc42d:MFC42D.DLL
 0001:0003f514       ?OnClose@CFrameWnd@@IAEXXZ 00440514 f   mfc42d:MFC42D.DLL
 0001:0003f51a       ?SaveBarState@CFrameWnd@@QBEXPBD@Z 0044051a f   mfc42d:MFC42D.DLL
 0001:0003f520       ??0CButton@@QAE@XZ         00440520 f   mfc42d:MFC42D.DLL
 0001:0003f526       ?GetFileName@CFileDialog@@QBE?AVCString@@XZ 00440526 f   mfc42d:MFC42D.DLL
 0001:0003f52c       ?SetIcon@CButton@@QAEPAUHICON__@@PAU2@@Z 0044052c f   mfc42d:MFC42D.DLL
 0001:0003f532       ?AfxGetResourceHandle@@YGPAUHINSTANCE__@@XZ 00440532 f   mfc42d:MFC42D.DLL
 0001:0003f538       ?OnWizardFinish@CPropertyPage@@UAEHXZ 00440538 f   mfc42d:MFC42D.DLL
 0001:0003f53e       ?OnWizardNext@CPropertyPage@@UAEJXZ 0044053e f   mfc42d:MFC42D.DLL
 0001:0003f544       ?OnWizardBack@CPropertyPage@@UAEJXZ 00440544 f   mfc42d:MFC42D.DLL
 0001:0003f54a       ?OnQueryCancel@CPropertyPage@@UAEHXZ 0044054a f   mfc42d:MFC42D.DLL
 0001:0003f550       ?OnKillActive@CPropertyPage@@UAEHXZ 00440550 f   mfc42d:MFC42D.DLL
 0001:0003f556       ?OnSetActive@CPropertyPage@@UAEHXZ 00440556 f   mfc42d:MFC42D.DLL
 0001:0003f55c       ?OnReset@CPropertyPage@@UAEXXZ 0044055c f   mfc42d:MFC42D.DLL
 0001:0003f562       ?OnCancel@CPropertyPage@@UAEXXZ 00440562 f   mfc42d:MFC42D.DLL
 0001:0003f568       ?OnOK@CPropertyPage@@UAEXXZ 00440568 f   mfc42d:MFC42D.DLL
 0001:0003f56e       ?PreTranslateMessage@CPropertyPage@@MAEHPAUtagMSG@@@Z 0044056e f   mfc42d:MFC42D.DLL
 0001:0003f574       ?OnNotify@CPropertyPage@@MAEHIJPAJ@Z 00440574 f   mfc42d:MFC42D.DLL
 0001:0003f57a       ?Dump@CPropertyPage@@UBEXAAVCDumpContext@@@Z 0044057a f   mfc42d:MFC42D.DLL
 0001:0003f580       ?AssertValid@CPropertyPage@@UBEXXZ 00440580 f   mfc42d:MFC42D.DLL
 0001:0003f586       ??1CPropertyPage@@UAE@XZ   00440586 f   mfc42d:MFC42D.DLL
 0001:0003f58c       ??0CPropertyPage@@QAE@II@Z 0044058c f   mfc42d:MFC42D.DLL
 0001:0003f592       ?DDV_MinMaxLong@@YGXPAVCDataExchange@@JJJ@Z 00440592 f   mfc42d:MFC42D.DLL
 0001:0003f598       ?DDX_Text@@YGXPAVCDataExchange@@HAAJ@Z 00440598 f   mfc42d:MFC42D.DLL
 0001:0003f59e       ?OnApply@CPropertyPage@@UAEHXZ 0044059e f   mfc42d:MFC42D.DLL
 0001:0003f5a4       ?SetModified@CPropertyPage@@QAEXH@Z 004405a4 f   mfc42d:MFC42D.DLL
 0001:0003f5aa       ?DDV_MinMaxFloat@@YGXPAVCDataExchange@@ABMMM@Z 004405aa f   mfc42d:MFC42D.DLL
 0001:0003f5b0       ?BuildPropPageArray@CPropertySheet@@UAEXXZ 004405b0 f   mfc42d:MFC42D.DLL
 0001:0003f5b6       ?PreTranslateMessage@CPropertySheet@@UAEHPAUtagMSG@@@Z 004405b6 f   mfc42d:MFC42D.DLL
 0001:0003f5bc       ?OnCommand@CPropertySheet@@UAEHIJ@Z 004405bc f   mfc42d:MFC42D.DLL
 0001:0003f5c2       ?ContinueModal@CPropertySheet@@UAEHXZ 004405c2 f   mfc42d:MFC42D.DLL
 0001:0003f5c8       ?OnCmdMsg@CPropertySheet@@UAEHIHPAXPAUAFX_CMDHANDLERINFO@@@Z 004405c8 f   mfc42d:MFC42D.DLL
 0001:0003f5ce       ?Dump@CPropertySheet@@UBEXAAVCDumpContext@@@Z 004405ce f   mfc42d:MFC42D.DLL
 0001:0003f5d4       ?AssertValid@CPropertySheet@@UBEXXZ 004405d4 f   mfc42d:MFC42D.DLL
 0001:0003f5da       ??1CPropertySheet@@UAE@XZ  004405da f   mfc42d:MFC42D.DLL
 0001:0003f5e0       ?AddPage@CPropertySheet@@QAEXPAVCPropertyPage@@@Z 004405e0 f   mfc42d:MFC42D.DLL
 0001:0003f5e6       ??0CPropertySheet@@QAE@IPAVCWnd@@I@Z 004405e6 f   mfc42d:MFC42D.DLL
 0001:0003f5ec       ??0CPropertySheet@@QAE@PBDPAVCWnd@@I@Z 004405ec f   mfc42d:MFC42D.DLL
 0001:0003f5f2       ?OnInitDialog@CPropertySheet@@UAEHXZ 004405f2 f   mfc42d:MFC42D.DLL
 0001:0003f5f8       ?GetRuntimeClass@CObject@@UBEPAUCRuntimeClass@@XZ 004405f8 f   mfc42d:MFC42D.DLL
 0001:0003f5fe       ??0CProgressCtrl@@QAE@XZ   004405fe f   mfc42d:MFC42D.DLL
 0001:0003f604       ??1CProgressCtrl@@UAE@XZ   00440604 f   mfc42d:MFC42D.DLL
 0001:0003f60a       ?OnTypeChange@CFileDialog@@MAEXXZ 0044060a f   mfc42d:MFC42D.DLL
 0001:0003f610       ?OnFolderChange@CFileDialog@@MAEXXZ 00440610 f   mfc42d:MFC42D.DLL
 0001:0003f616       ?OnFileNameChange@CFileDialog@@MAEXXZ 00440616 f   mfc42d:MFC42D.DLL
 0001:0003f61c       ?OnLBSelChangedNotify@CFileDialog@@MAEXIII@Z 0044061c f   mfc42d:MFC42D.DLL
 0001:0003f622       ?OnFileNameOK@CFileDialog@@MAEHXZ 00440622 f   mfc42d:MFC42D.DLL
 0001:0003f628       ?OnShareViolation@CFileDialog@@MAEIPBD@Z 00440628 f   mfc42d:MFC42D.DLL
 0001:0003f62e       ?OnCancel@CCommonDialog@@MAEXXZ 0044062e f   mfc42d:MFC42D.DLL
 0001:0003f634       ?OnOK@CCommonDialog@@MAEXXZ 00440634 f   mfc42d:MFC42D.DLL
 0001:0003f63a       ?OnNotify@CFileDialog@@MAEHIJPAJ@Z 0044063a f   mfc42d:MFC42D.DLL
 0001:0003f640       ?Dump@CFileDialog@@UBEXAAVCDumpContext@@@Z 00440640 f   mfc42d:MFC42D.DLL
 0001:0003f646       ?SetTemplate@CFileDialog@@QAEXII@Z 00440646 f   mfc42d:MFC42D.DLL
 0001:0003f64c       ?OnInitDone@CFileDialog@@MAEXXZ 0044064c f   mfc42d:MFC42D.DLL
 0001:0003f652       ?Empty@CString@@QAEXXZ     00440652 f   mfc42d:MFC42D.DLL
 0001:0003f658       ?OpenClipboard@CWnd@@QAEHXZ 00440658 f   mfc42d:MFC42D.DLL
 0001:0003f65e       ??5CArchive@@QAEAAV0@AAM@Z 0044065e f   mfc42d:MFC42D.DLL
 0001:0003f664       ??6CArchive@@QAEAAV0@M@Z   00440664 f   mfc42d:MFC42D.DLL
 0001:0003f66a       ?Right@CString@@QBE?AV1@H@Z 0044066a f   mfc42d:MFC42D.DLL
 0001:0003f670       ?SetRect@CRect@@QAEXHHHH@Z 00440670 f   mfc42d:MFC42D.DLL
 0001:0003f676       ?GetBitmap@CBitmap@@QAEHPAUtagBITMAP@@@Z 00440676 f   mfc42d:MFC42D.DLL
 0001:0003f67c       ?LoadBitmapA@CBitmap@@QAEHI@Z 0044067c f   mfc42d:MFC42D.DLL
 0001:0003f682       ?CenterWindow@CWnd@@QAEXPAV1@@Z 00440682 f   mfc42d:MFC42D.DLL
 0001:0003f688       ?OnCreate@CWnd@@IAEHPAUtagCREATESTRUCTA@@@Z 00440688 f   mfc42d:MFC42D.DLL
 0001:0003f68e       ?BitBlt@CDC@@QAEHHHHHPAV1@HHK@Z 0044068e f   mfc42d:MFC42D.DLL
 0001:0003f694       ?SelectObject@CDC@@QAEPAVCBitmap@@PAV2@@Z 00440694 f   mfc42d:MFC42D.DLL
 0001:0003f69a       ??1CDC@@UAE@XZ             0044069a f   mfc42d:MFC42D.DLL
 0001:0003f6a0       ?CreateCompatibleDC@CDC@@QAEHPAV1@@Z 004406a0 f   mfc42d:MFC42D.DLL
 0001:0003f6a6       ??0CDC@@QAE@XZ             004406a6 f   mfc42d:MFC42D.DLL
 0001:0003f6ac       ?SetPos@CProgressCtrl@@QAEHH@Z 004406ac f   mfc42d:MFC42D.DLL
 0001:0003f6b2       ?SetRange@CProgressCtrl@@QAEXFF@Z 004406b2 f   mfc42d:MFC42D.DLL
 0001:0003f6b8       ?ModifyMenuA@CMenu@@QAEHIIIPBD@Z 004406b8 f   mfc42d:MFC42D.DLL
 0001:0003f6be       ?OnLButtonUp@CWnd@@IAEXIVCPoint@@@Z 004406be f   mfc42d:MFC42D.DLL
 0001:0003f6c4       ??2@YAPAXI@Z               004406c4 f   mfc42d:MFC42D.DLL
 0001:0003f6ca       ?GetRuntimeClass@CStatic@@UBEPAUCRuntimeClass@@XZ 004406ca f   mfc42d:MFC42D.DLL
 0001:0003f6d0       ??1CStatic@@UAE@XZ         004406d0 f   mfc42d:MFC42D.DLL
 0001:0003f6d6       ?GetRuntimeClass@CBitmap@@UBEPAUCRuntimeClass@@XZ 004406d6 f   mfc42d:MFC42D.DLL
 0001:0003f6dc       ?GetRuntimeClass@CGdiObject@@UBEPAUCRuntimeClass@@XZ 004406dc f   mfc42d:MFC42D.DLL
 0001:0003f6e2       ?DeleteObject@CGdiObject@@QAEHXZ 004406e2 f   mfc42d:MFC42D.DLL
 0001:0003f6e8       ?Attach@CGdiObject@@QAEHPAX@Z 004406e8 f   mfc42d:MFC42D.DLL
 0001:0003f6ee       ?AfxFindResourceHandle@@YGPAUHINSTANCE__@@PBD0@Z 004406ee f   mfc42d:MFC42D.DLL
 0001:0003f6f4       ?FromHandle@CWnd@@SGPAV1@PAUHWND__@@@Z 004406f4 f   mfc42d:MFC42D.DLL
 0001:0003f6fa       ?ReleaseBuffer@CString@@QAEXH@Z 004406fa f   mfc42d:MFC42D.DLL
 0001:0003f700       ?GetBuffer@CString@@QAEPADH@Z 00440700 f   mfc42d:MFC42D.DLL
 0001:0003f706       ?Default@CWnd@@IAEJXZ      00440706 f   mfc42d:MFC42D.DLL
 0001:0003f70c       ??YCString@@QAEABV0@D@Z    0044070c f   mfc42d:MFC42D.DLL
 0001:0003f712       ?IsWindowEnabled@CWnd@@QBEHXZ 00440712 f   mfc42d:MFC42D.DLL
 0001:0003f718       ?TrimLeft@CString@@QAEXXZ  00440718 f   mfc42d:MFC42D.DLL
 0001:0003f71e       ?GetCurrentMessage@CWnd@@KGPBUtagMSG@@XZ 0044071e f   mfc42d:MFC42D.DLL
 0001:0003f724       ?Attach@CDC@@QAEHPAUHDC__@@@Z 00440724 f   mfc42d:MFC42D.DLL
 0001:0003f72a       ?Replace@CString@@QAEHPBD0@Z 0044072a f   mfc42d:MFC42D.DLL
 0001:0003f730       ?FromHandle@CGdiObject@@SGPAV1@PAX@Z 00440730 f   mfc42d:MFC42D.DLL
 0001:0003f736       ?AfxThrowUserException@@YGXXZ 00440736 f   mfc42d:MFC42D.DLL
 0001:0003f73c       ?LoadStringA@CString@@QAEHI@Z 0044073c f   mfc42d:MFC42D.DLL
 0001:0003f742       ??0CDialog@@QAE@XZ         00440742 f   mfc42d:MFC42D.DLL
 0001:0003f748       ?Create@CDialog@@QAEHPBDPAVCWnd@@@Z 00440748 f   mfc42d:MFC42D.DLL
 0001:0003f74e       ?SendMessageToDescendants@CWnd@@SGXPAUHWND__@@IIJHH@Z 0044074e f   mfc42d:MFC42D.DLL
 0001:0003f754       ?GetRuntimeClass@CPropertyPage@@UBEPAUCRuntimeClass@@XZ 00440754 f   mfc42d:MFC42D.DLL
 0001:0003f75a       ?AfxGetModuleState@@YGPAVAFX_MODULE_STATE@@XZ 0044075a f   mfc42d:MFC42D.DLL
 0001:0003f760       ?OnNcDestroy@CWnd@@IAEXXZ  00440760 f   mfc42d:MFC42D.DLL
 0001:0003f766       ?GetRuntimeClass@CPtrList@@UBEPAUCRuntimeClass@@XZ 00440766 f   mfc42d:MFC42D.DLL
 0001:0003f76c       ?FromHandlePermanent@CWnd@@SGPAV1@PAUHWND__@@@Z 0044076c f   mfc42d:MFC42D.DLL
 0001:0003f772       ??0CPtrList@@QAE@H@Z       00440772 f   mfc42d:MFC42D.DLL
 0001:0003f778       ??1CPtrList@@UAE@XZ        00440778 f   mfc42d:MFC42D.DLL
 0001:0003f77e       ?RemoveAll@CPtrList@@QAEXXZ 0044077e f   mfc42d:MFC42D.DLL
 0001:0003f784       ?AddHead@CPtrList@@QAEPAU__POSITION@@PAX@Z 00440784 f   mfc42d:MFC42D.DLL
 0001:0003f78a       ?RemoveAt@CPtrList@@QAEXPAU__POSITION@@@Z 0044078a f   mfc42d:MFC42D.DLL
 0001:0003f790       ___CxxFrameHandler         00440790 f   msvcrtd:MSVCRTD.dll
 0001:0003f7a0       ??0type_info@@AAE@ABV0@@Z  004407a0 f   msvcrtd:ti_inst.obj
 0001:0003f7c0       ??_Gtype_info@@UAEPAXI@Z   004407c0 f i msvcrtd:ti_inst.obj
 0001:0003f7c0       ??_Etype_info@@UAEPAXI@Z   004407c0 f i msvcrtd:ti_inst.obj
 0001:0003f7f0       ??4type_info@@AAEAAV0@ABV0@@Z 004407f0 f   msvcrtd:ti_inst.obj
 0001:0003f800       _strcpy                    00440800 f   msvcrtd:MSVCRTD.dll
 0001:0003f806       _atof                      00440806 f   msvcrtd:MSVCRTD.dll
 0001:0003f80c       __access                   0044080c f   msvcrtd:MSVCRTD.dll
 0001:0003f820       ??_M@YGXPAXIHP6EX0@Z@Z     00440820 f   msvcrtd:ehvecdtr.obj
 0001:0003f8d0       ?__ArrayUnwind@@YGXPAXIHP6EX0@Z@Z 004408d0 f   msvcrtd:ehvecdtr.obj
 0001:0003f97c       __splitpath                0044097c f   msvcrtd:MSVCRTD.dll
 0001:0003f990       __chkstk                   00440990 f   msvcrtd:chkstk.obj
 0001:0003f990       __alloca_probe             00440990 f   msvcrtd:chkstk.obj
 0001:0003f9c0       _sin                       004409c0 f   msvcrtd:MSVCRTD.dll
 0001:0003f9c6       _atan                      004409c6 f   msvcrtd:MSVCRTD.dll
 0001:0003f9d0       ??_L@YGXPAXIHP6EX0@Z1@Z    004409d0 f   msvcrtd:ehvecctr.obj
 0001:0003fa70       __allmul                   00440a70 f   msvcrtd:llmul.obj
 0001:0003faa4       _sqrt                      00440aa4 f   msvcrtd:MSVCRTD.dll
 0001:0003faaa       _fabs                      00440aaa f   msvcrtd:MSVCRTD.dll
 0001:0003fab0       __ftol                     00440ab0 f   msvcrtd:MSVCRTD.dll
 0001:0003fac0       __onexit                   00440ac0 f   msvcrtd:atonexit.obj
 0001:0003fb00       _atexit                    00440b00 f   msvcrtd:atonexit.obj
 0001:0003fb18       __spawnl                   00440b18 f   msvcrtd:MSVCRTD.dll
 0001:0003fb1e       _getenv                    00440b1e f   msvcrtd:MSVCRTD.dll
 0001:0003fb24       _strlen                    00440b24 f   msvcrtd:MSVCRTD.dll
 0001:0003fb2a       _memcpy                    00440b2a f   msvcrtd:MSVCRTD.dll
 0001:0003fb30       _atoi                      00440b30 f   msvcrtd:MSVCRTD.dll
 0001:0003fb36       _ceil                      00440b36 f   msvcrtd:MSVCRTD.dll
 0001:0003fb3c       _memset                    00440b3c f   msvcrtd:MSVCRTD.dll
 0001:0003fb42       __purecall                 00440b42 f   msvcrtd:MSVCRTD.dll
 0001:0003fb48       _cos                       00440b48 f   msvcrtd:MSVCRTD.dll
 0001:0003fb50       _WinMainCRTStartup         00440b50 f   msvcrtd:crtexew.obj
 0001:0003fd4a       _floor                     00440d4a f   msvcrtd:MSVCRTD.dll
 0001:0003fd50       __CIpow                    00440d50 f   msvcrtd:MSVCRTD.dll
 0001:0003fd56       __copysign                 00440d56 f   msvcrtd:MSVCRTD.dll
 0001:0003fd5c       __clearfp                  00440d5c f   msvcrtd:MSVCRTD.dll
 0001:0003fd62       __control87                00440d62 f   msvcrtd:MSVCRTD.dll
 0001:0003fd68       _sprintf                   00440d68 f   msvcrtd:MSVCRTD.dll
 0001:0003fd6e       __hypot                    00440d6e f   msvcrtd:MSVCRTD.dll
 0001:0003fd74       __finite                   00440d74 f   msvcrtd:MSVCRTD.dll
 0001:0003fd7a       _toupper                   00440d7a f   msvcrtd:MSVCRTD.dll
 0001:0003fd80       _isdigit                   00440d80 f   msvcrtd:MSVCRTD.dll
 0001:0003fd86       _strtoul                   00440d86 f   msvcrtd:MSVCRTD.dll
 0001:0003fd8c       _free                      00440d8c f   msvcrtd:MSVCRTD.dll
 0001:0003fd92       _strchr                    00440d92 f   msvcrtd:MSVCRTD.dll
 0001:0003fd98       ___RTDynamicCast           00440d98 f   msvcrtd:MSVCRTD.dll
 0001:0003fd9e       ??1type_info@@UAE@XZ       00440d9e f   msvcrtd:MSVCRTD.dll
 0001:0003fda4       __except_handler3          00440da4 f   msvcrtd:MSVCRTD.dll
 0001:0003fdaa       ?terminate@@YAXXZ          00440daa f   msvcrtd:MSVCRTD.dll
 0001:0003fdb0       ___dllonexit               00440db0 f   msvcrtd:MSVCRTD.dll
 0001:0003fdb6       __exit                     00440db6 f   msvcrtd:MSVCRTD.dll
 0001:0003fdbc       __XcptFilter               00440dbc f   msvcrtd:MSVCRTD.dll
 0001:0003fdc2       _exit                      00440dc2 f   msvcrtd:MSVCRTD.dll
 0001:0003fdc8       ___getmainargs             00440dc8 f   msvcrtd:MSVCRTD.dll
 0001:0003fdce       __initterm                 00440dce f   msvcrtd:MSVCRTD.dll
 0001:0003fde0       __setdefaultprecision      00440de0 f   msvcrtd:fp8.obj
 0001:0003fdf8       ___setusermatherr          00440df8 f   msvcrtd:MSVCRTD.dll
 0001:0003fe00       __matherr                  00440e00 f   msvcrtd:merr.obj
 0001:0003fe10       __setargv                  00440e10 f   msvcrtd:dllargv.obj
 0001:0003fe16       ___p__commode              00440e16 f   msvcrtd:MSVCRTD.dll
 0001:0003fe1c       ___p__fmode                00440e1c f   msvcrtd:MSVCRTD.dll
 0001:0003fe22       ___set_app_type            00440e22 f   msvcrtd:MSVCRTD.dll
 0001:0003fe28       __controlfp                00440e28 f   msvcrtd:MSVCRTD.dll
 0001:0003fe2e       _GetProcAddress@8          00440e2e f   kernel32:KERNEL32.dll
 0001:0003fe34       _lstrcpyA@8                00440e34 f   kernel32:KERNEL32.dll
 0001:0003fe3a       _GetSystemDirectoryA@8     00440e3a f   kernel32:KERNEL32.dll
 0001:0003fe40       _GetVersionExA@4           00440e40 f   kernel32:KERNEL32.dll
 0001:0003fe46       _GetLastError@0            00440e46 f   kernel32:KERNEL32.dll
 0001:0003fe4c       _MultiByteToWideChar@24    00440e4c f   kernel32:KERNEL32.dll
 0001:0003fe52       _GlobalUnlock@4            00440e52 f   kernel32:KERNEL32.dll
 0001:0003fe58       _GlobalLock@4              00440e58 f   kernel32:KERNEL32.dll
 0001:0003fe5e       _GlobalAlloc@8             00440e5e f   kernel32:KERNEL32.dll
 0001:0003fe64       _Sleep@4                   00440e64 f   kernel32:KERNEL32.dll
 0001:0003fe6a       _lstrcmpA@8                00440e6a f   kernel32:KERNEL32.dll
 0001:0003fe70       _InitializeCriticalSection@4 00440e70 f   kernel32:KERNEL32.dll
 0001:0003fe76       _DeleteCriticalSection@4   00440e76 f   kernel32:KERNEL32.dll
 0001:0003fe7c       _GetCurrentThreadId@0      00440e7c f   kernel32:KERNEL32.dll
 0001:0003fe82       _LeaveCriticalSection@4    00440e82 f   kernel32:KERNEL32.dll
 0001:0003fe88       _EnterCriticalSection@4    00440e88 f   kernel32:KERNEL32.dll
 0001:0003fe8e       _GetModuleHandleA@4        00440e8e f   kernel32:KERNEL32.dll
 0001:0003fe94       _GetStartupInfoA@4         00440e94 f   kernel32:KERNEL32.dll
 0001:0003fe9a       _IsWindow@4                00440e9a f   user32:USER32.dll
 0001:0003fea0       _GetCursorPos@4            00440ea0 f   user32:USER32.dll
 0001:0003fea6       _MessageBeep@4             00440ea6 f   user32:USER32.dll
 0001:0003feac       _IsCharAlphaA@4            00440eac f   user32:USER32.dll
 0001:0003feb2       _IsCharAlphaNumericA@4     00440eb2 f   user32:USER32.dll
 0001:0003feb8       _SendMessageA@16           00440eb8 f   user32:USER32.dll
 0001:0003febe       _LoadImageA@24             00440ebe f   user32:USER32.dll
 0001:0003fec4       _CloseClipboard@0          00440ec4 f   user32:USER32.dll
 0001:0003feca       _SetClipboardData@8        00440eca f   user32:USER32.dll
 0001:0003fed0       _EmptyClipboard@0          00440ed0 f   user32:USER32.dll
 0001:0003fed6       _ReleaseDC@8               00440ed6 f   user32:USER32.dll
 0001:0003fedc       _GetDC@4                   00440edc f   user32:USER32.dll
 0001:0003fee2       _GetClientRect@8           00440ee2 f   user32:USER32.dll
 0001:0003fee8       _LoadBitmapA@8             00440ee8 f   user32:USER32.dll
 0001:0003feee       _EnableWindow@8            00440eee f   user32:USER32.dll
 0001:0003fef4       _GetParent@4               00440ef4 f   user32:USER32.dll
 0001:0003fefa       _DrawFocusRect@8           00440efa f   user32:USER32.dll
 0001:0003ff00       _FillRect@12               00440f00 f   user32:USER32.dll
 0001:0003ff06       _GetSysColor@4             00440f06 f   user32:USER32.dll
 0001:0003ff0c       _RegisterWindowMessageA@4  00440f0c f   user32:USER32.dll
 0001:0003ff12       _OffsetRect@12             00440f12 f   user32:USER32.dll
 0001:0003ff18       _GetWindowRect@8           00440f18 f   user32:USER32.dll
 0001:0003ff1e       _InflateRect@12            00440f1e f   user32:USER32.dll
 0001:0003ff24       _PostMessageA@16           00440f24 f   user32:USER32.dll
 0001:0003ff2a       _SetFocus@4                00440f2a f   user32:USER32.dll
 0001:0003ff30       _GetWindowLongA@8          00440f30 f   user32:USER32.dll
 0001:0003ff36       _GetDlgItem@8              00440f36 f   user32:USER32.dll
 0001:0003ff3c       _GetFocus@0                00440f3c f   user32:USER32.dll
 0001:0003ff42       _GetClassNameA@12          00440f42 f   user32:USER32.dll
 0001:0003ff48       _SetWindowLongA@12         00440f48 f   user32:USER32.dll
 0001:0003ff4e       _DestroyWindow@4           00440f4e f   user32:USER32.dll
 0001:0003ff54       _InvalidateRect@12         00440f54 f   user32:USER32.dll
 0001:0003ff5a       _GetDlgCtrlID@4            00440f5a f   user32:USER32.dll
 0001:0003ff60       _MapWindowPoints@16        00440f60 f   user32:USER32.dll
 0001:0003ff66       _PtInRect@12               00440f66 f   user32:USER32.dll
 0001:0003ff6c       _SetCapture@4              00440f6c f   user32:USER32.dll
 0001:0003ff72       _ReleaseCapture@0          00440f72 f   user32:USER32.dll
 0001:0003ff78       _GetNextDlgGroupItem@12    00440f78 f   user32:USER32.dll
 0001:0003ff7e       _GetCapture@0              00440f7e f   user32:USER32.dll
 0001:0003ff84       _DrawTextA@20              00440f84 f   user32:USER32.dll
 0001:0003ff8a       _SetRectEmpty@4            00440f8a f   user32:USER32.dll
 0001:0003ff90       _SetWindowPos@28           00440f90 f   user32:USER32.dll
 0001:0003ff96       _SetParent@8               00440f96 f   user32:USER32.dll
 0001:0003ff9c       _IsRectEmpty@4             00440f9c f   user32:USER32.dll
 0001:0003ffa2       _GetWindow@8               00440fa2 f   user32:USER32.dll
 0001:0003ffa8       _ClientToScreen@8          00440fa8 f   user32:USER32.dll
 0001:0003ffae       _ShowWindow@8              00440fae f   user32:USER32.dll
 0001:0003ffb4       _LoadCursorA@8             00440fb4 f   user32:USER32.dll
 0001:0003ffba       _GetActiveWindow@0         00440fba f   user32:USER32.dll
 0001:0003ffc0       _GetWindowThreadProcessId@8 00440fc0 f   user32:USER32.dll
 0001:0003ffc6       _LPtoDP@12                 00440fc6 f   gdi32:GDI32.dll
 0001:0003ffcc       _DeleteDC@4                00440fcc f   gdi32:GDI32.dll
 0001:0003ffd2       _SelectObject@8            00440fd2 f   gdi32:GDI32.dll
 0001:0003ffd8       _StretchBlt@44             00440fd8 f   gdi32:GDI32.dll
 0001:0003ffde       _GetObjectA@12             00440fde f   gdi32:GDI32.dll
 0001:0003ffe4       _CreateCompatibleBitmap@12 00440fe4 f   gdi32:GDI32.dll
 0001:0003ffea       _CreateCompatibleDC@4      00440fea f   gdi32:GDI32.dll
 0001:0003fff0       _DeleteObject@4            00440ff0 f   gdi32:GDI32.dll
 0001:0003fff6       _BitBlt@36                 00440ff6 f   gdi32:GDI32.dll
 0001:0003fffc       _TextOutA@20               00440ffc f   gdi32:GDI32.dll
 0001:00040002       _MoveToEx@16               00441002 f   gdi32:GDI32.dll
 0001:00040008       _SetTextAlign@8            00441008 f   gdi32:GDI32.dll
 0001:0004000e       _SetTextColor@8            0044100e f   gdi32:GDI32.dll
 0001:00040014       _SetBkColor@8              00441014 f   gdi32:GDI32.dll
 0001:0004001a       _CreateFontIndirectA@4     0044101a f   gdi32:GDI32.dll
 0001:00040020       _GetDeviceCaps@8           00441020 f   gdi32:GDI32.dll
 0001:00040026       _GetTextMetricsA@8         00441026 f   gdi32:GDI32.dll
 0001:0004002c       _CreateSolidBrush@4        0044102c f   gdi32:GDI32.dll
 0001:00040032       _GetTextExtentPoint32A@16  00441032 f   gdi32:GDI32.dll
 0001:00040038       _GetStockObject@4          00441038 f   gdi32:GDI32.dll
 0001:0004003e       _RegCloseKey@4             0044103e f   advapi32:ADVAPI32.dll
 0001:00040044       _RegDeleteKeyA@8           00441044 f   advapi32:ADVAPI32.dll
 0001:0004004a       _RegCreateKeyExA@36        0044104a f   advapi32:ADVAPI32.dll
 0001:00040050       _SHGetMalloc@4             00441050 f   shell32:SHELL32.dll
 0001:00040056       _SHGetPathFromIDListA@8    00441056 f   shell32:SHELL32.dll
 0001:0004005c       _SHBrowseForFolderA@4      0044105c f   shell32:SHELL32.dll
 0001:00040062       ?CreateControl@CWnd@@QAEHABU_GUID@@PBDKABUtagRECT@@PAV1@IPAVCFile@@HPAG@Z 00441062 f   mfco42d:MFCO42D.DLL
 0001:00040068       ?AfxThrowOleDispatchException@@YGXGPBDI@Z 00441068 f   mfco42d:MFCO42D.DLL
 0001:0004006e       ?AfxOleInit@@YGHXZ         0044106e f   mfco42d:MFCO42D.DLL
 0001:00040074       ?AfxEnableControlContainer@@YAXPAVCOccManager@@@Z 00441074 f   mfco42d:MFCO42D.DLL
 0001:0004007a       ?GetProperty@COleDispatchDriver@@QBEXJGPAX@Z 0044107a f   mfco42d:MFCO42D.DLL
 0001:00040080       ?SetProperty@COleDispatchDriver@@QAAXJGZZ 00441080 f   mfco42d:MFCO42D.DLL
 0001:00040086       ?InvokeHelper@COleDispatchDriver@@QAAXJGGPAXPBEZZ 00441086 f   mfco42d:MFCO42D.DLL
 0001:0004008c       ??0COleDispatchDriver@@QAE@XZ 0044108c f   mfco42d:MFCO42D.DLL
 0001:00040092       ??1COleDispatchDriver@@QAE@XZ 00441092 f   mfco42d:MFCO42D.DLL
 0001:00040098       ?CreateDispatch@COleDispatchDriver@@QAEHPBDPAVCOleException@@@Z 00441098 f   mfco42d:MFCO42D.DLL
 0001:0004009e       _CoTaskMemFree@4           0044109e f   ole32:ole32.dll
 0001:000400a4       _CoTaskMemAlloc@4          004410a4 f   ole32:ole32.dll
 0001:000400aa       _SafeArrayUnaccessData@4   004410aa f   oleaut32:OLEAUT32.dll
 0001:000400b0       _SafeArrayAccessData@8     004410b0 f   oleaut32:OLEAUT32.dll
 0001:000400b6       _VariantInit@4             004410b6 f   oleaut32:OLEAUT32.dll
 0001:000400bc       _VariantClear@4            004410bc f   oleaut32:OLEAUT32.dll
 0001:000400c2       _SafeArrayCreate@12        004410c2 f   oleaut32:OLEAUT32.dll
 0001:000400c8       _VariantCopy@8             004410c8 f   oleaut32:OLEAUT32.dll
 0001:000400ce       _SafeArrayCopy@8           004410ce f   oleaut32:OLEAUT32.dll
 0001:000400d4       _SafeArrayGetElement@12    004410d4 f   oleaut32:OLEAUT32.dll
 0001:000400e0       _WinMain@16                004410e0 f   mfcs42:appmodul.obj
 0001:000400f8       ?AfxInitialize@@YGHHK@Z    004410f8 f   mfcs42:appmodul.obj
 0001:00040138       __ultoa                    00441138 f   msvcrt:MSVCRT.dll
 0001:0004013e       __stricmp                  0044113e f   msvcrt:MSVCRT.dll
 0001:00040144       __strdup                   00441144 f   msvcrt:MSVCRT.dll
 0001:0004014a       __setmbcp                  0044114a f   msvcrt:MSVCRT.dll
 0001:00040150       ?AfxWinMain@@YGHPAUHINSTANCE__@@0PADH@Z 00441150 f   mfc42d:MFC42D.DLL
 0002:00000020       ?messageMap@CAcquisitionTab@@1UAFX_MSGMAP@@B 00446020     AcquisitionTab.obj
 0002:00000028       ?_messageEntries@CAcquisitionTab@@0QBUAFX_MSGMAP_ENTRY@@B 00446028     AcquisitionTab.obj
 0002:00000118       ??_7CAcquisitionTab@@6B@   00446118     AcquisitionTab.obj
 0002:000001f8       ??_7CIndicators@@6B@       004461f8     AcquisitionTab.obj
 0002:000002b8       ?clsid@?1??GetClsid@CIndicators@@QAEABU_GUID@@XZ@4U3@B 004462b8     AcquisitionTab.obj
 0002:000002c8       ??_C@_08DGBP@Untitled?$AA@ 004462c8     AcquisitionTab.obj
 0002:000002d4       ??_C@_00A@?$AA@            004462d4     AcquisitionTab.obj
 0002:000002d8       ??_C@_0BI@JCLB@Ole?5Exception?5occured?4?6?$AA@ 004462d8     AcquisitionTab.obj
 0002:000002f0       ??_C@_02MECO@?$CFd?$AA@    004462f0     AcquisitionTab.obj
 0002:000002f4       ??_C@_0L@JBBK@?$CFd?5seconds?$AA@ 004462f4     AcquisitionTab.obj
 0002:00000300       ?messageMap@CAddCalItem@@1UAFX_MSGMAP@@B 00446300     AddCalItem.obj
 0002:00000308       ?_messageEntries@CAddCalItem@@0QBUAFX_MSGMAP_ENTRY@@B 00446308     AddCalItem.obj
 0002:00000338       ??_7CAddCalItem@@6B@       00446338     AddCalItem.obj
 0002:00000410       ??_C@_0BE@EJGG@No?5marker?5selection?$AA@ 00446410     AddCalItem.obj
 0002:00000424       ??_C@_0P@BHIN@Time?5of?5?$CFsns?5?$DN?$AA@ 00446424     AddCalItem.obj
 0002:00000438       ?messageMap@CAnalysisTab@@1UAFX_MSGMAP@@B 00446438     AnalysisTab.obj
 0002:00000440       ?_messageEntries@CAnalysisTab@@0QBUAFX_MSGMAP_ENTRY@@B 00446440     AnalysisTab.obj
 0002:000004e8       ??_7CAnalysisTab@@6B@      004464e8     AnalysisTab.obj
 0002:000005c0       ??_C@_0L@BFCP@_GetName?$EA4?$AA@ 004465c0     AnalysisTab.obj
 0002:000005cc       ??_C@_0BK@FGMF@Measurement?5is?5Available?6?$AA@ 004465cc     AnalysisTab.obj
 0002:000005e8       ??_C@_09POHP@Found?5?$CFs?6?$AA@ 004465e8     AnalysisTab.obj
 0002:000005f4       ??_C@_04COF@None?$AA@      004465f4     AnalysisTab.obj
 0002:000005fc       ??_C@_0BJ@DIKG@?2Measurements?2Eclipse?$CK?4?$CK?$AA@ 004465fc     AnalysisTab.obj
 0002:00000618       ??_C@_0CM@PCDK@SafeArrayUnaccessData?5of?5Average@ 00446618     AnalysisTab.obj
 0002:00000644       ??_C@_0CM@HNPI@SafeArrayUnaccessData?5of?5Average@ 00446644     AnalysisTab.obj
 0002:00000670       ??_C@_0BP@OJED@SafeArrayUnaccessData?5failed?4?6?$AA@ 00446670     AnalysisTab.obj
 0002:00000690       ??_C@_0O@BNII@_Calculate?$EA28?$AA@ 00446690     AnalysisTab.obj
 0002:000006a0       ??_C@_06NDMJ@Marker?$AA@   004466a0     AnalysisTab.obj
 0002:000006a8       __real@8@00000000000000000000 004466a8     AnalysisTab.obj
 0002:000006b0       ??_C@_01KBOJ@s?$AA@        004466b0     AnalysisTab.obj
 0002:000006b4       ??_C@_0BN@GMIN@SafeArrayAccessData?5failed?6?4?$AA@ 004466b4     AnalysisTab.obj
 0002:000006d4       ??_C@_06PHBE@?$CFs?0?5?$CFs?$AA@ 004466d4     AnalysisTab.obj
 0002:000006dc       ??_C@_09BHJO@_GetVer?$EA4?$AA@ 004466dc     AnalysisTab.obj
 0002:000006e8       ?messageMap@CAverageSaveDlg@@1UAFX_MSGMAP@@B 004466e8     AverageSaveDlg.obj
 0002:000006f0       ?_messageEntries@CAverageSaveDlg@@0QBUAFX_MSGMAP_ENTRY@@B 004466f0     AverageSaveDlg.obj
 0002:00000738       ??_7CAverageSaveDlg@@6B@   00446738     AverageSaveDlg.obj
 0002:00000810       ??_C@_0P@OLHL@__ICS__TMP?4FFC?$AA@ 00446810     AverageSaveDlg.obj
 0002:00000820       ??_C@_06DNIA@?2?$CK?4FFC?$AA@ 00446820     AverageSaveDlg.obj
 0002:00000828       ??_C@_04LBMA@?4FFC?$AA@    00446828     AverageSaveDlg.obj
 0002:00000830       ??_C@_0BM@MJHH@Overwrite?5the?5current?5file?$DP?$AA@ 00446830     AverageSaveDlg.obj
 0002:00000850       ?classCAverageView@CAverageView@@2UCRuntimeClass@@B 00446850     AverageView.obj
 0002:00000868       ?messageMap@CAverageView@@1UAFX_MSGMAP@@B 00446868     AverageView.obj
 0002:00000870       ?_messageEntries@CAverageView@@0QBUAFX_MSGMAP_ENTRY@@B 00446870     AverageView.obj
 0002:00000a20       ?eventsinkMap@CAverageView@@1UAFX_EVENTSINKMAP@@B 00446a20     AverageView.obj
 0002:00000a30       ?_eventsinkEntries@CAverageView@@0QBUAFX_EVENTSINKMAP_ENTRY@@B 00446a30     AverageView.obj
 0002:00000b48       ??_C@_05LNOE@?$AD?$AD?$AD?$AD?$AD?$AA@ 00446b48     AverageView.obj
 0002:00000b50       ??_C@_04CKMP@?$AC?$AC?$AD?$AD?$AA@ 00446b50     AverageView.obj
 0002:00000b58       ??_C@_0N@POII@CAverageView?$AA@ 00446b58     AverageView.obj
 0002:00000b68       ??_7CAverageView@@6B@      00446b68     AverageView.obj
 0002:00000cc0       ??_7CGSX2@@6B@             00446cc0     AverageView.obj
 0002:00000d80       ?clsid@?1??GetClsid@CGSX2@@QAEABU_GUID@@XZ@4U3@B 00446d80     AverageView.obj
 0002:00000d90       ??_C@_06KGJG@mVolts?$AA@   00446d90     AverageView.obj
 0002:00000d98       ??_C@_0CB@POHE@Could?5not?5create?5the?5GSX?5control@ 00446d98     AverageView.obj
 0002:00000dbc       ??_C@_0O@HJOL@Out?5of?5Memory?$AA@ 00446dbc     AverageView.obj
 0002:00000dcc       ??_C@_0BI@KCLC@Ole?5Exception?5occured?3?6?$AA@ 00446dcc     AverageView.obj
 0002:00000de4       ??_C@_0DM@FNMG@Ole?5Exception?5caught?5and?5data?5co@ 00446de4     AverageView.obj
 0002:00000e20       ??_C@_0BO@DFEE@Could?5not?5create?5hover?5window?$AA@ 00446e20     AverageView.obj
 0002:00000e40       ??_C@_0BA@KGNE@?$CFs?5?$DN?5?$CFg?6?$CFs?5?$DN?5?$CFg?$AA@ 00446e40     AverageView.obj
 0002:00000e50       ??_C@_0BH@PCPF@Ole?5Exception?5caught?4?6?$AA@ 00446e50     AverageView.obj
 0002:00000e68       ??_C@_0DL@OPJL@ERROR?3?5Attempted?5to?5save?5a?50?5len@ 00446e68     AverageView.obj
 0002:00000ea4       ??_C@_0CC@NNPF@Updating?5Average?5Data?5from?5File?4@ 00446ea4     AverageView.obj
 0002:00000ec8       ??_C@_0P@MBBJ@X?5?$DN?5?$CFg?0?5Y?5?$DN?5?$CFg?$AA@ 00446ec8     AverageView.obj
 0002:00000ed8       ??_C@_0CA@EGFD@Got?5GSXRepaint?5in?5Average?5view?6?$AA@ 00446ed8     AverageView.obj
 0002:00000ef8       ??_C@_07HJJI@Invalid?$AA@  00446ef8     AverageView.obj
 0002:00000f00       ??_C@_03PAPD@?$CF8g?$AA@   00446f00     AverageView.obj
 0002:00000f04       ??_C@_0BG@FDBM@Updating?5FFT?5Window?4?6?$AA@ 00446f04     AverageView.obj
 0002:00000f1c       ??_C@_0O@HDND@Line?5Width?5?$CFd?$AA@ 00446f1c     AverageView.obj
 0002:00000f2c       ??_C@_0O@ENPJ@Line?5Color?5?$CFd?$AA@ 00446f2c     AverageView.obj
 0002:00000f3c       ??_C@_07ILBC@Line?5?$CFd?$AA@ 00446f3c     AverageView.obj
 0002:00000f44       ??_C@_0P@FPKC@Symbol?5Size?5?$CFd?$AA@ 00446f44     AverageView.obj
 0002:00000f54       ??_C@_0BA@IPFG@Symbol?5Color?5?$CFd?$AA@ 00446f54     AverageView.obj
 0002:00000f64       ??_C@_09LOKA@Symbol?5?$CFd?$AA@ 00446f64     AverageView.obj
 0002:00000f70       ??_C@_0M@NMGF@Y?5Axis?5Text?$AA@ 00446f70     AverageView.obj
 0002:00000f7c       ??_C@_0M@DGOK@X?5Axis?5Text?$AA@ 00446f7c     AverageView.obj
 0002:00000f88       ??_C@_09PDBB@Bkg?5Color?$AA@ 00446f88     AverageView.obj
 0002:00000f94       ??_C@_0N@LDBF@Y?5Axis?5Scale?$AA@ 00446f94     AverageView.obj
 0002:00000fa4       ??_C@_0L@GHKD@Log?5Y?5Axis?$AA@ 00446fa4     AverageView.obj
 0002:00000fb0       ??_C@_0L@LEEG@Axis?5Color?$AA@ 00446fb0     AverageView.obj
 0002:00000fbc       ??_C@_0L@CCKI@Grid?5Color?$AA@ 00446fbc     AverageView.obj
 0002:00000fc8       ??_C@_04GNHG@Grid?$AA@     00446fc8     AverageView.obj
 0002:00000fd0       ??_C@_0M@OOPM@Title?5Color?$AA@ 00446fd0     AverageView.obj
 0002:00000fdc       ??_C@_07MABO@Average?$AA@  00446fdc     AverageView.obj
 0002:00000fe4       ??_C@_0L@CLOF@Title?5Text?$AA@ 00446fe4     AverageView.obj
 0002:00000ff0       ??_C@_0BB@PCDJ@?6?7?9Record?5Length?$AA@ 00446ff0     AverageView.obj
 0002:00001004       ??_C@_0P@KKFI@?6?7?9Calibration?$AA@ 00447004     AverageView.obj
 0002:00001014       ??_C@_0P@GIJB@?6?7?9Time?5Offset?$AA@ 00447014     AverageView.obj
 0002:00001024       ??_C@_0BF@BKMF@?6?7?9Sampling?5Interval?$AA@ 00447024     AverageView.obj
 0002:0000103c       ??_C@_0EC@HBKF@Cannot?5overlay?5data?5because?5the?5@ 0044703c     AverageView.obj
 0002:00001080       ??_C@_0CK@FEGE@Overlay?5a?5Average?5Mode?5spectrum?5@ 00447080     AverageView.obj
 0002:000010ac       ??_C@_05JAJO@?$CK?4FLT?$AA@ 004470ac     AverageView.obj
 0002:000010b4       ??_C@_04DCMN@?$CFs?$CFs?$AA@ 004470b4     AverageView.obj
 0002:000010bc       ??_C@_08IAAH@End?5?$FLns?$FN?$AA@ 004470bc     AverageView.obj
 0002:000010c8       ??_C@_0L@LCJA@Start?5?$FLns?$FN?$AA@ 004470c8     AverageView.obj
 0002:000010d4       ??_C@_05INLH@?5?$FLns?$FN?$AA@ 004470d4     AverageView.obj
 0002:000010dc       ??_C@_05JFMB@End?$CFs?$AA@ 004470dc     AverageView.obj
 0002:000010e4       ??_C@_07DFGO@Start?$CFs?$AA@ 004470e4     AverageView.obj
 0002:000010ec       ??_C@_05GOJD@?5?$FL?$CFs?$FN?$AA@ 004470ec     AverageView.obj
 0002:000010f4       ??_C@_0CA@BMGH@GSX?5fired?5?9?5UpdateComplete?5?9?5?4?6?$AA@ 004470f4     AverageView.obj
 0002:00001114       ??_C@_0BM@KHHL@SafeArrayAccessData?5failed?6?$AA@ 00447114     AverageView.obj
 0002:00001130       __real@8@401cee6b280000000000 00447130     AverageView.obj
 0002:00001138       __real@8@40018000000000000000 00447138     AverageView.obj
 0002:00001140       __real@8@3fff8000000000000000 00447140     AverageView.obj
 0002:00001148       __real@8@3fe289705f4136b4a800 00447148     AverageView.obj
 0002:00001150       __real@8@40028000000000000000 00447150     AverageView.obj
 0002:00001158       ??_C@_0CN@PEEI@Creating?5Safearray?5in?5GetCTOFFro@ 00447158     AverageView.obj
 0002:00001188       ?messageMap@CCalibration@@1UAFX_MSGMAP@@B 00447188     Calibration.obj
 0002:00001190       ?_messageEntries@CCalibration@@0QBUAFX_MSGMAP_ENTRY@@B 00447190     Calibration.obj
 0002:000011a8       ??_C@_08IFC@CMkrInfo?$AA@  004471a8     Calibration.obj
 0002:000011b4       ??_C@_0N@PGKK@CCalibration?$AA@ 004471b4     Calibration.obj
 0002:000011c4       ??_7CMkrInfo@@6B@          004471c4     Calibration.obj
 0002:000011d8       ??_7CCalibration@@6B@      004471d8     Calibration.obj
 0002:00001274       ??_C@_0EM@MKAK@Calibration?3?3Initialize?5called?5w@ 00447274     Calibration.obj
 0002:000012c0       ??_C@_0DP@EKJF@VARIANT?5passed?5to?5Apply?5does?5not@ 004472c0     Calibration.obj
 0002:00001300       ??_C@_0DF@IAJE@SafeArrayUnaccessData?5failed?5in?5@ 00447300     Calibration.obj
 0002:00001338       ??_C@_0DE@GGML@SafeArrayAccessData?5failed?5in?5CC@ 00447338     Calibration.obj
 0002:0000136c       ??_C@_0CJ@PBPM@Not?5enough?5points?5to?5apply?5calib@ 0044736c     Calibration.obj
 0002:00001398       __real@8@3ffcccccccccccccd000 00447398     Calibration.obj
 0002:000013a0       __real@8@40008000000000000000 004473a0     Calibration.obj
 0002:000013a8       __real@8@3fb2c16d9a0095928800 004473a8     Calibration.obj
 0002:000013b0       ??_C@_01FCOA@?5?$AA@       004473b0     Calibration.obj
 0002:000013b8       ?messageMap@CCalibrationTab@@1UAFX_MSGMAP@@B 004473b8     CalibrationTab.obj
 0002:000013c0       ?_messageEntries@CCalibrationTab@@0QBUAFX_MSGMAP_ENTRY@@B 004473c0     CalibrationTab.obj
 0002:000014c8       ??_7CCalibrationTab@@6B@   004474c8     CalibrationTab.obj
 0002:000015bc       ??_C@_02JBAA@?$CFf?$AA@    004475bc     CalibrationTab.obj
 0002:000015c0       ??_C@_0CJ@PCBA@Retrieve?5a?5Eclipse?5Calibration?5f@ 004475c0     CalibrationTab.obj
 0002:000015ec       ??_C@_03JELK@CAL?$AA@      004475ec     CalibrationTab.obj
 0002:000015f0       ??_C@_05IOEO@?$CK?4CAL?$AA@ 004475f0     CalibrationTab.obj
 0002:000015f8       ??_C@_0DD@OGMG@Maximum?5of?564?5Calibration?5values@ 004475f8     CalibrationTab.obj
 0002:0000162c       ??_C@_0DJ@IDAB@Are?5you?5sure?5you?5want?5to?5delete?5@ 0044762c     CalibrationTab.obj
 0002:00001668       ??_C@_0DF@NHKJ@Are?5you?5sure?5you?5want?5to?5delete?5@ 00447668     CalibrationTab.obj
 0002:000016a0       ??_C@_0BC@BCAI@No?5file?5specified?$AA@ 004476a0     CalibrationTab.obj
 0002:000016b4       ??_C@_04DDFL@user?$AA@     004476b4     CalibrationTab.obj
 0002:000016bc       ??_C@_08DKKH@Centroid?$AA@ 004476bc     CalibrationTab.obj
 0002:000016c8       ??_C@_05KBGO@Value?$AA@    004476c8     CalibrationTab.obj
 0002:000016d0       ??_C@_0CD@HGLC@Save?5a?5Eclipse?5Calibration?5to?5di@ 004476d0     CalibrationTab.obj
 0002:000016f4       ??_C@_0DL@GMOI@Are?5you?5sure?5you?5want?5to?5update?5@ 004476f4     CalibrationTab.obj
 0002:00001730       ??_C@_0DI@BGFD@Are?5you?5sure?5you?5want?5to?5update?5@ 00447730     CalibrationTab.obj
 0002:00001768       ?messageMap@CCalibrationView@@1UAFX_MSGMAP@@B 00447768     CalibrationView.obj
 0002:00001770       ?_messageEntries@CCalibrationView@@0QBUAFX_MSGMAP_ENTRY@@B 00447770     CalibrationView.obj
 0002:000017b8       ?eventsinkMap@CCalibrationView@@1UAFX_EVENTSINKMAP@@B 004477b8     CalibrationView.obj
 0002:000017c8       ?_eventsinkEntries@CCalibrationView@@0QBUAFX_EVENTSINKMAP_ENTRY@@B 004477c8     CalibrationView.obj
 0002:00001818       ??_7CCalibrationView@@6B@  00447818     CalibrationView.obj
 0002:000018f0       ??_C@_0BI@EEBD@Reduced?5Chi?9Square?5?$DN?5?$CFf?$AA@ 004478f0     CalibrationView.obj
 0002:00001908       ??_C@_03JKH@?$CF5g?$AA@    00447908     CalibrationView.obj
 0002:0000190c       ??_C@_04KIBJ@?$CF?43f?$AA@ 0044790c     CalibrationView.obj
 0002:00001914       ??_C@_0P@JMPL@End?5Marker?$FLns?$FN?$AA@ 00447914     CalibrationView.obj
 0002:00001924       ??_C@_0BB@MDGC@Start?5Marker?$FLns?$FN?$AA@ 00447924     CalibrationView.obj
 0002:00001938       ??_C@_0N@OIEM@Centroid?$FLns?$FN?$AA@ 00447938     CalibrationView.obj
 0002:00001948       ??_C@_09DOMH@Cal?5Value?$AA@ 00447948     CalibrationView.obj
 0002:00001958       ?messageMap@CCompAdvanced@@1UAFX_MSGMAP@@B 00447958     CompAdvanced.obj
 0002:00001960       ?_messageEntries@CCompAdvanced@@0QBUAFX_MSGMAP_ENTRY@@B 00447960     CompAdvanced.obj
 0002:00001978       ??_7CCompAdvanced@@6B@     00447978     CompAdvanced.obj
 0002:00001a50       ?messageMap@CDataHover@@1UAFX_MSGMAP@@B 00447a50     DataHover.obj
 0002:00001a58       ?_messageEntries@CDataHover@@0QBUAFX_MSGMAP_ENTRY@@B 00447a58     DataHover.obj
 0002:00001aa0       ??_7CDataHover@@6B@        00447aa0     DataHover.obj
 0002:00001b68       ??_C@_05CNHG@Arial?$AA@    00447b68     DataHover.obj
 0002:00001b70       ?messageMap@CEclipseApp@@1UAFX_MSGMAP@@B 00447b70     Eclipse.obj
 0002:00001b78       ?_messageEntries@CEclipseApp@@0QBUAFX_MSGMAP_ENTRY@@B 00447b78     Eclipse.obj
 0002:00001bf0       ?messageMap@CAboutDlg@@1UAFX_MSGMAP@@B 00447bf0     Eclipse.obj
 0002:00001bf8       ?_messageEntries@CAboutDlg@@0QBUAFX_MSGMAP_ENTRY@@B 00447bf8     Eclipse.obj
 0002:00001c10       ??_7CEclipseApp@@6B@       00447c10     Eclipse.obj
 0002:00001e10       ??_C@_0EO@IJKI@Windriver6?5installation?5complete@ 00447e10     Eclipse.obj
 0002:00001e60       ??_C@_0FM@IBGM@Windriver6?5installation?5complete@ 00447e60     Eclipse.obj
 0002:00001ebc       ??_C@_0BD@CKJF@?2wdreg16?4exe?5?9inf?5?$AA@ 00447ebc     Eclipse.obj
 0002:00001ed0       ??_C@_0M@IPJP@command?4com?$AA@ 00447ed0     Eclipse.obj
 0002:00001edc       ??_C@_0DD@DKEP@SYSTEM?2CurrentControlSet?2Service@ 00447edc     Eclipse.obj
 0002:00001f10       ??_C@_0EP@NKGC@Could?5not?5register?5Windriver6?4?6?$AN@ 00447f10     Eclipse.obj
 0002:00001f60       ??_C@_07KFDO@COMSPEC?$AA@  00447f60     Eclipse.obj
 0002:00001f68       ??_C@_03HKOJ@?1c?5?$AA@    00447f68     Eclipse.obj
 0002:00001f6c       ??_C@_0BB@EACC@?2wdreg?4exe?5?9inf?5?$AA@ 00447f6c     Eclipse.obj
 0002:00001f80       ??_C@_0BG@GECG@?2windrvr6?4inf?5install?$AA@ 00447f80     Eclipse.obj
 0002:00001f98       ??_C@_0FD@HMOC@SYSTEM?2CurrentControlSet?2Control@ 00447f98     Eclipse.obj
 0002:00001fec       ??_C@_08BEGN@?2drivers?$AA@ 00447fec     Eclipse.obj
 0002:00001ff8       ??_C@_0BA@JOMP@SIGNAL?5RECOVERY?$AA@ 00447ff8     Eclipse.obj
 0002:00002008       ??_C@_0BP@KGPK@Could?5not?5start?5initialize?5OLE?$AA@ 00448008     Eclipse.obj
 0002:00002028       ??_C@_08BIGC@Settings?$AA@ 00448028     Eclipse.obj
 0002:00002034       ??_C@_07BILP@DataDir?$AA@  00448034     Eclipse.obj
 0002:0000203c       ??_C@_01A@?$AA?$AA@        0044803c     Eclipse.obj
 0002:00002040       ??_C@_0M@KEED@LastCalPath?$AA@ 00448040     Eclipse.obj
 0002:0000204c       ??_C@_0N@KPNG@LastOpenPath?$AA@ 0044804c     Eclipse.obj
 0002:0000205c       ??_C@_0N@OIGK@Prot0CalPath?$AA@ 0044805c     Eclipse.obj
 0002:0000206c       ??_C@_0N@KAEE@Prot1CalPath?$AA@ 0044806c     Eclipse.obj
 0002:0000207c       ??_C@_0N@HIDH@Prot2CalPath?$AA@ 0044807c     Eclipse.obj
 0002:0000208c       ??_C@_0N@DABJ@Prot3CalPath?$AA@ 0044808c     Eclipse.obj
 0002:0000209c       ??_C@_0N@MINA@Prot4CalPath?$AA@ 0044809c     Eclipse.obj
 0002:000020ac       ??_C@_0N@IAPO@Prot5CalPath?$AA@ 004480ac     Eclipse.obj
 0002:000020bc       ??_C@_0N@FIIN@Prot6CalPath?$AA@ 004480bc     Eclipse.obj
 0002:000020cc       ??_C@_0N@BAKD@Prot7CalPath?$AA@ 004480cc     Eclipse.obj
 0002:000020dc       ??_C@_08FFKF@CalState?$AA@ 004480dc     Eclipse.obj
 0002:000020e8       ??_C@_08HBOB@LastMode?$AA@ 004480e8     Eclipse.obj
 0002:000020f4       ??_C@_08NPJK@RealTime?$AA@ 004480f4     Eclipse.obj
 0002:00002100       ??_C@_0BE@MJKD@CurrentViewProtocol?$AA@ 00448100     Eclipse.obj
 0002:00002114       ??_C@_08NJLM@FileName?$AA@ 00448114     Eclipse.obj
 0002:00002120       ??_C@_08OEMF@FilePath?$AA@ 00448120     Eclipse.obj
 0002:0000212c       ??_C@_08MGFD@FileOper?$AA@ 0044812c     Eclipse.obj
 0002:00002138       ??_C@_0M@DMNK@CombineFile?$AA@ 00448138     Eclipse.obj
 0002:00002144       ??_C@_0L@IFFO@ConstValue?$AA@ 00448144     Eclipse.obj
 0002:00002150       ??_C@_09GKPD@ConstOper?$AA@ 00448150     Eclipse.obj
 0002:0000215c       ??_C@_0L@KNAJ@ApplyConst?$AA@ 0044815c     Eclipse.obj
 0002:00002168       ??_C@_0BE@JFHC@AnaMeasurement1Name?$AA@ 00448168     Eclipse.obj
 0002:0000217c       ??_C@_0BE@HFBN@AnaMeasurement2Name?$AA@ 0044817c     Eclipse.obj
 0002:00002190       ??_C@_0BE@NFDI@AnaMeasurement3Name?$AA@ 00448190     Eclipse.obj
 0002:000021a4       ??_C@_0BE@LFMC@AnaMeasurement4Name?$AA@ 004481a4     Eclipse.obj
 0002:000021b8       ??_C@_08JOIC@Prot0PPR?$AA@ 004481b8     Eclipse.obj
 0002:000021c4       ??_C@_08LLNA@Prot1PPR?$AA@ 004481c4     Eclipse.obj
 0002:000021d0       ??_C@_08NECG@Prot2PPR?$AA@ 004481d0     Eclipse.obj
 0002:000021dc       ??_C@_08PBHE@Prot3PPR?$AA@ 004481dc     Eclipse.obj
 0002:000021e8       ??_C@_08LMK@Prot4PPR?$AA@  004481e8     Eclipse.obj
 0002:000021f4       ??_C@_08COJI@Prot5PPR?$AA@ 004481f4     Eclipse.obj
 0002:00002200       ??_C@_08EBGO@Prot6PPR?$AA@ 00448200     Eclipse.obj
 0002:0000220c       ??_C@_08GEDM@Prot7PPR?$AA@ 0044820c     Eclipse.obj
 0002:00002218       ??_C@_0L@IBJI@UseMaxTime?$AA@ 00448218     Eclipse.obj
 0002:00002224       ??_C@_0N@OMCK@UseMaxNumber?$AA@ 00448224     Eclipse.obj
 0002:00002234       ??_C@_09EPBF@MaxNumber?$AA@ 00448234     Eclipse.obj
 0002:00002240       ??_C@_07OCFC@MaxTime?$AA@  00448240     Eclipse.obj
 0002:00002248       ??_C@_0CF@MFKL@?2StringFileInfo?2040904E4?2FileVer@ 00448248     Eclipse.obj
 0002:00002270       ??_C@_0CF@OBKK@?2StringFileInfo?2040904B0?2FileVer@ 00448270     Eclipse.obj
 0002:00002298       ??_C@_04BAIL@?4EXE?$AA@    00448298     Eclipse.obj
 0002:000022a0       ??_C@_07BBFN@Eclipse?$AA@  004482a0     Eclipse.obj
 0002:000022a8       ??_C@_04IFBP@0?400?$AA@    004482a8     Eclipse.obj
 0002:000022b0       ??_7CAboutDlg@@6B@         004482b0     Eclipse.obj
 0002:00002388       ??_C@_02DILL@?$CFs?$AA@    00448388     Eclipse.obj
 0002:0000238c       ??_C@_0BC@GKEB@ICS?5Version?5?$CF1?42f?$AA@ 0044838c     Eclipse.obj
 0002:000023a0       ??_C@_0BC@LNED@GSX?5Version?5?$CF1?42f?$AA@ 004483a0     Eclipse.obj
 0002:000023b4       ??_C@_0BP@CDHE@Eclipse?5Application?5Version?5?$CFs?$AA@ 004483b4     Eclipse.obj
 0002:000023d8       ?classCEclipseDoc@CEclipseDoc@@2UCRuntimeClass@@B 004483d8     EclipseDoc.obj
 0002:000023f0       ?messageMap@CEclipseDoc@@1UAFX_MSGMAP@@B 004483f0     EclipseDoc.obj
 0002:000023f8       ?_messageEntries@CEclipseDoc@@0QBUAFX_MSGMAP_ENTRY@@B 004483f8     EclipseDoc.obj
 0002:00002410       ??_C@_0M@EKDL@CEclipseDoc?$AA@ 00448410     EclipseDoc.obj
 0002:0000241c       ??_7CEclipseDoc@@6B@       0044841c     EclipseDoc.obj
 0002:000024d8       ?messageMap@CFloatEdit@@1UAFX_MSGMAP@@B 004484d8     FloatEdit.obj
 0002:000024e0       ?_messageEntries@CFloatEdit@@0QBUAFX_MSGMAP_ENTRY@@B 004484e0     FloatEdit.obj
 0002:00002510       ??_7CFloatEdit@@6B@        00448510     FloatEdit.obj
 0002:000025d4       ??_C@_06GBNK@?4?0?$CLeE?$AI?$AA@ 004485d4     FloatEdit.obj
 0002:000025dc       ??_C@_07LEOI@?4?0?$CL?9eE?$AI?$AA@ 004485dc     FloatEdit.obj
 0002:000025e8       ?messageMap@CGraphProperties@@1UAFX_MSGMAP@@B 004485e8     GraphProperties.obj
 0002:000025f0       ?_messageEntries@CGraphProperties@@0QBUAFX_MSGMAP_ENTRY@@B 004485f0     GraphProperties.obj
 0002:00002770       ??_7CGraphProperties@@6B@  00448770     GraphProperties.obj
 0002:00002848       ?classCGSX2@CGSX2@@2UCRuntimeClass@@B 00448848     gsx2.obj
 0002:00002860       ??_C@_05MOBN@CGSX2?$AA@    00448860     gsx2.obj
 0002:00002868       ?classCIndicators@CIndicators@@2UCRuntimeClass@@B 00448868     indicators.obj
 0002:00002880       ??_C@_0M@FLCF@CIndicators?$AA@ 00448880     indicators.obj
 0002:0000288c       ??_C@_0BG@JFGA@Info?5Bar?5Constructor?6?$AA@ 0044888c     InfoBar.obj
 0002:000028a4       ??_7CInfoBar@@6B@          004488a4     InfoBar.obj
 0002:00002994       ??_C@_09CIDE@Trend?5Bar?$AA@ 00448994     InfoBar.obj
 0002:000029a0       ?messageMap@CInfoBarDlg@@1UAFX_MSGMAP@@B 004489a0     InfoBarDlg.obj
 0002:000029a8       ?_messageEntries@CInfoBarDlg@@0QBUAFX_MSGMAP_ENTRY@@B 004489a8     InfoBarDlg.obj
 0002:00002a08       ??_7CInfoBarDlg@@6B@       00448a08     InfoBarDlg.obj
 0002:00002ae0       ??_C@_0CF@JBEN@Select?5Trend?5Data?5Destination?5Fo@ 00448ae0     InfoBarDlg.obj
 0002:00002b08       ??_C@_0CD@LJBP@Instrument?5Status?5Bar?5Constructo@ 00448b08     InstStatusBar.obj
 0002:00002b2c       ??_7CInstStatusBar@@6B@    00448b2c     InstStatusBar.obj
 0002:00002c1c       ??_C@_0M@FONN@Utility?5Bar?$AA@ 00448c1c     InstStatusBar.obj
 0002:00002c28       ?messageMap@CInstStatusBarDlg@@1UAFX_MSGMAP@@B 00448c28     InstStatusBarDlg.obj
 0002:00002c30       ?_messageEntries@CInstStatusBarDlg@@0QBUAFX_MSGMAP_ENTRY@@B 00448c30     InstStatusBarDlg.obj
 0002:00002c60       ??_7CInstStatusBarDlg@@6B@ 00448c60     InstStatusBarDlg.obj
 0002:00002d44       ??_C@_08KLIB@Analysis?$AA@ 00448d44     InstStatusBarDlg.obj
 0002:00002d50       ??_C@_0M@DKDG@Calibration?$AA@ 00448d50     InstStatusBarDlg.obj
 0002:00002d5c       ??_C@_0M@HNLI@Acquisition?$AA@ 00448d5c     InstStatusBarDlg.obj
 0002:00002d68       ?classCMainFrame@CMainFrame@@2UCRuntimeClass@@B 00448d68     MainFrm.obj
 0002:00002d80       ?messageMap@CMainFrame@@1UAFX_MSGMAP@@B 00448d80     MainFrm.obj
 0002:00002d88       ?_messageEntries@CMainFrame@@0QBUAFX_MSGMAP_ENTRY@@B 00448d88     MainFrm.obj
 0002:000030d0       ??_C@_0L@IAGP@CMainFrame?$AA@ 004490d0     MainFrm.obj
 0002:000030dc       ??_7CMainFrame@@6B@        004490dc     MainFrm.obj
 0002:0000322c       ??_C@_09HHHO@BarStates?$AA@ 0044922c     MainFrm.obj
 0002:00003238       ??_C@_0CI@BIOK@Failed?5to?5create?5instrument?5stat@ 00449238     MainFrm.obj
 0002:00003260       ??_C@_0BK@GOMJ@Could?5not?5find?5the?5server?$AA@ 00449260     MainFrm.obj
 0002:0000327c       ??_C@_09MMAO@ICS?4ICSGP?$AA@ 0044927c     MainFrm.obj
 0002:00003288       ??_C@_0BN@EMDA@Failed?5to?5create?5status?5bar?6?$AA@ 00449288     MainFrm.obj
 0002:000032a8       ??_C@_0BK@PJFP@Failed?5to?5create?5toolbar?6?$AA@ 004492a8     MainFrm.obj
 0002:000032c4       ??_C@_0BO@DHAG@Failed?5to?5create?5second?5pane?6?$AA@ 004492c4     MainFrm.obj
 0002:000032e4       ??_C@_0BN@OPLD@Failed?5to?5create?5first?5pane?6?$AA@ 004492e4     MainFrm.obj
 0002:00003304       ??_C@_0CA@CNHP@Failed?5to?5CreateStaticSplitter?6?$AA@ 00449304     MainFrm.obj
 0002:00003324       ??_C@_0BO@KGIE@Eclipse?5Instrument?5Properties?$AA@ 00449324     MainFrm.obj
 0002:00003344       ??_C@_0BA@HGOJ@?2__ICS__TMP?4FFC?$AA@ 00449344     MainFrm.obj
 0002:00003354       ??_C@_0BA@IKHM@?2__ICS__TMP?4FFT?$AA@ 00449354     MainFrm.obj
 0002:00003364       ??_C@_0CE@GFEE@Error?5loading?5the?5Average?5Data?5f@ 00449364     MainFrm.obj
 0002:00003388       ??_C@_0CH@GHAO@Open?5a?5Average?5Mode?5spectrum?5fro@ 00449388     MainFrm.obj
 0002:000033b0       ??_C@_03BCGL@FFT?$AA@      004493b0     MainFrm.obj
 0002:000033b4       ??_C@_0CF@JBAO@Open?5a?5Trend?5Mode?5spectrum?5from?5@ 004493b4     MainFrm.obj
 0002:000033dc       ??_C@_05PEAK@?$CK?4FFC?$AA@ 004493dc     MainFrm.obj
 0002:000033e4       ??_C@_0CD@PENM@Error?5saving?5the?5Average?5Data?5fi@ 004493e4     MainFrm.obj
 0002:00003408       ??_C@_0CP@BLHK@Save?5the?5current?5Average?5Mode?5sp@ 00449408     MainFrm.obj
 0002:00003438       ??_C@_03EPAN@flt?$AA@      00449438     MainFrm.obj
 0002:0000343c       ??_C@_05FFPJ@?$CK?4flt?$AA@ 0044943c     MainFrm.obj
 0002:00003444       ??_C@_03IKGK@FLT?$AA@      00449444     MainFrm.obj
 0002:00003448       ?messageMap@CModifyData@@1UAFX_MSGMAP@@B 00449448     ModifyData.obj
 0002:00003450       ?_messageEntries@CModifyData@@0QBUAFX_MSGMAP_ENTRY@@B 00449450     ModifyData.obj
 0002:000034f8       ??_7CModifyData@@6B@       004494f8     ModifyData.obj
 0002:000035dc       ??_C@_0O@OJCE@Choose?5a?5file?$AA@ 004495dc     ModifyData.obj
 0002:000035ec       ??_C@_0BA@HJFM@Eclipse?5?$CI?$CK?4FLT?$CJ?$AA@ 004495ec     ModifyData.obj
 0002:00003600       ?messageMap@COverlayProps@@1UAFX_MSGMAP@@B 00449600     OverlayProps.obj
 0002:00003608       ?_messageEntries@COverlayProps@@0QBUAFX_MSGMAP_ENTRY@@B 00449608     OverlayProps.obj
 0002:000036e0       ??_7COverlayProps@@6B@     004496e0     OverlayProps.obj
 0002:000037c8       ?classCPropGeneralPage@CPropGeneralPage@@2UCRuntimeClass@@B 004497c8     PropGeneralPage.obj
 0002:000037e0       ?messageMap@CPropGeneralPage@@1UAFX_MSGMAP@@B 004497e0     PropGeneralPage.obj
 0002:000037e8       ?_messageEntries@CPropGeneralPage@@0QBUAFX_MSGMAP_ENTRY@@B 004497e8     PropGeneralPage.obj
 0002:00003968       ??_C@_0BB@EOFJ@CPropGeneralPage?$AA@ 00449968     PropGeneralPage.obj
 0002:0000397c       ??_7CPropGeneralPage@@6B@  0044997c     PropGeneralPage.obj
 0002:00003a84       ??_C@_0CB@NJHM@Apply?5called?5from?5General?5props?6@ 00449a84     PropGeneralPage.obj
 0002:00003aa8       ?classCPropProtocol1Page@CPropProtocol1Page@@2UCRuntimeClass@@B 00449aa8     PropProtocol1Page.obj
 0002:00003ac0       ?messageMap@CPropProtocol1Page@@1UAFX_MSGMAP@@B 00449ac0     PropProtocol1Page.obj
 0002:00003ac8       ?_messageEntries@CPropProtocol1Page@@0QBUAFX_MSGMAP_ENTRY@@B 00449ac8     PropProtocol1Page.obj
 0002:00003be8       ??_C@_0BD@LAMK@CPropProtocol1Page?$AA@ 00449be8     PropProtocol1Page.obj
 0002:00003bfc       ??_7CPropProtocol1Page@@6B@ 00449bfc     PropProtocol1Page.obj
 0002:00003cf8       __real@8@3ffe8000000000000000 00449cf8     PropProtocol1Page.obj
 0002:00003d00       ??_C@_0CP@GCDL@Set?5a?5Eclipse?5Calibration?5file?5f@ 00449d00     PropProtocol1Page.obj
 0002:00003d30       ??_C@_0BL@NDGA@Apply?5called?5from?5prot?5?$CD1?6?$AA@ 00449d30     PropProtocol1Page.obj
 0002:00003d50       ?classCPropProtocol2Page@CPropProtocol2Page@@2UCRuntimeClass@@B 00449d50     PropProtocol2Page.obj
 0002:00003d68       ?messageMap@CPropProtocol2Page@@1UAFX_MSGMAP@@B 00449d68     PropProtocol2Page.obj
 0002:00003d70       ?_messageEntries@CPropProtocol2Page@@0QBUAFX_MSGMAP_ENTRY@@B 00449d70     PropProtocol2Page.obj
 0002:00003e90       ??_C@_0BD@FAKF@CPropProtocol2Page?$AA@ 00449e90     PropProtocol2Page.obj
 0002:00003ea4       ??_7CPropProtocol2Page@@6B@ 00449ea4     PropProtocol2Page.obj
 0002:00003fa0       ??_C@_0CP@MIKM@Set?5a?5Eclipse?5Calibration?5file?5f@ 00449fa0     PropProtocol2Page.obj
 0002:00003fd0       ??_C@_0BL@OIJP@Apply?5called?5from?5prot?5?$CD2?6?$AA@ 00449fd0     PropProtocol2Page.obj
 0002:00003ff0       ?classCPropProtocol3Page@CPropProtocol3Page@@2UCRuntimeClass@@B 00449ff0     PropProtocol3Page.obj
 0002:00004008       ?messageMap@CPropProtocol3Page@@1UAFX_MSGMAP@@B 0044a008     PropProtocol3Page.obj
 0002:00004010       ?_messageEntries@CPropProtocol3Page@@0QBUAFX_MSGMAP_ENTRY@@B 0044a010     PropProtocol3Page.obj
 0002:00004130       ??_C@_0BD@PAIA@CPropProtocol3Page?$AA@ 0044a130     PropProtocol3Page.obj
 0002:00004144       ??_7CPropProtocol3Page@@6B@ 0044a144     PropProtocol3Page.obj
 0002:00004240       ??_C@_0CP@DHBF@Set?5a?5Eclipse?5Calibration?5file?5f@ 0044a240     PropProtocol3Page.obj
 0002:00004270       ?classCPropProtocol4Page@CPropProtocol4Page@@2UCRuntimeClass@@B 0044a270     PropProtocol4Page.obj
 0002:00004288       ?messageMap@CPropProtocol4Page@@1UAFX_MSGMAP@@B 0044a288     PropProtocol4Page.obj
 0002:00004290       ?_messageEntries@CPropProtocol4Page@@0QBUAFX_MSGMAP_ENTRY@@B 0044a290     PropProtocol4Page.obj
 0002:000043b0       ??_C@_0BD@JAHK@CPropProtocol4Page?$AA@ 0044a3b0     PropProtocol4Page.obj
 0002:000043c4       ??_7CPropProtocol4Page@@6B@ 0044a3c4     PropProtocol4Page.obj
 0002:000044c0       ??_C@_0CP@JNIC@Set?5a?5Eclipse?5Calibration?5file?5f@ 0044a4c0     PropProtocol4Page.obj
 0002:000044f0       ?classCPropProtocol5Page@CPropProtocol5Page@@2UCRuntimeClass@@B 0044a4f0     PropProtocol5Page.obj
 0002:00004508       ?messageMap@CPropProtocol5Page@@1UAFX_MSGMAP@@B 0044a508     PropProtocol5Page.obj
 0002:00004510       ?_messageEntries@CPropProtocol5Page@@0QBUAFX_MSGMAP_ENTRY@@B 0044a510     PropProtocol5Page.obj
 0002:00004630       ??_C@_0BD@DAFP@CPropProtocol5Page?$AA@ 0044a630     PropProtocol5Page.obj
 0002:00004644       ??_7CPropProtocol5Page@@6B@ 0044a644     PropProtocol5Page.obj
 0002:00004740       ??_C@_0CP@MIGH@Set?5a?5Eclipse?5Calibration?5file?5f@ 0044a740     PropProtocol5Page.obj
 0002:00004770       ?classCPropProtocol6Page@CPropProtocol6Page@@2UCRuntimeClass@@B 0044a770     PropProtocol6Page.obj
 0002:00004788       ?messageMap@CPropProtocol6Page@@1UAFX_MSGMAP@@B 0044a788     PropProtocol6Page.obj
 0002:00004790       ?_messageEntries@CPropProtocol6Page@@0QBUAFX_MSGMAP_ENTRY@@B 0044a790     PropProtocol6Page.obj
 0002:000048b0       ??_C@_0BD@NADA@CPropProtocol6Page?$AA@ 0044a8b0     PropProtocol6Page.obj
 0002:000048c4       ??_7CPropProtocol6Page@@6B@ 0044a8c4     PropProtocol6Page.obj
 0002:000049c0       ??_C@_0CP@GCPA@Set?5a?5Eclipse?5Calibration?5file?5f@ 0044a9c0     PropProtocol6Page.obj
 0002:000049f0       ?classCPropProtocol7Page@CPropProtocol7Page@@2UCRuntimeClass@@B 0044a9f0     PropProtocol7Page.obj
 0002:00004a08       ?messageMap@CPropProtocol7Page@@1UAFX_MSGMAP@@B 0044aa08     PropProtocol7Page.obj
 0002:00004a10       ?_messageEntries@CPropProtocol7Page@@0QBUAFX_MSGMAP_ENTRY@@B 0044aa10     PropProtocol7Page.obj
 0002:00004b30       ??_C@_0BD@HABF@CPropProtocol7Page?$AA@ 0044ab30     PropProtocol7Page.obj
 0002:00004b44       ??_7CPropProtocol7Page@@6B@ 0044ab44     PropProtocol7Page.obj
 0002:00004c40       ??_C@_0CP@JNEJ@Set?5a?5Eclipse?5Calibration?5file?5f@ 0044ac40     PropProtocol7Page.obj
 0002:00004c70       ?classCPropProtocol8Page@CPropProtocol8Page@@2UCRuntimeClass@@B 0044ac70     PropProtocol8Page.obj
 0002:00004c88       ?messageMap@CPropProtocol8Page@@1UAFX_MSGMAP@@B 0044ac88     PropProtocol8Page.obj
 0002:00004c90       ?_messageEntries@CPropProtocol8Page@@0QBUAFX_MSGMAP_ENTRY@@B 0044ac90     PropProtocol8Page.obj
 0002:00004db0       ??_C@_0BD@BBMF@CPropProtocol8Page?$AA@ 0044adb0     PropProtocol8Page.obj
 0002:00004dc4       ??_7CPropProtocol8Page@@6B@ 0044adc4     PropProtocol8Page.obj
 0002:00004ec0       ??_C@_0CP@DHNO@Set?5a?5Eclipse?5Calibration?5file?5f@ 0044aec0     PropProtocol8Page.obj
 0002:00004ef0       ?classCPropSheet@CPropSheet@@2UCRuntimeClass@@B 0044aef0     PropSheet.obj
 0002:00004f08       ?messageMap@CPropSheet@@1UAFX_MSGMAP@@B 0044af08     PropSheet.obj
 0002:00004f10       ?_messageEntries@CPropSheet@@0QBUAFX_MSGMAP_ENTRY@@B 0044af10     PropSheet.obj
 0002:00004f28       ??_C@_0L@KDPJ@CPropSheet?$AA@ 0044af28     PropSheet.obj
 0002:00004f34       ??_7CPropSheet@@6B@        0044af34     PropSheet.obj
 0002:00005000       ?messageMap@CProtocolAdvanced@@1UAFX_MSGMAP@@B 0044b000     ProtocolAdvanced.obj
 0002:00005008       ?_messageEntries@CProtocolAdvanced@@0QBUAFX_MSGMAP_ENTRY@@B 0044b008     ProtocolAdvanced.obj
 0002:00005020       ??_7CProtocolAdvanced@@6B@ 0044b020     ProtocolAdvanced.obj
 0002:000050f8       ??_7CQuadFit@@6B@          0044b0f8     QuadFit.obj
 0002:00005128       ??_C@_0DE@IICP@PerformFit?5failed?0?5cannot?5fit?5cu@ 0044b128     QuadFit.obj
 0002:00005160       __real@8@3fbcbce5086492111800 0044b160     QuadFit.obj
 0002:00005168       ?messageMap@CRecalcTrendDlg@@1UAFX_MSGMAP@@B 0044b168     RecalcTrendDlg.obj
 0002:00005170       ?_messageEntries@CRecalcTrendDlg@@0QBUAFX_MSGMAP_ENTRY@@B 0044b170     RecalcTrendDlg.obj
 0002:00005188       ??_7CRecalcTrendDlg@@6B@   0044b188     RecalcTrendDlg.obj
 0002:00005260       ?classCSaveAs@CSaveAs@@2UCRuntimeClass@@B 0044b260     SaveAs.obj
 0002:00005278       ?messageMap@CSaveAs@@1UAFX_MSGMAP@@B 0044b278     SaveAs.obj
 0002:00005280       ?_messageEntries@CSaveAs@@0QBUAFX_MSGMAP_ENTRY@@B 0044b280     SaveAs.obj
 0002:000052b0       ??_C@_07EDDJ@CSaveAs?$AA@  0044b2b0     SaveAs.obj
 0002:000052b8       ??_7CSaveAs@@6B@           0044b2b8     SaveAs.obj
 0002:000053b0       ?messageMap@CSelectedProperties@@1UAFX_MSGMAP@@B 0044b3b0     SelectedProperties.obj
 0002:000053b8       ?_messageEntries@CSelectedProperties@@0QBUAFX_MSGMAP_ENTRY@@B 0044b3b8     SelectedProperties.obj
 0002:000053e8       ??_7CSelectedProperties@@6B@ 0044b3e8     SelectedProperties.obj
 0002:000054c0       ??_C@_0BJ@FKNK@Calibration?5Filename?3?5?$CFs?$AA@ 0044b4c0     SelectedProperties.obj
 0002:000054dc       ??_C@_0BK@EMGF@Calibration?5Type?3?5Unknown?$AA@ 0044b4dc     SelectedProperties.obj
 0002:000054f8       ??_C@_0BI@HBJJ@Calibration?5Type?3?5Cubic?$AA@ 0044b4f8     SelectedProperties.obj
 0002:00005510       ??_C@_0BM@GIFF@Calibration?5Type?3?5Quadratic?$AA@ 0044b510     SelectedProperties.obj
 0002:0000552c       ??_C@_0BJ@JJOG@Calibration?5Type?3?5Linear?$AA@ 0044b52c     SelectedProperties.obj
 0002:00005548       ??_C@_0BD@OCIC@Enhancer?3?5Disabled?$AA@ 0044b548     SelectedProperties.obj
 0002:0000555c       ??_C@_0BC@GAAB@Enhancer?3?5Enabled?$AA@ 0044b55c     SelectedProperties.obj
 0002:00005570       ??_C@_0BM@DPHN@End?9of?9Scan?5DeadTime?3?5?$CFf?5us?$AA@ 0044b570     SelectedProperties.obj
 0002:0000558c       ??_C@_0BG@GEJB@Vertical?5Offset?3?5?$CFf?5V?$AA@ 0044b58c     SelectedProperties.obj
 0002:000055a4       ??_C@_0BD@PDLL@Time?5Offset?3?5?$CFf?5us?$AA@ 0044b5a4     SelectedProperties.obj
 0002:000055b8       ??_C@_0BM@JOGM@Sampling?5Interval?3?5?$CF1?41f?5ns?$AA@ 0044b5b8     SelectedProperties.obj
 0002:000055d4       ??_C@_0BI@MMHF@Records?5per?5Average?3?5?$CFd?$AA@ 0044b5d4     SelectedProperties.obj
 0002:000055ec       ??_C@_0BF@KHIJ@Record?5Length?3?5?$CFf?5us?$AA@ 0044b5ec     SelectedProperties.obj
 0002:00005604       ??_C@_0BL@PGOB@Trigger?5Enable?5Polarity?3?5?9?$AA@ 0044b604     SelectedProperties.obj
 0002:00005620       ??_C@_0BL@JJD@Trigger?5Enable?5Polarity?3?5?$CL?$AA@ 0044b620     SelectedProperties.obj
 0002:0000563c       ??_C@_0BL@FKO@Stopped?5after?3?5?$CFd?5averages?$AA@ 0044b63c     SelectedProperties.obj
 0002:00005658       ??_C@_0BI@GBPD@Stopped?5after?3?5Disabled?$AA@ 0044b658     SelectedProperties.obj
 0002:00005670       ??_C@_0BP@LNEI@Maximum?5Acquisition?5Time?3?5?$CFd?5s?$AA@ 0044b670     SelectedProperties.obj
 0002:00005690       ??_C@_0CD@FIPC@Maximum?5Acquisition?5Time?3?5Disabl@ 0044b690     SelectedProperties.obj
 0002:000056b4       ??_C@_0N@LLOD@Protocol?3?5?$CFd?$AA@ 0044b6b4     SelectedProperties.obj
 0002:000056c4       ??_C@_0BL@JNKP@Calibration?5Filename?3?5?$CFs?$AN?6?$AA@ 0044b6c4     SelectedProperties.obj
 0002:000056e0       ??_C@_0BM@EFPO@Calibration?5Type?3?5Unknown?$AN?6?$AA@ 0044b6e0     SelectedProperties.obj
 0002:000056fc       ??_C@_0BK@FINM@Calibration?5Type?3?5Cubic?$AN?6?$AA@ 0044b6fc     SelectedProperties.obj
 0002:00005718       ??_C@_0BO@PJIP@Calibration?5Type?3?5Quadratic?$AN?6?$AA@ 0044b718     SelectedProperties.obj
 0002:00005738       ??_C@_0BL@PGNM@Calibration?5Type?3?5Linear?$AN?6?$AA@ 0044b738     SelectedProperties.obj
 0002:00005754       ??_C@_0BF@NNGB@Enhancer?3?5Disabled?$AN?6?$AA@ 0044b754     SelectedProperties.obj
 0002:0000576c       ??_C@_0BE@NCEM@Enhancer?3?5Enabled?$AN?6?$AA@ 0044b76c     SelectedProperties.obj
 0002:00005780       ??_C@_0BO@EADP@End?9of?9Scan?5DeadTime?3?5?$CFf?5us?$AN?6?$AA@ 0044b780     SelectedProperties.obj
 0002:000057a0       ??_C@_0BI@FCBI@Vertical?5Offset?3?5?$CFf?5V?$AN?6?$AA@ 0044b7a0     SelectedProperties.obj
 0002:000057b8       ??_C@_0BF@LOLE@Time?5Offset?3?5?$CFf?5us?$AN?6?$AA@ 0044b7b8     SelectedProperties.obj
 0002:000057d0       ??_C@_0BO@OGFJ@Sampling?5Interval?3?5?$CF1?41f?5ns?$AN?6?$AA@ 0044b7d0     SelectedProperties.obj
 0002:000057f0       ??_C@_0BK@LIFD@Records?5per?5Average?3?5?$CFd?$AN?6?$AA@ 0044b7f0     SelectedProperties.obj
 0002:0000580c       ??_C@_0BH@JHNF@Record?5Length?3?5?$CFf?5us?$AN?6?$AA@ 0044b80c     SelectedProperties.obj
 0002:00005824       ??_C@_0BN@JA@Trigger?5Enable?5Polarity?3?5?9?$AN?6?$AA@ 0044b824     SelectedProperties.obj
 0002:00005844       ??_C@_0BN@OMOH@Trigger?5Enable?5Polarity?3?5?$CL?$AN?6?$AA@ 0044b844     SelectedProperties.obj
 0002:00005864       ??_C@_0BN@CEGN@Stopped?5After?3?5?$CFd?5averages?$AN?6?$AA@ 0044b864     SelectedProperties.obj
 0002:00005884       ??_C@_0BK@MFFN@Stopped?5After?3?5Disabled?$AN?6?$AA@ 0044b884     SelectedProperties.obj
 0002:000058a0       ??_C@_0CB@KEON@Maximum?5Acquisition?5Time?3?5?$CFd?5s?$AN?6@ 0044b8a0     SelectedProperties.obj
 0002:000058c4       ??_C@_0CF@IFEG@Maximum?5Acquisition?5Time?3?5Disabl@ 0044b8c4     SelectedProperties.obj
 0002:000058ec       ??_C@_0P@MBJI@Protocol?3?5?$CFd?$AN?6?$AA@ 0044b8ec     SelectedProperties.obj
 0002:000058fc       ??_C@_0P@DJFH@FileName?3?5?$CFs?$AN?6?$AA@ 0044b8fc     SelectedProperties.obj
 0002:00005910       ?messageMap@CSettings@@1UAFX_MSGMAP@@B 0044b910     Settings.obj
 0002:00005918       ?_messageEntries@CSettings@@0QBUAFX_MSGMAP_ENTRY@@B 0044b918     Settings.obj
 0002:00005930       ??_C@_0BC@BGAO@CProtocolSettings?$AA@ 0044b930     Settings.obj
 0002:00005944       ??_C@_09MMLB@CSettings?$AA@ 0044b944     Settings.obj
 0002:00005950       ??_7CProtocolSettings@@6B@ 0044b950     Settings.obj
 0002:00005964       ??_7CSettings@@6B@         0044b964     Settings.obj
 0002:000059c8       ?messageMap@CShowFFT@@1UAFX_MSGMAP@@B 0044b9c8     ShowFFT.obj
 0002:000059d0       ?_messageEntries@CShowFFT@@0QBUAFX_MSGMAP_ENTRY@@B 0044b9d0     ShowFFT.obj
 0002:00005ac0       ?eventsinkMap@CShowFFT@@1UAFX_EVENTSINKMAP@@B 0044bac0     ShowFFT.obj
 0002:00005ad0       ?_eventsinkEntries@CShowFFT@@0QBUAFX_EVENTSINKMAP_ENTRY@@B 0044bad0     ShowFFT.obj
 0002:00005b48       ??_7CShowFFT@@6B@          0044bb48     ShowFFT.obj
 0002:00005c30       ??_C@_03OBMG@kHz?$AA@      0044bc30     ShowFFT.obj
 0002:00005c34       ??_C@_0DI@DPDJ@Points?5?$DN?5?$CFd?0?5?5?5?5FFT?5Size?5?$DN?5?$CFd?0?5?5@ 0044bc34     ShowFFT.obj
 0002:00005c70       __real@8@4008fa00000000000000 0044bc70     ShowFFT.obj
 0002:00005c78       __real@8@3feb8637bd05af6c6800 0044bc78     ShowFFT.obj
 0002:00005c80       ??_C@_0DE@LBMG@Could?5not?5Transfer?5properties?5fr@ 0044bc80     ShowFFT.obj
 0002:00005cb4       ??_C@_0BI@CILO@Deleting?5CShowFFT?5Dlg?4?6?$AA@ 0044bcb4     ShowFFT.obj
 0002:00005ccc       ??_C@_06GCIN@Y?3?5?$CFsV?$AA@ 0044bccc     ShowFFT.obj
 0002:00005cd8       __real@8@3ff583126e978d4fe000 0044bcd8     ShowFFT.obj
 0002:00005ce0       ??_C@_07BODD@X?3?5?$CFsHz?$AA@ 0044bce0     ShowFFT.obj
 0002:00005ce8       ?messageMap@CSplashWnd@@1UAFX_MSGMAP@@B 0044bce8     Splash.obj
 0002:00005cf0       ?_messageEntries@CSplashWnd@@0QBUAFX_MSGMAP_ENTRY@@B 0044bcf0     Splash.obj
 0002:00005d50       ??_7CSplashWnd@@6B@        0044bd50     Splash.obj
 0002:00005e10       ?messageMap@CTrendSetup@@1UAFX_MSGMAP@@B 0044be10     TrendSetup.obj
 0002:00005e18       ?_messageEntries@CTrendSetup@@0QBUAFX_MSGMAP_ENTRY@@B 0044be18     TrendSetup.obj
 0002:00005f50       ??_7CTrendSetup@@6B@       0044bf50     TrendSetup.obj
 0002:00006030       ??_C@_0BA@HBFE@Measurement4End?$AA@ 0044c030     TrendSetup.obj
 0002:00006040       ??_C@_0BC@JLEN@Measurement4Start?$AA@ 0044c040     TrendSetup.obj
 0002:00006054       ??_C@_0BB@KGNG@Measurement4Name?$AA@ 0044c054     TrendSetup.obj
 0002:00006068       ??_C@_09KLDI@UseTrack4?$AA@ 0044c068     TrendSetup.obj
 0002:00006074       ??_C@_0BA@ILOK@Measurement3End?$AA@ 0044c074     TrendSetup.obj
 0002:00006084       ??_C@_0BC@HDCN@Measurement3Start?$AA@ 0044c084     TrendSetup.obj
 0002:00006098       ??_C@_0BB@MGCM@Measurement3Name?$AA@ 0044c098     TrendSetup.obj
 0002:000060ac       ??_C@_09PONN@UseTrack3?$AA@ 0044c0ac     TrendSetup.obj
 0002:000060b8       ??_C@_0BA@KOLI@Measurement2End?$AA@ 0044c0b8     TrendSetup.obj
 0002:000060c8       ??_C@_0BC@OGIN@Measurement2Start?$AA@ 0044c0c8     TrendSetup.obj
 0002:000060dc       ??_C@_0BB@GGAJ@Measurement2Name?$AA@ 0044c0dc     TrendSetup.obj
 0002:000060f0       ??_C@_09FEEK@UseTrack2?$AA@ 0044c0f0     TrendSetup.obj
 0002:000060fc       ??_C@_0BA@MBEO@Measurement1End?$AA@ 0044c0fc     TrendSetup.obj
 0002:0000610c       ??_C@_0BC@FIGN@Measurement1Start?$AA@ 0044c10c     TrendSetup.obj
 0002:00006120       ??_C@_0BB@IGGG@Measurement1Name?$AA@ 0044c120     TrendSetup.obj
 0002:00006134       ??_C@_05FHMF@Trend?$AA@    0044c134     TrendSetup.obj
 0002:0000613c       ??_C@_09KLPD@UseTrack1?$AA@ 0044c13c     TrendSetup.obj
 0002:00006148       ?classCTrendView@CTrendView@@2UCRuntimeClass@@B 0044c148     TrendView.obj
 0002:00006160       ?messageMap@CTrendView@@1UAFX_MSGMAP@@B 0044c160     TrendView.obj
 0002:00006168       ?_messageEntries@CTrendView@@0QBUAFX_MSGMAP_ENTRY@@B 0044c168     TrendView.obj
 0002:00006348       ?eventsinkMap@CTrendView@@1UAFX_EVENTSINKMAP@@B 0044c348     TrendView.obj
 0002:00006358       ?_eventsinkEntries@CTrendView@@0QBUAFX_EVENTSINKMAP_ENTRY@@B 0044c358     TrendView.obj
 0002:00006448       ??_C@_0L@ECNA@CTrendView?$AA@ 0044c448     TrendView.obj
 0002:00006454       ??_7CTrendView@@6B@        0044c454     TrendView.obj
 0002:000065a0       ??_C@_0CH@PHNJ@Waiting?5for?5the?5File?5to?5be?5avail@ 0044c5a0     TrendView.obj
 0002:000065c8       ??_C@_0P@CPBJ@?$CFs?5installed?4?6?$AA@ 0044c5c8     TrendView.obj
 0002:000065d8       ??_C@_0N@JINO@Not?5Measured?$AA@ 0044c5d8     TrendView.obj
 0002:000065e8       ??_C@_0BF@NBEM@Got?5new?5Trend?5data?4?6?$AA@ 0044c5e8     TrendView.obj
 0002:00006600       ??_C@_01PLJA@0?$AA@        0044c600     TrendView.obj
 0002:00006604       ??_C@_0BE@NKAO@Got?5data?5from?5ICS?4?6?$AA@ 0044c604     TrendView.obj
 0002:00006618       ??_C@_07BAAL@?$CFs?5?$FL?$CFs?$FN?$AA@ 0044c618     TrendView.obj
 0002:00006620       ??_C@_0CP@HCHN@Creating?5Safearray?5in?5ProcessTOF@ 0044c620     TrendView.obj
 0002:00006650       ??_C@_05KEJO@?$CFs?2?$CFs?$AA@ 0044c650     TrendView.obj
 0002:00006658       ??_C@_0CI@FOKL@Basic?5part?5of?5Trend?5file?5has?5bee@ 0044c658     TrendView.obj
 0002:00006680       ??_C@_0DP@NFNM@Could?5not?5open?5the?5?4FFT?5?$CIstreami@ 0044c680     TrendView.obj
 0002:000066c0       ??_C@_07ECKO@Track?54?$AA@ 0044c6c0     TrendView.obj
 0002:000066c8       ??_C@_07BHEL@Track?53?$AA@ 0044c6c8     TrendView.obj
 0002:000066d0       ??_C@_07LNNM@Track?52?$AA@ 0044c6d0     TrendView.obj
 0002:000066d8       ??_C@_07ECGF@Track?51?$AA@ 0044c6d8     TrendView.obj
 0002:000066e0       ??_C@_0DD@PIAE@Error?5opening?5the?5settings?5part?5@ 0044c6e0     TrendView.obj
 0002:00006714       ??_C@_0CD@DMBL@GetStartMarkerIndex?5returned?5a?5?9@ 0044c714     TrendView.obj
 0002:00006738       ??_C@_0CF@MPDM@Marker?5index?5?$DN?5?$CFd?0?5Marker?5Pos?5?$DN?5@ 0044c738     TrendView.obj
 0002:00006760       ??_C@_04BOGO@?5?$FLs?$FN?$AA@ 0044c760     TrendView.obj
 0002:00006768       ??_C@_08EKCI@Ready?4?4?4?$AA@ 0044c768     TrendView.obj
 0002:00006774       ??_C@_0BN@FFLF@Summing?5data?0?5please?5wait?4?4?4?$AA@ 0044c774     TrendView.obj
 0002:00006794       ??_C@_0CI@BBCI@Summing?5Averages?5from?5index?5?$CD?$CFd?5@ 0044c794     TrendView.obj
 0002:000067bc       ??_7CBaseWindowData@@6B@   0044c7bc     WindowData.obj
 0002:000067dc       ??_7CParzenWindow@@6B@     0044c7dc     WindowData.obj
 0002:000067fc       ??_C@_0DC@IKLB@Data?5not?5set?5?$CIdouble?5array?5or?5nu@ 0044c7fc     WindowData.obj
 0002:00006830       ??_C@_0FH@PAFC@C?3?2Documents?5and?5Settings?2phonon@ 0044c830     WindowData.obj
 0002:00006888       ??_7CHanningWindow@@6B@    0044c888     WindowData.obj
 0002:000068a8       ?messageMap@TStretchedBitmapStatic@@1UAFX_MSGMAP@@B 0044c8a8     UtilLib:StretchedBitmapStatic.obj
 0002:000068b0       ?_messageEntries@TStretchedBitmapStatic@@0QBUAFX_MSGMAP_ENTRY@@B 0044c8b0     UtilLib:StretchedBitmapStatic.obj
 0002:000068e4       ??_7TStretchedBitmapStatic@@6B@ 0044c8e4     UtilLib:StretchedBitmapStatic.obj
 0002:000069ac       ??_7CGdiObject@@6B@        0044c9ac     UtilLib:StretchedBitmapStatic.obj
 0002:000069c4       ??_7CBitmap@@6B@           0044c9c4     UtilLib:StretchedBitmapStatic.obj
 0002:000069dc       ??_7CObject@@6B@           0044c9dc     UtilLib:StretchedBitmapStatic.obj
 0002:000069f0       ?messageMap@TOhmEditBox@@1UAFX_MSGMAP@@B 0044c9f0     UtilLib:OhmEditBox.obj
 0002:000069f8       ?_messageEntries@TOhmEditBox@@0QBUAFX_MSGMAP_ENTRY@@B 0044c9f8     UtilLib:OhmEditBox.obj
 0002:00006a10       ?messageMap@TOhmUnitsListBox@@1UAFX_MSGMAP@@B 0044ca10     UtilLib:OhmEditBox.obj
 0002:00006a18       ?_messageEntries@TOhmUnitsListBox@@0QBUAFX_MSGMAP_ENTRY@@B 0044ca18     UtilLib:OhmEditBox.obj
 0002:00006a48       ?_messageEntries@?$TAutoNumberWithUnitsEditBoxTmplt@N@@0QBUAFX_MSGMAP_ENTRY@@B 0044ca48     UtilLib:OhmEditBox.obj
 0002:00006a90       ?messageMap@?$TAutoNumberWithUnitsEditBoxTmplt@N@@1UAFX_MSGMAP@@B 0044ca90     UtilLib:OhmEditBox.obj
 0002:00006a9c       ??_7TOhmUnitsListBox@@6B@  0044ca9c     UtilLib:OhmEditBox.obj
 0002:00006b88       ?_messageEntries@?$TAutoEditBoxTmplt@N@@0QBUAFX_MSGMAP_ENTRY@@B 0044cb88     UtilLib:OhmEditBox.obj
 0002:00006bb8       ?messageMap@?$TAutoEditBoxTmplt@N@@1UAFX_MSGMAP@@B 0044cbb8     UtilLib:OhmEditBox.obj
 0002:00006bc0       __real@8@400fa8c0000000000000 0044cbc0     UtilLib:NumberUtils.obj
 0002:00006bc8       __real@8@400ae100000000000000 0044cbc8     UtilLib:NumberUtils.obj
 0002:00006bd0       __real@8@4004f000000000000000 0044cbd0     UtilLib:NumberUtils.obj
 0002:00006bd8       __real@8@c001a000000000000000 0044cbd8     UtilLib:NumberUtils.obj
 0002:00006be0       __real@8@4000c000000000000000 0044cbe0     UtilLib:NumberUtils.obj
 0002:00006be8       __real@8@4002a000000000000000 0044cbe8     UtilLib:NumberUtils.obj
 0002:00006bf0       __real@8@3ffdaaaaaaaaaaaaa800 0044cbf0     UtilLib:NumberUtils.obj
 0002:00006bf8       __real@8@3f58ef73d256a5c0f800 0044cbf8     UtilLib:NumberUtils.obj
 0002:00006c00       __real@8@3fcd901d7cf73ab0b000 0044cc00     UtilLib:NumberUtils.obj
 0002:00006c0c       ??_7TBaseComplexArray@@6B@ 0044cc0c     UtilLib:ComplexArray.obj
 0002:00006c10       __real@8@4001c90fdaa22168c000 0044cc10     UtilLib:ComplexArray.obj
 0002:00006c1c       ??_7TUnitVectorTable@@6B@  0044cc1c     UtilLib:ComplexArray.obj
 0002:00006c24       ??_7TComplexArray@@6B@     0044cc24     UtilLib:ComplexArray.obj
 0002:00006c28       ?messageMap@TAutoControlBase@@1UAFX_MSGMAP@@B 0044cc28     UtilLib:MyControls.obj
 0002:00006c30       ?_messageEntries@TAutoControlBase@@0QBUAFX_MSGMAP_ENTRY@@B 0044cc30     UtilLib:MyControls.obj
 0002:00006ca8       ?messageMap@TAutoRadioButton@@1UAFX_MSGMAP@@B 0044cca8     UtilLib:MyControls.obj
 0002:00006cb0       ?_messageEntries@TAutoRadioButton@@0QBUAFX_MSGMAP_ENTRY@@B 0044ccb0     UtilLib:MyControls.obj
 0002:00006d10       ?messageMap@TAutoRadioButtonWithBitmap@@1UAFX_MSGMAP@@B 0044cd10     UtilLib:MyControls.obj
 0002:00006d18       ?_messageEntries@TAutoRadioButtonWithBitmap@@0QBUAFX_MSGMAP_ENTRY@@B 0044cd18     UtilLib:MyControls.obj
 0002:00006d30       ?messageMap@TAutoCheckBox@@1UAFX_MSGMAP@@B 0044cd30     UtilLib:MyControls.obj
 0002:00006d38       ?_messageEntries@TAutoCheckBox@@0QBUAFX_MSGMAP_ENTRY@@B 0044cd38     UtilLib:MyControls.obj
 0002:00006d50       ?messageMap@TAutoEditBox@@1UAFX_MSGMAP@@B 0044cd50     UtilLib:MyControls.obj
 0002:00006d58       ?_messageEntries@TAutoEditBox@@0QBUAFX_MSGMAP_ENTRY@@B 0044cd58     UtilLib:MyControls.obj
 0002:00006dd0       ?messageMap@TAutoMemoEditBox@@1UAFX_MSGMAP@@B 0044cdd0     UtilLib:MyControls.obj
 0002:00006dd8       ?_messageEntries@TAutoMemoEditBox@@0QBUAFX_MSGMAP_ENTRY@@B 0044cdd8     UtilLib:MyControls.obj
 0002:00006df0       ?messageMap@TAutoDoubleEditBox@@1UAFX_MSGMAP@@B 0044cdf0     UtilLib:MyControls.obj
 0002:00006df8       ?_messageEntries@TAutoDoubleEditBox@@0QBUAFX_MSGMAP_ENTRY@@B 0044cdf8     UtilLib:MyControls.obj
 0002:00006e20       ?messageMap@TAutoDoubleWithEngUnitsEditBox@@1UAFX_MSGMAP@@B 0044ce20     UtilLib:MyControls.obj
 0002:00006e28       ?_messageEntries@TAutoDoubleWithEngUnitsEditBox@@0QBUAFX_MSGMAP_ENTRY@@B 0044ce28     UtilLib:MyControls.obj
 0002:00006e40       ?messageMap@TAutoDWORDEditBox@@1UAFX_MSGMAP@@B 0044ce40     UtilLib:MyControls.obj
 0002:00006e48       ?_messageEntries@TAutoDWORDEditBox@@0QBUAFX_MSGMAP_ENTRY@@B 0044ce48     UtilLib:MyControls.obj
 0002:00006e60       ?messageMap@TAutoListBox@@1UAFX_MSGMAP@@B 0044ce60     UtilLib:MyControls.obj
 0002:00006e68       ?_messageEntries@TAutoListBox@@0QBUAFX_MSGMAP_ENTRY@@B 0044ce68     UtilLib:MyControls.obj
 0002:00006e98       ?messageMap@TAutoIntListBox@@1UAFX_MSGMAP@@B 0044ce98     UtilLib:MyControls.obj
 0002:00006ea0       ?_messageEntries@TAutoIntListBox@@0QBUAFX_MSGMAP_ENTRY@@B 0044cea0     UtilLib:MyControls.obj
 0002:00006ec8       ?messageMap@TAutoUnitsListBox@@1UAFX_MSGMAP@@B 0044cec8     UtilLib:MyControls.obj
 0002:00006ed0       ?_messageEntries@TAutoUnitsListBox@@0QBUAFX_MSGMAP_ENTRY@@B 0044ced0     UtilLib:MyControls.obj
 0002:00006f18       ?messageMap@TAutoPopoutBitmapSelector@@1UAFX_MSGMAP@@B 0044cf18     UtilLib:MyControls.obj
 0002:00006f20       ?_messageEntries@TAutoPopoutBitmapSelector@@0QBUAFX_MSGMAP_ENTRY@@B 0044cf20     UtilLib:MyControls.obj
 0002:00006fc8       ?messageMap@TBitmapButton@@1UAFX_MSGMAP@@B 0044cfc8     UtilLib:MyControls.obj
 0002:00006fd0       ?_messageEntries@TBitmapButton@@0QBUAFX_MSGMAP_ENTRY@@B 0044cfd0     UtilLib:MyControls.obj
 0002:00007048       ?messageMap@T3DBitmapStatic@@1UAFX_MSGMAP@@B 0044d048     UtilLib:MyControls.obj
 0002:00007050       ?_messageEntries@T3DBitmapStatic@@0QBUAFX_MSGMAP_ENTRY@@B 0044d050     UtilLib:MyControls.obj
 0002:00007080       ?messageMap@TStaticForAutoRadioButton@@1UAFX_MSGMAP@@B 0044d080     UtilLib:MyControls.obj
 0002:00007088       ?_messageEntries@TStaticForAutoRadioButton@@0QBUAFX_MSGMAP_ENTRY@@B 0044d088     UtilLib:MyControls.obj
 0002:00007118       ?messageMap@TFancyStatic@@1UAFX_MSGMAP@@B 0044d118     UtilLib:MyControls.obj
 0002:00007120       ?_messageEntries@TFancyStatic@@0QBUAFX_MSGMAP_ENTRY@@B 0044d120     UtilLib:MyControls.obj
 0002:00007150       ?messageMap@TMyDialog@@1UAFX_MSGMAP@@B 0044d150     UtilLib:MyControls.obj
 0002:00007158       ?_messageEntries@TMyDialog@@0QBUAFX_MSGMAP_ENTRY@@B 0044d158     UtilLib:MyControls.obj
 0002:000071e8       ?messageMap@TMyPropertyPage@@1UAFX_MSGMAP@@B 0044d1e8     UtilLib:MyControls.obj
 0002:000071f0       ?_messageEntries@TMyPropertyPage@@0QBUAFX_MSGMAP_ENTRY@@B 0044d1f0     UtilLib:MyControls.obj
 0002:00007280       ?messageMap@TAutoPopoutBitmapSelectorWindow@@1UAFX_MSGMAP@@B 0044d280     UtilLib:MyControls.obj
 0002:00007288       ?_messageEntries@TAutoPopoutBitmapSelectorWindow@@0QBUAFX_MSGMAP_ENTRY@@B 0044d288     UtilLib:MyControls.obj
 0002:00007334       ??_7TBaseEnabler@@6B@      0044d334     UtilLib:MyControls.obj
 0002:00007348       ??_7TDftEnabler@TAutoControlBase@@6B@ 0044d348     UtilLib:MyControls.obj
 0002:0000735c       ??_7TAutoControlBase@@6B@  0044d35c     UtilLib:MyControls.obj
 0002:0000742c       ??_7TEnabler@@6B@          0044d42c     UtilLib:MyControls.obj
 0002:00007440       ??_7TAutoRadioButton@@6B@  0044d440     UtilLib:MyControls.obj
 0002:00007514       ??_7TAutoRadioButtonWithBitmap@@6B@ 0044d514     UtilLib:MyControls.obj
 0002:000075e8       ??_7TAutoCheckBox@@6B@     0044d5e8     UtilLib:MyControls.obj
 0002:000076bc       ??_7TAutoboolCheckBox@@6B@ 0044d6bc     UtilLib:MyControls.obj
 0002:00007790       ??_7TAutoBOOLCheckBox@@6B@ 0044d790     UtilLib:MyControls.obj
 0002:00007864       ??_7TDftEnabler@TAutoEditBox@@6B@ 0044d864     UtilLib:MyControls.obj
 0002:00007878       ??_7TAutoEditBox@@6B@      0044d878     UtilLib:MyControls.obj
 0002:0000795c       ??_7?$TEditBoxTextTranslatorTmplt@VCString@@@@6B@ 0044d95c     UtilLib:MyControls.obj
 0002:00007974       ??_7TDftTranslator@TAutoMemoEditBox@@6B@ 0044d974     UtilLib:MyControls.obj
 0002:00007988       ?_messageEntries@?$TAutoEditBoxTmplt@VCString@@@@0QBUAFX_MSGMAP_ENTRY@@B 0044d988     UtilLib:MyControls.obj
 0002:000079b8       ?messageMap@?$TAutoEditBoxTmplt@VCString@@@@1UAFX_MSGMAP@@B 0044d9b8     UtilLib:MyControls.obj
 0002:000079c4       ??_7?$TEditBoxTextTranslatorTmplt@N@@6B@ 0044d9c4     UtilLib:MyControls.obj
 0002:000079dc       ??_7TDftTranslator@TAutoDoubleEditBox@@6B@ 0044d9dc     UtilLib:MyControls.obj
 0002:000079f0       __real@8@3ffaccccccccccccd000 0044d9f0     UtilLib:MyControls.obj
 0002:000079f8       __real@8@3f9ba2425ff75e150000 0044d9f8     UtilLib:MyControls.obj
 0002:00007a00       __real@8@3ff8a3d70a3d70a3d800 0044da00     UtilLib:MyControls.obj
 0002:00007a08       __real@8@4005c800000000000000 0044da08     UtilLib:MyControls.obj
 0002:00007a14       ??_7TDftTranslator@TAutoDWORDEditBox@@6B@ 0044da14     UtilLib:MyControls.obj
 0002:00007a2c       ??_7?$TEditBoxTextTranslatorTmplt@K@@6B@ 0044da2c     UtilLib:MyControls.obj
 0002:00007a40       ?_messageEntries@?$TAutoEditBoxTmplt@K@@0QBUAFX_MSGMAP_ENTRY@@B 0044da40     UtilLib:MyControls.obj
 0002:00007a70       ?messageMap@?$TAutoEditBoxTmplt@K@@1UAFX_MSGMAP@@B 0044da70     UtilLib:MyControls.obj
 0002:00007a7c       ??_7TAutoListBox@@6B@      0044da7c     UtilLib:MyControls.obj
 0002:00007b68       ??_7TAutoIntListBox@@6B@   0044db68     UtilLib:MyControls.obj
 0002:00007c54       ??_7TAutoUnitsListBox@@6B@ 0044dc54     UtilLib:MyControls.obj
 0002:00007d44       ??_7TAutoPopoutBitmapSelector@@6B@ 0044dd44     UtilLib:MyControls.obj
 0002:00007e14       ??_7TBitmapButton@@6B@     0044de14     UtilLib:MyControls.obj
 0002:00007ee4       ??_7T3DBitmapStatic@@6B@   0044dee4     UtilLib:MyControls.obj
 0002:00007fb8       ??_7TStaticForAutoRadioButton@@6B@ 0044dfb8     UtilLib:MyControls.obj
 0002:0000808c       ??_7TFancyStatic@@6B@      0044e08c     UtilLib:MyControls.obj
 0002:00008160       ??_7TMyDialog@@6B@         0044e160     UtilLib:MyControls.obj
 0002:00008244       ??_7TMyPropertyPage@@6B@   0044e244     UtilLib:MyControls.obj
 0002:00008344       ??_7TAutoPopoutBitmapSelectorWindow@@6B@ 0044e344     UtilLib:MyControls.obj
 0002:00008408       ?messageMap@TNotifier@@1UAFX_MSGMAP@@B 0044e408     UtilLib:Notifier.obj
 0002:00008410       ?_messageEntries@TNotifier@@0QBUAFX_MSGMAP_ENTRY@@B 0044e410     UtilLib:Notifier.obj
 0002:00008444       ??_7TNotifier@@6B@         0044e444     UtilLib:Notifier.obj
 0002:00008508       ??_7?$CTypedPtrList@VCPtrList@@PAVTNotifierListNode@@@@6B@ 0044e508     UtilLib:Notifier.obj
 0002:00008520       _IID_IDocHostUIHandlerDispatch 0044e520     mfcs42d:stdafx.obj
 0002:00008530       _IID_IInternalConnection   0044e530     mfcs42d:stdafx.obj
 0002:00008540       _IID_IAxWinAmbientDispatch 0044e540     mfcs42d:stdafx.obj
 0002:00008550       _IID_IAxWinHostWindow      0044e550     mfcs42d:stdafx.obj
 0002:00008560       _IID_IRegistrar            0044e560     mfcs42d:stdafx.obj
 0002:00008570       _CLSID_Registrar           0044e570     mfcs42d:stdafx.obj
 0002:00008580       _LIBID_ATLLib              0044e580     mfcs42d:stdafx.obj
 0002:00008594       ??_7type_info@@6B@         0044e594     msvcrtd:ti_inst.obj
 0002:000085d8       ??_R1A@?0A@A@CObject@@8    0044e5d8     UtilLib:StretchedBitmapStatic.obj
 0002:000085f0       ??_R1A@?0A@A@CCmdTarget@@8 0044e5f0     UtilLib:StretchedBitmapStatic.obj
 0002:00008608       ??_R1A@?0A@A@CWnd@@8       0044e608     UtilLib:StretchedBitmapStatic.obj
 0002:00008620       ??_R1A@?0A@A@CStatic@@8    0044e620     UtilLib:StretchedBitmapStatic.obj
 0002:00008638       ??_R1A@?0A@A@TStretchedBitmapStatic@@8 0044e638     UtilLib:StretchedBitmapStatic.obj
 0002:00008650       ??_R2TStretchedBitmapStatic@@8 0044e650     UtilLib:StretchedBitmapStatic.obj
 0002:00008668       ??_R3TStretchedBitmapStatic@@8 0044e668     UtilLib:StretchedBitmapStatic.obj
 0002:00008678       ??_R4TStretchedBitmapStatic@@6B@ 0044e678     UtilLib:StretchedBitmapStatic.obj
 0002:00008690       ??_R1A@?0A@A@CBitmap@@8    0044e690     UtilLib:StretchedBitmapStatic.obj
 0002:000086a8       ??_R2CBitmap@@8            0044e6a8     UtilLib:StretchedBitmapStatic.obj
 0002:000086b8       ??_R3CBitmap@@8            0044e6b8     UtilLib:StretchedBitmapStatic.obj
 0002:000086c8       ??_R4CBitmap@@6B@          0044e6c8     UtilLib:StretchedBitmapStatic.obj
 0002:000086e0       ??_R1A@?0A@A@CGdiObject@@8 0044e6e0     UtilLib:StretchedBitmapStatic.obj
 0002:000086f8       ??_R2CGdiObject@@8         0044e6f8     UtilLib:StretchedBitmapStatic.obj
 0002:00008708       ??_R3CGdiObject@@8         0044e708     UtilLib:StretchedBitmapStatic.obj
 0002:00008718       ??_R4CGdiObject@@6B@       0044e718     UtilLib:StretchedBitmapStatic.obj
 0002:0000872c       ??_R2CObject@@8            0044e72c     UtilLib:StretchedBitmapStatic.obj
 0002:00008738       ??_R3CObject@@8            0044e738     UtilLib:StretchedBitmapStatic.obj
 0002:00008748       ??_R4CObject@@6B@          0044e748     UtilLib:StretchedBitmapStatic.obj
 0002:00008760       ??_R1A@?0A@A@TAutoControlBase@@8 0044e760     UtilLib:OhmEditBox.obj
 0002:00008778       ??_R1A@?0A@A@TAutoListBox@@8 0044e778     UtilLib:OhmEditBox.obj
 0002:00008790       ??_R1A@?0A@A@TAutoUnitsListBox@@8 0044e790     UtilLib:OhmEditBox.obj
 0002:000087a8       ??_R1A@?0A@A@TOhmUnitsListBox@@8 0044e7a8     UtilLib:OhmEditBox.obj
 0002:000087c0       ??_R2TOhmUnitsListBox@@8   0044e7c0     UtilLib:OhmEditBox.obj
 0002:000087e0       ??_R3TOhmUnitsListBox@@8   0044e7e0     UtilLib:OhmEditBox.obj
 0002:000087f0       ??_R4TOhmUnitsListBox@@6B@ 0044e7f0     UtilLib:OhmEditBox.obj
 0002:00008808       ??_R1A@?0A@A@TBaseComplexArray@@8 0044e808     UtilLib:ComplexArray.obj
 0002:00008820       ??_R2TBaseComplexArray@@8  0044e820     UtilLib:ComplexArray.obj
 0002:00008828       ??_R3TBaseComplexArray@@8  0044e828     UtilLib:ComplexArray.obj
 0002:00008838       ??_R4TBaseComplexArray@@6B@ 0044e838     UtilLib:ComplexArray.obj
 0002:00008850       ??_R1A@?0A@A@TUnitVectorTable@@8 0044e850     UtilLib:ComplexArray.obj
 0002:00008868       ??_R2TUnitVectorTable@@8   0044e868     UtilLib:ComplexArray.obj
 0002:00008878       ??_R3TUnitVectorTable@@8   0044e878     UtilLib:ComplexArray.obj
 0002:00008888       ??_R4TUnitVectorTable@@6B@ 0044e888     UtilLib:ComplexArray.obj
 0002:000088a0       ??_R1A@?0A@A@TComplexArray@@8 0044e8a0     UtilLib:ComplexArray.obj
 0002:000088b8       ??_R2TComplexArray@@8      0044e8b8     UtilLib:ComplexArray.obj
 0002:000088c8       ??_R3TComplexArray@@8      0044e8c8     UtilLib:ComplexArray.obj
 0002:000088d8       ??_R4TComplexArray@@6B@    0044e8d8     UtilLib:ComplexArray.obj
 0002:000088f0       ??_R1A@?0A@A@TBaseEnabler@@8 0044e8f0     UtilLib:MyControls.obj
 0002:00008908       ??_R2TBaseEnabler@@8       0044e908     UtilLib:MyControls.obj
 0002:00008910       ??_R3TBaseEnabler@@8       0044e910     UtilLib:MyControls.obj
 0002:00008920       ??_R4TBaseEnabler@@6B@     0044e920     UtilLib:MyControls.obj
 0002:00008938       ??_R1A@?0A@A@TDftEnabler@TAutoControlBase@@8 0044e938     UtilLib:MyControls.obj
 0002:00008950       ??_R2TDftEnabler@TAutoControlBase@@8 0044e950     UtilLib:MyControls.obj
 0002:00008960       ??_R3TDftEnabler@TAutoControlBase@@8 0044e960     UtilLib:MyControls.obj
 0002:00008970       ??_R4TDftEnabler@TAutoControlBase@@6B@ 0044e970     UtilLib:MyControls.obj
 0002:00008988       ??_R2TAutoControlBase@@8   0044e988     UtilLib:MyControls.obj
 0002:000089a0       ??_R3TAutoControlBase@@8   0044e9a0     UtilLib:MyControls.obj
 0002:000089b0       ??_R4TAutoControlBase@@6B@ 0044e9b0     UtilLib:MyControls.obj
 0002:000089c8       ??_R1A@?0A@A@TEnabler@@8   0044e9c8     UtilLib:MyControls.obj
 0002:000089e0       ??_R2TEnabler@@8           0044e9e0     UtilLib:MyControls.obj
 0002:000089f0       ??_R3TEnabler@@8           0044e9f0     UtilLib:MyControls.obj
 0002:00008a00       ??_R4TEnabler@@6B@         0044ea00     UtilLib:MyControls.obj
 0002:00008a18       ??_R1A@?0A@A@TAutoRadioButton@@8 0044ea18     UtilLib:MyControls.obj
 0002:00008a30       ??_R2TAutoRadioButton@@8   0044ea30     UtilLib:MyControls.obj
 0002:00008a48       ??_R3TAutoRadioButton@@8   0044ea48     UtilLib:MyControls.obj
 0002:00008a58       ??_R4TAutoRadioButton@@6B@ 0044ea58     UtilLib:MyControls.obj
 0002:00008a70       ??_R1A@?0A@A@TAutoRadioButtonWithBitmap@@8 0044ea70     UtilLib:MyControls.obj
 0002:00008a88       ??_R2TAutoRadioButtonWithBitmap@@8 0044ea88     UtilLib:MyControls.obj
 0002:00008aa8       ??_R3TAutoRadioButtonWithBitmap@@8 0044eaa8     UtilLib:MyControls.obj
 0002:00008ab8       ??_R4TAutoRadioButtonWithBitmap@@6B@ 0044eab8     UtilLib:MyControls.obj
 0002:00008ad0       ??_R1A@?0A@A@TAutoCheckBox@@8 0044ead0     UtilLib:MyControls.obj
 0002:00008ae8       ??_R2TAutoCheckBox@@8      0044eae8     UtilLib:MyControls.obj
 0002:00008b08       ??_R3TAutoCheckBox@@8      0044eb08     UtilLib:MyControls.obj
 0002:00008b18       ??_R4TAutoCheckBox@@6B@    0044eb18     UtilLib:MyControls.obj
 0002:00008b30       ??_R1A@?0A@A@TAutoboolCheckBox@@8 0044eb30     UtilLib:MyControls.obj
 0002:00008b48       ??_R2TAutoboolCheckBox@@8  0044eb48     UtilLib:MyControls.obj
 0002:00008b68       ??_R3TAutoboolCheckBox@@8  0044eb68     UtilLib:MyControls.obj
 0002:00008b78       ??_R4TAutoboolCheckBox@@6B@ 0044eb78     UtilLib:MyControls.obj
 0002:00008b90       ??_R1A@?0A@A@TAutoBOOLCheckBox@@8 0044eb90     UtilLib:MyControls.obj
 0002:00008ba8       ??_R2TAutoBOOLCheckBox@@8  0044eba8     UtilLib:MyControls.obj
 0002:00008bc8       ??_R3TAutoBOOLCheckBox@@8  0044ebc8     UtilLib:MyControls.obj
 0002:00008bd8       ??_R4TAutoBOOLCheckBox@@6B@ 0044ebd8     UtilLib:MyControls.obj
 0002:00008bf0       ??_R1A@?0A@A@TDftEnabler@TAutoEditBox@@8 0044ebf0     UtilLib:MyControls.obj
 0002:00008c08       ??_R2TDftEnabler@TAutoEditBox@@8 0044ec08     UtilLib:MyControls.obj
 0002:00008c18       ??_R3TDftEnabler@TAutoEditBox@@8 0044ec18     UtilLib:MyControls.obj
 0002:00008c28       ??_R4TDftEnabler@TAutoEditBox@@6B@ 0044ec28     UtilLib:MyControls.obj
 0002:00008c40       ??_R1A@?0A@A@TAutoEditBox@@8 0044ec40     UtilLib:MyControls.obj
 0002:00008c58       ??_R2TAutoEditBox@@8       0044ec58     UtilLib:MyControls.obj
 0002:00008c70       ??_R3TAutoEditBox@@8       0044ec70     UtilLib:MyControls.obj
 0002:00008c80       ??_R4TAutoEditBox@@6B@     0044ec80     UtilLib:MyControls.obj
 0002:00008c98       ??_R1A@?0A@A@?$TEditBoxTextTranslatorTmplt@VCString@@@@8 0044ec98     UtilLib:MyControls.obj
 0002:00008cb0       ??_R2?$TEditBoxTextTranslatorTmplt@VCString@@@@8 0044ecb0     UtilLib:MyControls.obj
 0002:00008cb8       ??_R3?$TEditBoxTextTranslatorTmplt@VCString@@@@8 0044ecb8     UtilLib:MyControls.obj
 0002:00008cc8       ??_R4?$TEditBoxTextTranslatorTmplt@VCString@@@@6B@ 0044ecc8     UtilLib:MyControls.obj
 0002:00008ce0       ??_R1A@?0A@A@TDftTranslator@TAutoMemoEditBox@@8 0044ece0     UtilLib:MyControls.obj
 0002:00008cf8       ??_R2TDftTranslator@TAutoMemoEditBox@@8 0044ecf8     UtilLib:MyControls.obj
 0002:00008d08       ??_R3TDftTranslator@TAutoMemoEditBox@@8 0044ed08     UtilLib:MyControls.obj
 0002:00008d18       ??_R4TDftTranslator@TAutoMemoEditBox@@6B@ 0044ed18     UtilLib:MyControls.obj
 0002:00008d30       ??_R1A@?0A@A@?$TEditBoxTextTranslatorTmplt@N@@8 0044ed30     UtilLib:MyControls.obj
 0002:00008d48       ??_R2?$TEditBoxTextTranslatorTmplt@N@@8 0044ed48     UtilLib:MyControls.obj
 0002:00008d50       ??_R3?$TEditBoxTextTranslatorTmplt@N@@8 0044ed50     UtilLib:MyControls.obj
 0002:00008d60       ??_R4?$TEditBoxTextTranslatorTmplt@N@@6B@ 0044ed60     UtilLib:MyControls.obj
 0002:00008d78       ??_R1A@?0A@A@TDftTranslator@TAutoDoubleEditBox@@8 0044ed78     UtilLib:MyControls.obj
 0002:00008d90       ??_R2TDftTranslator@TAutoDoubleEditBox@@8 0044ed90     UtilLib:MyControls.obj
 0002:00008da0       ??_R3TDftTranslator@TAutoDoubleEditBox@@8 0044eda0     UtilLib:MyControls.obj
 0002:00008db0       ??_R4TDftTranslator@TAutoDoubleEditBox@@6B@ 0044edb0     UtilLib:MyControls.obj
 0002:00008dc8       ??_R1A@?0A@A@?$TEditBoxTextTranslatorTmplt@K@@8 0044edc8     UtilLib:MyControls.obj
 0002:00008de0       ??_R1A@?0A@A@TDftTranslator@TAutoDWORDEditBox@@8 0044ede0     UtilLib:MyControls.obj
 0002:00008df8       ??_R2TDftTranslator@TAutoDWORDEditBox@@8 0044edf8     UtilLib:MyControls.obj
 0002:00008e08       ??_R3TDftTranslator@TAutoDWORDEditBox@@8 0044ee08     UtilLib:MyControls.obj
 0002:00008e18       ??_R4TDftTranslator@TAutoDWORDEditBox@@6B@ 0044ee18     UtilLib:MyControls.obj
 0002:00008e2c       ??_R2?$TEditBoxTextTranslatorTmplt@K@@8 0044ee2c     UtilLib:MyControls.obj
 0002:00008e38       ??_R3?$TEditBoxTextTranslatorTmplt@K@@8 0044ee38     UtilLib:MyControls.obj
 0002:00008e48       ??_R4?$TEditBoxTextTranslatorTmplt@K@@6B@ 0044ee48     UtilLib:MyControls.obj
 0002:00008e60       ??_R2TAutoListBox@@8       0044ee60     UtilLib:MyControls.obj
 0002:00008e78       ??_R3TAutoListBox@@8       0044ee78     UtilLib:MyControls.obj
 0002:00008e88       ??_R4TAutoListBox@@6B@     0044ee88     UtilLib:MyControls.obj
 0002:00008ea0       ??_R1A@?0A@A@TAutoIntListBox@@8 0044eea0     UtilLib:MyControls.obj
 0002:00008eb8       ??_R2TAutoIntListBox@@8    0044eeb8     UtilLib:MyControls.obj
 0002:00008ed8       ??_R3TAutoIntListBox@@8    0044eed8     UtilLib:MyControls.obj
 0002:00008ee8       ??_R4TAutoIntListBox@@6B@  0044eee8     UtilLib:MyControls.obj
 0002:00008f00       ??_R2TAutoUnitsListBox@@8  0044ef00     UtilLib:MyControls.obj
 0002:00008f20       ??_R3TAutoUnitsListBox@@8  0044ef20     UtilLib:MyControls.obj
 0002:00008f30       ??_R4TAutoUnitsListBox@@6B@ 0044ef30     UtilLib:MyControls.obj
 0002:00008f48       ??_R1A@?0A@A@TBitmapButton@@8 0044ef48     UtilLib:MyControls.obj
 0002:00008f60       ??_R1A@?0A@A@TAutoPopoutBitmapSelector@@8 0044ef60     UtilLib:MyControls.obj
 0002:00008f78       ??_R2TAutoPopoutBitmapSelector@@8 0044ef78     UtilLib:MyControls.obj
 0002:00008f98       ??_R3TAutoPopoutBitmapSelector@@8 0044ef98     UtilLib:MyControls.obj
 0002:00008fa8       ??_R4TAutoPopoutBitmapSelector@@6B@ 0044efa8     UtilLib:MyControls.obj
 0002:00008fc0       ??_R2TBitmapButton@@8      0044efc0     UtilLib:MyControls.obj
 0002:00008fd8       ??_R3TBitmapButton@@8      0044efd8     UtilLib:MyControls.obj
 0002:00008fe8       ??_R4TBitmapButton@@6B@    0044efe8     UtilLib:MyControls.obj
 0002:00009000       ??_R1A@?0A@A@T3DBitmapStatic@@8 0044f000     UtilLib:MyControls.obj
 0002:00009018       ??_R2T3DBitmapStatic@@8    0044f018     UtilLib:MyControls.obj
 0002:00009030       ??_R3T3DBitmapStatic@@8    0044f030     UtilLib:MyControls.obj
 0002:00009040       ??_R4T3DBitmapStatic@@6B@  0044f040     UtilLib:MyControls.obj
 0002:00009058       ??_R1A@?0A@A@TStaticForAutoRadioButton@@8 0044f058     UtilLib:MyControls.obj
 0002:00009070       ??_R2TStaticForAutoRadioButton@@8 0044f070     UtilLib:MyControls.obj
 0002:00009088       ??_R3TStaticForAutoRadioButton@@8 0044f088     UtilLib:MyControls.obj
 0002:00009098       ??_R4TStaticForAutoRadioButton@@6B@ 0044f098     UtilLib:MyControls.obj
 0002:000090b0       ??_R1A@?0A@A@TFancyStatic@@8 0044f0b0     UtilLib:MyControls.obj
 0002:000090c8       ??_R2TFancyStatic@@8       0044f0c8     UtilLib:MyControls.obj
 0002:000090e8       ??_R3TFancyStatic@@8       0044f0e8     UtilLib:MyControls.obj
 0002:000090f8       ??_R4TFancyStatic@@6B@     0044f0f8     UtilLib:MyControls.obj
 0002:00009110       ??_R1GA@?0A@A@TMyDialogExtraStuff@@8 0044f110     UtilLib:MyControls.obj
 0002:00009128       ??_R1A@?0A@A@CDialog@@8    0044f128     UtilLib:MyControls.obj
 0002:00009140       ??_R1A@?0A@A@TMyDialog@@8  0044f140     UtilLib:MyControls.obj
 0002:00009158       ??_R2TMyDialog@@8          0044f158     UtilLib:MyControls.obj
 0002:00009178       ??_R3TMyDialog@@8          0044f178     UtilLib:MyControls.obj
 0002:00009188       ??_R4TMyDialog@@6B@        0044f188     UtilLib:MyControls.obj
 0002:000091a0       ??_R1JA@?0A@A@TMyDialogExtraStuff@@8 0044f1a0     UtilLib:MyControls.obj
 0002:000091b8       ??_R1A@?0A@A@CPropertyPage@@8 0044f1b8     UtilLib:MyControls.obj
 0002:000091d0       ??_R1A@?0A@A@TMyPropertyPage@@8 0044f1d0     UtilLib:MyControls.obj
 0002:000091e8       ??_R2TMyPropertyPage@@8    0044f1e8     UtilLib:MyControls.obj
 0002:00009208       ??_R3TMyPropertyPage@@8    0044f208     UtilLib:MyControls.obj
 0002:00009218       ??_R4TMyPropertyPage@@6B@  0044f218     UtilLib:MyControls.obj
 0002:00009230       ??_R1A@?0A@A@TAutoPopoutBitmapSelectorWindow@@8 0044f230     UtilLib:MyControls.obj
 0002:00009248       ??_R2TAutoPopoutBitmapSelectorWindow@@8 0044f248     UtilLib:MyControls.obj
 0002:00009260       ??_R3TAutoPopoutBitmapSelectorWindow@@8 0044f260     UtilLib:MyControls.obj
 0002:00009270       ??_R4TAutoPopoutBitmapSelectorWindow@@6B@ 0044f270     UtilLib:MyControls.obj
 0002:00009288       ??_R1A@?0A@A@CPtrList@@8   0044f288     UtilLib:Notifier.obj
 0002:000092a0       ??_R1A@?0A@A@?$_CTypedPtrList@VCPtrList@@PAVTNotifierListNode@@@@8 0044f2a0     UtilLib:Notifier.obj
 0002:000092b8       ??_R1A@?0A@A@?$CTypedPtrList@VCPtrList@@PAVTNotifierListNode@@@@8 0044f2b8     UtilLib:Notifier.obj
 0002:000092d0       ??_R2?$CTypedPtrList@VCPtrList@@PAVTNotifierListNode@@@@8 0044f2d0     UtilLib:Notifier.obj
 0002:000092e8       ??_R3?$CTypedPtrList@VCPtrList@@PAVTNotifierListNode@@@@8 0044f2e8     UtilLib:Notifier.obj
 0002:000092f8       ??_R4?$CTypedPtrList@VCPtrList@@PAVTNotifierListNode@@@@6B@ 0044f2f8     UtilLib:Notifier.obj
 0002:00009310       ??_R1A@?0A@A@TNotifier@@8  0044f310     UtilLib:Notifier.obj
 0002:00009328       ??_R2TNotifier@@8          0044f328     UtilLib:Notifier.obj
 0002:00009340       ??_R3TNotifier@@8          0044f340     UtilLib:Notifier.obj
 0002:00009350       ??_R4TNotifier@@6B@        0044f350     UtilLib:Notifier.obj
 0002:00009368       ??_R1A@?0A@A@type_info@@8  0044f368     msvcrtd:ti_inst.obj
 0002:00009380       ??_R2type_info@@8          0044f380     msvcrtd:ti_inst.obj
 0002:00009388       ??_R3type_info@@8          0044f388     msvcrtd:ti_inst.obj
 0002:00009398       ??_R4type_info@@6B@        0044f398     msvcrtd:ti_inst.obj
 0003:00000000       ___xc_a                    00455000     msvcrtd:cinitexe.obj
 0003:00000048       ___xc_z                    00455048     msvcrtd:cinitexe.obj
 0003:0000004c       ___xi_a                    0045504c     msvcrtd:cinitexe.obj
 0003:00000050       ___xi_z                    00455050     msvcrtd:cinitexe.obj
 0003:000000bc       ?__LINE__Var@?1??OnInstProps@CAcquisitionTab@@IAEXXZ@4FA 004550bc     AcquisitionTab.obj
 0003:000000c0       ?__LINE__Var@?1??OnAcqStart@CAcquisitionTab@@UAEXXZ@4FA 004550c0     AcquisitionTab.obj
 0003:000000c4       ?__LINE__Var@?1??OnAcqStop@CAcquisitionTab@@UAEXXZ@4FA 004550c4     AcquisitionTab.obj
 0003:000000c8       ?__LINE__Var@?1??OnInitDialog@CAcquisitionTab@@MAEHXZ@4FA 004550c8     AcquisitionTab.obj
 0003:000000d0       ??_R0PAVCOleException@@@8  004550d0     AcquisitionTab.obj
 0003:000000ec       ?__LINE__Var@?1??OnTimer@CAcquisitionTab@@IAEXI@Z@4FA 004550ec     AcquisitionTab.obj
 0003:000000f0       ?__LINE__Var@?1??OnModeTrend@CAcquisitionTab@@QAEXXZ@4FA 004550f0     AcquisitionTab.obj
 0003:000000f4       ?__LINE__Var@?1??OnModeAverage@CAcquisitionTab@@QAEXXZ@4FA 004550f4     AcquisitionTab.obj
 0003:000000f8       ?__LINE__Var@?1??OnRealtime@CAcquisitionTab@@IAEXXZ@4FA 004550f8     AcquisitionTab.obj
 0003:000001ac       ?__LINE__Var@?1??OnInitDialog@CAnalysisTab@@MAEHXZ@4FA 004551ac     AnalysisTab.obj
 0003:000001b0       ?__LINE__Var@?1??OnMeasurements@CAnalysisTab@@QAEXXZ@4FA 004551b0     AnalysisTab.obj
 0003:000001b4       ?__LINE__Var@?1??OnDestroy@CAnalysisTab@@IAEXXZ@4FA 004551b4     AnalysisTab.obj
 0003:00000214       ?__LINE__Var@?1??OnInitDialog@CAverageSaveDlg@@MAEHXZ@4FA 00455214     AverageSaveDlg.obj
 0003:00000270       ?_eventsinkEntryCount@CAverageView@@0IA 00455270     AverageView.obj
 0003:0000029c       ?__LINE__Var@?1??CreateGraph@CAverageView@@UAE_NXZ@4FA 0045529c     AverageView.obj
 0003:000002a0       ??_R0PAVCFileException@@@8 004552a0     AverageView.obj
 0003:000002c0       ?__LINE__Var@?1??LoadDataToBeCombined@CAverageView@@UAEXXZ@4FA 004552c0     AverageView.obj
 0003:000002c4       ?__LINE__Var@?1??StartAverageAcquisition@CAverageView@@UAEXVCString@@@Z@4FA 004552c4     AverageView.obj
 0003:000002c8       ?__LINE__Var@?1??StopAverageAcquisition@CAverageView@@UAEXXZ@4FA 004552c8     AverageView.obj
 0003:000002cc       ?__LINE__Var@?1??OnTimer@CAverageView@@IAEXI@Z@4FA 004552cc     AverageView.obj
 0003:000002d0       ?__LINE__Var@?1??DisplayHoverWindow@CAverageView@@UAEXXZ@4FA 004552d0     AverageView.obj
 0003:000002d4       ?__LINE__Var@?1??RetrieveAverageActive@CAverageView@@UAE_NH@Z@4FA 004552d4     AverageView.obj
 0003:000002d8       ?__LINE__Var@?1??RetrieveTrendAverageFile@CAverageView@@UAE_NVCString@@H@Z@4FA 004552d8     AverageView.obj
 0003:000002dc       ?__LINE__Var@?1??SaveAsAverageFile@CAverageView@@UAE_NVCString@@0@Z@4FA 004552dc     AverageView.obj
 0003:000002e0       ?__LINE__Var@?1??SaveAverageFile@CAverageView@@UAE_NVCString@@@Z@4FA 004552e0     AverageView.obj
 0003:000002e4       ?__LINE__Var@?1??OpenAverageFile@CAverageView@@UAE_NVCString@@H@Z@4FA 004552e4     AverageView.obj
 0003:000002e8       ?__LINE__Var@?1??OnGSXMouseUp@CAverageView@@IAEXFFJJ@Z@4FA 004552e8     AverageView.obj
 0003:000002ec       ?__LINE__Var@?1??OnGSXMouseMove@CAverageView@@IAEXFFJJ@Z@4FA 004552ec     AverageView.obj
 0003:000002f0       ?__LINE__Var@?1??OnViewFFT@CAverageView@@IAEXXZ@4FA 004552f0     AverageView.obj
 0003:000002f4       ?__LINE__Var@?1??UpdateAnalysisInfo@CAverageView@@UAEXXZ@4FA 004552f4     AverageView.obj
 0003:000002f8       ?__LINE__Var@?1??OnRightCalibrationEnable@CAverageView@@QAEXXZ@4FA 004552f8     AverageView.obj
 0003:000002fc       ?__LINE__Var@?1??OnRightSetMarkerTool@CAverageView@@IAEXXZ@4FA 004552fc     AverageView.obj
 0003:00000300       ?__LINE__Var@?1??OnRightSetZoomTool@CAverageView@@IAEXXZ@4FA 00455300     AverageView.obj
 0003:00000304       ?__LINE__Var@?1??GraphSettings@CAverageView@@UAEX_N@Z@4FA 00455304     AverageView.obj
 0003:00000308       ?__LINE__Var@?1??OnAddOverlay@CAverageView@@IAEXXZ@4FA 00455308     AverageView.obj
 0003:0000030c       ?__LINE__Var@?1??UpdateLabels@CAverageView@@UAEXXZ@4FA 0045530c     AverageView.obj
 0003:00000310       ?__LINE__Var@?1??OnModifyData@CAverageView@@IAEXXZ@4FA 00455310     AverageView.obj
 0003:00000370       ?classCCalibration@CCalibration@@2UCRuntimeClass@@A 00455370     Calibration.obj
 0003:00000388       ?classCMkrInfo@CMkrInfo@@2UCRuntimeClass@@A 00455388     Calibration.obj
 0003:000003a0       ?__LINE__Var@?1??Calibrate@CCalibration@@UAEXW4ECalType@@HPAVCMkrInfo@@@Z@4FA 004553a0     Calibration.obj
 0003:00000460       ?__LINE__Var@?1??OnCalfileBrowse@CCalibrationTab@@IAEXXZ@4FA 00455460     CalibrationTab.obj
 0003:00000464       ?__LINE__Var@?1??OnAddCalItem@CCalibrationTab@@IAEXXZ@4FA 00455464     CalibrationTab.obj
 0003:00000468       ?__LINE__Var@?1??OnInitDialog@CCalibrationTab@@MAEHXZ@4FA 00455468     CalibrationTab.obj
 0003:0000046c       ?__LINE__Var@?1??OnCalSave@CCalibrationTab@@IAEXXZ@4FA 0045546c     CalibrationTab.obj
 0003:00000470       ?__LINE__Var@?1??OnCalClear@CCalibrationTab@@IAEXXZ@4FA 00455470     CalibrationTab.obj
 0003:00000474       ?__LINE__Var@?1??OnCalApply@CCalibrationTab@@UAEXXZ@4FA 00455474     CalibrationTab.obj
 0003:00000478       ?__LINE__Var@?1??OnRclickCallibraryList@CCalibrationTab@@IAEXPAUtagNMHDR@@PAJ@Z@4FA 00455478     CalibrationTab.obj
 0003:0000047c       ?__LINE__Var@?1??OnRightUpdate@CCalibrationTab@@IAEXXZ@4FA 0045547c     CalibrationTab.obj
 0003:000004dc       ?_eventsinkEntryCount@CCalibrationView@@0IA 004554dc     CalibrationView.obj
 0003:000004e0       ?__LINE__Var@?1???0CCalibrationView@@QAE@PAVCWnd@@PAVCListCtrl@@PAVCCalibration@@@Z@4FA 004554e0     CalibrationView.obj
 0003:000004e4       ?__LINE__Var@?1??GetCurveData@CCalibrationView@@QAEXPAUtagVARIANT@@0@Z@4FA 004554e4     CalibrationView.obj
 0003:00000544       ?__LINE__Var@?1??OnInitDialog@CCompAdvanced@@MAEHXZ@4FA 00455544     CompAdvanced.obj
 0003:00000548       ?__LINE__Var@?1??OnOK@CCompAdvanced@@MAEXXZ@4FA 00455548     CompAdvanced.obj
 0003:000005f8       ?__LINE__Var@?1??InitInstance@CEclipseApp@@UAEHXZ@4FA 004555f8     Eclipse.obj
 0003:000005fc       ?__LINE__Var@?1??SetMode@CEclipseApp@@UAEXH@Z@4FA 004555fc     Eclipse.obj
 0003:00000600       ?__LINE__Var@?1??GetVersion@CEclipseApp@@UAE?AVCString@@XZ@4FA 00455600     Eclipse.obj
 0003:00000604       ?__LINE__Var@?1??OnInitDialog@CAboutDlg@@MAEHXZ@4FA 00455604     Eclipse.obj
 0003:00000714       ?__LINE__Var@?1???0CGraphProperties@@QAE@PAVCWnd@@PAVCGSX2@@_N@Z@4FA 00455714     GraphProperties.obj
 0003:00000718       ?__LINE__Var@?1??OnInitDialog@CGraphProperties@@MAEHXZ@4FA 00455718     GraphProperties.obj
 0003:0000071c       ?__LINE__Var@?1??OnSymbols@CGraphProperties@@IAEXXZ@4FA 0045571c     GraphProperties.obj
 0003:00000720       ?__LINE__Var@?1??OnSelchangeSymbolsColor@CGraphProperties@@IAEXXZ@4FA 00455720     GraphProperties.obj
 0003:00000724       ?__LINE__Var@?1??OnSelchangeSymbolsType@CGraphProperties@@IAEXXZ@4FA 00455724     GraphProperties.obj
 0003:00000728       ?__LINE__Var@?1??OnHScroll@CGraphProperties@@IAEXIIPAVCScrollBar@@@Z@4FA 00455728     GraphProperties.obj
 0003:0000072c       ?__LINE__Var@?1??OnLines@CGraphProperties@@IAEXXZ@4FA 0045572c     GraphProperties.obj
 0003:00000730       ?__LINE__Var@?1??OnSelchangeLinesColor@CGraphProperties@@IAEXXZ@4FA 00455730     GraphProperties.obj
 0003:00000734       ?__LINE__Var@?1??OnSelchangeLinesWidth@CGraphProperties@@IAEXXZ@4FA 00455734     GraphProperties.obj
 0003:00000738       ?__LINE__Var@?1??OnGrid@CGraphProperties@@IAEXXZ@4FA 00455738     GraphProperties.obj
 0003:0000073c       ?__LINE__Var@?1??OnSelchangeGridColor@CGraphProperties@@IAEXXZ@4FA 0045573c     GraphProperties.obj
 0003:00000740       ?__LINE__Var@?1??OnSelchangeAxisColor@CGraphProperties@@IAEXXZ@4FA 00455740     GraphProperties.obj
 0003:00000744       ?__LINE__Var@?1??OnAxisLog@CGraphProperties@@IAEXXZ@4FA 00455744     GraphProperties.obj
 0003:00000748       ?__LINE__Var@?1??OnUpdateAxisXtext@CGraphProperties@@IAEXXZ@4FA 00455748     GraphProperties.obj
 0003:0000074c       ?__LINE__Var@?1??OnUpdateAxisYtext@CGraphProperties@@IAEXXZ@4FA 0045574c     GraphProperties.obj
 0003:00000750       ?__LINE__Var@?1??OnSelchangeBkgColor@CGraphProperties@@IAEXXZ@4FA 00455750     GraphProperties.obj
 0003:00000918       ?__LINE__Var@?1??Create@CInfoBar@@QAEHPAVCWnd@@II@Z@4FA 00455918     InfoBar.obj
 0003:00000974       ?__LINE__Var@?1??OnInitDialog@CInfoBarDlg@@MAEHXZ@4FA 00455974     InfoBarDlg.obj
 0003:00000978       ?__LINE__Var@?1??OnInfoBrowse@CInfoBarDlg@@IAEXXZ@4FA 00455978     InfoBarDlg.obj
 0003:0000097c       ?__LINE__Var@?1??BrowseDestProc@CInfoBarDlg@@SGHPAUHWND__@@IJJ@Z@4FA@e686554d 0045597c     InfoBarDlg.obj
 0003:000009dc       ?__LINE__Var@?1??Create@CInstStatusBar@@QAEHPAVCWnd@@II@Z@4FA 004559dc     InstStatusBar.obj
 0003:00000b3c       ?__LINE__Var@?1??OnCreate@CMainFrame@@IAEHPAUtagCREATESTRUCTA@@@Z@4FA 00455b3c     MainFrm.obj
 0003:00000b40       ?__LINE__Var@?1??SetAverageFromIndex@CMainFrame@@UAEXH@Z@4FA 00455b40     MainFrm.obj
 0003:00000b44       ?__LINE__Var@?1??StartTrendAcquisition@CMainFrame@@UAEXXZ@4FA 00455b44     MainFrm.obj
 0003:00000b48       ?__LINE__Var@?1??StopTrendAcquisition@CMainFrame@@UAEXXZ@4FA 00455b48     MainFrm.obj
 0003:00000b4c       ?__LINE__Var@?1??StartAverageAcquisition@CMainFrame@@UAEXXZ@4FA 00455b4c     MainFrm.obj
 0003:00000b50       ?__LINE__Var@?1??OnFileOpen@CMainFrame@@IAEXXZ@4FA 00455b50     MainFrm.obj
 0003:00000b54       ?__LINE__Var@?1??OnFileSave@CMainFrame@@IAEXXZ@4FA 00455b54     MainFrm.obj
 0003:00000b58       ?__LINE__Var@?1??OnInitMenuPopup@CMainFrame@@IAEXPAVCMenu@@IH@Z@4FA 00455b58     MainFrm.obj
 0003:00000b5c       ?__LINE__Var@?1??GetAcqTab@CMainFrame@@QAEPAVCAcquisitionTab@@XZ@4FA 00455b5c     MainFrm.obj
 0003:00000b60       ?__LINE__Var@?1??GetInfo@CMainFrame@@QAEPAVCInfoBarDlg@@XZ@4FA 00455b60     MainFrm.obj
 0003:00000b64       ?__LINE__Var@?1??GetAnalysisTab@CMainFrame@@QAEPAVCAnalysisTab@@XZ@4FA 00455b64     MainFrm.obj
 0003:00000b68       ?__LINE__Var@?1??GetCalibrationTab@CMainFrame@@QAEPAVCCalibrationTab@@XZ@4FA 00455b68     MainFrm.obj
 0003:00000b6c       ?__LINE__Var@?1??OnClose@CMainFrame@@IAEXXZ@4FA 00455b6c     MainFrm.obj
 0003:00000b70       ?__LINE__Var@?1??OnUpdateFileSave@CMainFrame@@IAEXPAVCCmdUI@@@Z@4FA 00455b70     MainFrm.obj
 0003:00000b74       ?__LINE__Var@?1??OnFileSaveas@CMainFrame@@IAEXXZ@4FA 00455b74     MainFrm.obj
 0003:00000bd0       ?__LINE__Var@?1??OnInitDialog@CModifyData@@MAEHXZ@4FA 00455bd0     ModifyData.obj
 0003:00000bd4       ?__LINE__Var@?1??OnFileBrowse@CModifyData@@IAEXXZ@4FA 00455bd4     ModifyData.obj
 0003:00000bd8       ?__LINE__Var@?1??OnOK@CModifyData@@MAEXXZ@4FA 00455bd8     ModifyData.obj
 0003:00000bdc       ?__LINE__Var@?1??UpdateImages@CModifyData@@UAEXXZ@4FA 00455bdc     ModifyData.obj
 0003:00000be0       ?__LINE__Var@?1??OnApplyOperator@CModifyData@@IAEXXZ@4FA 00455be0     ModifyData.obj
 0003:00000be4       ?__LINE__Var@?1??OnFileOperator@CModifyData@@IAEXXZ@4FA 00455be4     ModifyData.obj
 0003:00000c44       ?__LINE__Var@?1???0COverlayProps@@QAE@PAVCWnd@@PAVCGSX2@@@Z@4FA 00455c44     OverlayProps.obj
 0003:00000c48       ?__LINE__Var@?1??OnLines@COverlayProps@@IAEXXZ@4FA 00455c48     OverlayProps.obj
 0003:00000c4c       ?__LINE__Var@?1??OnSymbols@COverlayProps@@IAEXXZ@4FA 00455c4c     OverlayProps.obj
 0003:00000c50       ?__LINE__Var@?1??OnSelchangeLinesColor@COverlayProps@@IAEXXZ@4FA 00455c50     OverlayProps.obj
 0003:00000c54       ?__LINE__Var@?1??OnSelchangeLinesWidth@COverlayProps@@IAEXXZ@4FA 00455c54     OverlayProps.obj
 0003:00000c58       ?__LINE__Var@?1??OnSelchangeSymbolsColor@COverlayProps@@IAEXXZ@4FA 00455c58     OverlayProps.obj
 0003:00000c5c       ?__LINE__Var@?1??OnSelchangeSymbolsType@COverlayProps@@IAEXXZ@4FA 00455c5c     OverlayProps.obj
 0003:00000c60       ?__LINE__Var@?1??OnHScroll@COverlayProps@@IAEXIIPAVCScrollBar@@@Z@4FA 00455c60     OverlayProps.obj
 0003:00000cc0       ?__LINE__Var@?1??UpdateFromInst@CPropGeneralPage@@UAEXXZ@4FA 00455cc0     PropGeneralPage.obj
 0003:00000cc4       ?__LINE__Var@?1??OnInitDialog@CPropGeneralPage@@MAEHXZ@4FA 00455cc4     PropGeneralPage.obj
 0003:00000cc8       ?__LINE__Var@?1??OnApply@CPropGeneralPage@@UAEHXZ@4FA 00455cc8     PropGeneralPage.obj
 0003:00000ccc       ?__LINE__Var@?1??OnFileBrowse@CPropGeneralPage@@IAEXXZ@4FA 00455ccc     PropGeneralPage.obj
 0003:00000cd0       ?__LINE__Var@?1??UpdateImages@CPropGeneralPage@@UAEXXZ@4FA 00455cd0     PropGeneralPage.obj
 0003:00000cd4       ?__LINE__Var@?1??OnApplyOperator@CPropGeneralPage@@IAEXXZ@4FA 00455cd4     PropGeneralPage.obj
 0003:00000cd8       ?__LINE__Var@?1??OnFileOperator@CPropGeneralPage@@IAEXXZ@4FA 00455cd8     PropGeneralPage.obj
 0003:00000d6c       ?__LINE__Var@?1??UpdateFromInst@CPropProtocol1Page@@UAEXXZ@4FA 00455d6c     PropProtocol1Page.obj
 0003:00000d70       ?__LINE__Var@?1??OnInitDialog@CPropProtocol1Page@@MAEHXZ@4FA 00455d70     PropProtocol1Page.obj
 0003:00000d74       ?__LINE__Var@?1??OnOK@CPropProtocol1Page@@UAEXXZ@4FA 00455d74     PropProtocol1Page.obj
 0003:00000d78       ?__LINE__Var@?1??OnCalBrowse@CPropProtocol1Page@@IAEXXZ@4FA 00455d78     PropProtocol1Page.obj
 0003:00000d7c       ?__LINE__Var@?1??OnChangeCalPath@CPropProtocol1Page@@IAEXXZ@4FA 00455d7c     PropProtocol1Page.obj
 0003:00000e10       ?__LINE__Var@?1??UpdateFromInst@CPropProtocol2Page@@UAEXXZ@4FA 00455e10     PropProtocol2Page.obj
 0003:00000e14       ?__LINE__Var@?1??OnInitDialog@CPropProtocol2Page@@MAEHXZ@4FA 00455e14     PropProtocol2Page.obj
 0003:00000e18       ?__LINE__Var@?1??OnOK@CPropProtocol2Page@@UAEXXZ@4FA 00455e18     PropProtocol2Page.obj
 0003:00000e1c       ?__LINE__Var@?1??OnCalBrowse@CPropProtocol2Page@@IAEXXZ@4FA 00455e1c     PropProtocol2Page.obj
 0003:00000e20       ?__LINE__Var@?1??OnChangeCalPath@CPropProtocol2Page@@IAEXXZ@4FA 00455e20     PropProtocol2Page.obj
 0003:00000eb4       ?__LINE__Var@?1??UpdateFromInst@CPropProtocol3Page@@UAEXXZ@4FA 00455eb4     PropProtocol3Page.obj
 0003:00000eb8       ?__LINE__Var@?1??OnInitDialog@CPropProtocol3Page@@MAEHXZ@4FA 00455eb8     PropProtocol3Page.obj
 0003:00000ebc       ?__LINE__Var@?1??OnOK@CPropProtocol3Page@@UAEXXZ@4FA 00455ebc     PropProtocol3Page.obj
 0003:00000ec0       ?__LINE__Var@?1??OnCalBrowse@CPropProtocol3Page@@IAEXXZ@4FA 00455ec0     PropProtocol3Page.obj
 0003:00000ec4       ?__LINE__Var@?1??OnChangeCalPath@CPropProtocol3Page@@IAEXXZ@4FA 00455ec4     PropProtocol3Page.obj
 0003:00000f58       ?__LINE__Var@?1??UpdateFromInst@CPropProtocol4Page@@UAEXXZ@4FA 00455f58     PropProtocol4Page.obj
 0003:00000f5c       ?__LINE__Var@?1??OnInitDialog@CPropProtocol4Page@@MAEHXZ@4FA 00455f5c     PropProtocol4Page.obj
 0003:00000f60       ?__LINE__Var@?1??OnOK@CPropProtocol4Page@@UAEXXZ@4FA 00455f60     PropProtocol4Page.obj
 0003:00000f64       ?__LINE__Var@?1??OnCalBrowse@CPropProtocol4Page@@IAEXXZ@4FA 00455f64     PropProtocol4Page.obj
 0003:00000f68       ?__LINE__Var@?1??OnChangeCalPath@CPropProtocol4Page@@IAEXXZ@4FA 00455f68     PropProtocol4Page.obj
 0003:00000ffc       ?__LINE__Var@?1??UpdateFromInst@CPropProtocol5Page@@UAEXXZ@4FA 00455ffc     PropProtocol5Page.obj
 0003:00001000       ?__LINE__Var@?1??OnInitDialog@CPropProtocol5Page@@MAEHXZ@4FA 00456000     PropProtocol5Page.obj
 0003:00001004       ?__LINE__Var@?1??OnOK@CPropProtocol5Page@@UAEXXZ@4FA 00456004     PropProtocol5Page.obj
 0003:00001008       ?__LINE__Var@?1??OnCalBrowse@CPropProtocol5Page@@IAEXXZ@4FA 00456008     PropProtocol5Page.obj
 0003:0000100c       ?__LINE__Var@?1??OnChangeCalPath@CPropProtocol5Page@@IAEXXZ@4FA 0045600c     PropProtocol5Page.obj
 0003:000010a0       ?__LINE__Var@?1??UpdateFromInst@CPropProtocol6Page@@UAEXXZ@4FA 004560a0     PropProtocol6Page.obj
 0003:000010a4       ?__LINE__Var@?1??OnInitDialog@CPropProtocol6Page@@MAEHXZ@4FA 004560a4     PropProtocol6Page.obj
 0003:000010a8       ?__LINE__Var@?1??OnOK@CPropProtocol6Page@@UAEXXZ@4FA 004560a8     PropProtocol6Page.obj
 0003:000010ac       ?__LINE__Var@?1??OnCalBrowse@CPropProtocol6Page@@IAEXXZ@4FA 004560ac     PropProtocol6Page.obj
 0003:000010b0       ?__LINE__Var@?1??OnChangeCalPath@CPropProtocol6Page@@IAEXXZ@4FA 004560b0     PropProtocol6Page.obj
 0003:00001144       ?__LINE__Var@?1??UpdateFromInst@CPropProtocol7Page@@UAEXXZ@4FA 00456144     PropProtocol7Page.obj
 0003:00001148       ?__LINE__Var@?1??OnInitDialog@CPropProtocol7Page@@MAEHXZ@4FA 00456148     PropProtocol7Page.obj
 0003:0000114c       ?__LINE__Var@?1??OnOK@CPropProtocol7Page@@UAEXXZ@4FA 0045614c     PropProtocol7Page.obj
 0003:00001150       ?__LINE__Var@?1??OnCalBrowse@CPropProtocol7Page@@IAEXXZ@4FA 00456150     PropProtocol7Page.obj
 0003:00001154       ?__LINE__Var@?1??OnChangeCalPath@CPropProtocol7Page@@IAEXXZ@4FA 00456154     PropProtocol7Page.obj
 0003:000011e8       ?__LINE__Var@?1??UpdateFromInst@CPropProtocol8Page@@UAEXXZ@4FA 004561e8     PropProtocol8Page.obj
 0003:000011ec       ?__LINE__Var@?1??OnInitDialog@CPropProtocol8Page@@MAEHXZ@4FA 004561ec     PropProtocol8Page.obj
 0003:000011f0       ?__LINE__Var@?1??OnOK@CPropProtocol8Page@@UAEXXZ@4FA 004561f0     PropProtocol8Page.obj
 0003:000011f4       ?__LINE__Var@?1??OnCalBrowse@CPropProtocol8Page@@IAEXXZ@4FA 004561f4     PropProtocol8Page.obj
 0003:000011f8       ?__LINE__Var@?1??OnChangeCalPath@CPropProtocol8Page@@IAEXXZ@4FA 004561f8     PropProtocol8Page.obj
 0003:00001254       ?__LINE__Var@?1??OnInitDialog@CPropSheet@@UAEHXZ@4FA 00456254     PropSheet.obj
 0003:000012b8       ?__LINE__Var@?1??OnInitDialog@CProtocolAdvanced@@MAEHXZ@4FA 004562b8     ProtocolAdvanced.obj
 0003:000012bc       ?__LINE__Var@?1??OnOK@CProtocolAdvanced@@MAEXXZ@4FA 004562bc     ProtocolAdvanced.obj
 0003:000013a0       ?__LINE__Var@?1??OnInitDialog@CSaveAs@@MAEHXZ@4FA 004563a0     SaveAs.obj
 0003:000013a4       ?__LINE__Var@?1??OnInitDone@CSaveAs@@UAEXXZ@4FA 004563a4     SaveAs.obj
 0003:000013a8       ?__LINE__Var@?1??OnSaveasBrowse@CSaveAs@@IAEXXZ@4FA 004563a8     SaveAs.obj
 0003:0000140c       ?__LINE__Var@?1??OnInitDialog@CSelectedProperties@@MAEHXZ@4FA 0045640c     SelectedProperties.obj
 0003:00001410       ?__LINE__Var@?1??OnCopy@CSelectedProperties@@IAEXXZ@4FA 00456410     SelectedProperties.obj
 0003:00001470       ?classCSettings@CSettings@@2UCRuntimeClass@@A 00456470     Settings.obj
 0003:00001488       ?classCProtocolSettings@CProtocolSettings@@2UCRuntimeClass@@A 00456488     Settings.obj
 0003:000014a0       ?__LINE__Var@?1??LoadSettingsFromInstrument@CSettings@@UAEXXZ@4FA 004564a0     Settings.obj
 0003:000014f8       ?_eventsinkEntryCount@CShowFFT@@0IA 004564f8     ShowFFT.obj
 0003:00001504       ?__LINE__Var@?1??Transfer2DtoFFT@CShowFFT@@UAEXXZ@4FA 00456504     ShowFFT.obj
 0003:0000155c       ?__LINE__Var@?1???1CSplashWnd@@UAE@XZ@4FA 0045655c     Splash.obj
 0003:00001560       ?__LINE__Var@?1??ShowSplashScreen@CSplashWnd@@SAXPAVCWnd@@@Z@4FA@05eb8a16 00456560     Splash.obj
 0003:000015bc       ?__LINE__Var@?1??OnInitDialog@CTrendSetup@@MAEHXZ@4FA 004565bc     TrendSetup.obj
 0003:000015c0       ?__LINE__Var@?1??LoadCurrentSettings@CTrendSetup@@UAEXXZ@4FA 004565c0     TrendSetup.obj
 0003:000015c4       ?__LINE__Var@?1??Apply@CTrendSetup@@UAEXXZ@4FA 004565c4     TrendSetup.obj
 0003:000015c8       ?__LINE__Var@?1??OnUpdate@CTrendSetup@@IAEXXZ@4FA 004565c8     TrendSetup.obj
 0003:000015cc       ?__LINE__Var@?1??OnUpdate2@CTrendSetup@@IAEXXZ@4FA 004565cc     TrendSetup.obj
 0003:000015d0       ?__LINE__Var@?1??OnUpdate3@CTrendSetup@@IAEXXZ@4FA 004565d0     TrendSetup.obj
 0003:000015d4       ?__LINE__Var@?1??OnUpdate4@CTrendSetup@@IAEXXZ@4FA 004565d4     TrendSetup.obj
 0003:000015d8       ?__LINE__Var@?1??OnSetRegion@CTrendSetup@@IAEXXZ@4FA 004565d8     TrendSetup.obj
 0003:000015dc       ?__LINE__Var@?1??OnSetRegion2@CTrendSetup@@IAEXXZ@4FA 004565dc     TrendSetup.obj
 0003:000015e0       ?__LINE__Var@?1??OnSetRegion3@CTrendSetup@@IAEXXZ@4FA 004565e0     TrendSetup.obj
 0003:000015e4       ?__LINE__Var@?1??OnSetRegion4@CTrendSetup@@IAEXXZ@4FA 004565e4     TrendSetup.obj
 0003:00001640       ?_eventsinkEntryCount@CTrendView@@0IA 00456640     TrendView.obj
 0003:00001644       ?__LINE__Var@?1??CreateTrendGraph@CTrendView@@UAE_NXZ@4FA 00456644     TrendView.obj
 0003:00001648       ?__LINE__Var@?1??StartTrendAcquisition@CTrendView@@UAEXVCString@@@Z@4FA 00456648     TrendView.obj
 0003:0000164c       ?__LINE__Var@?1??StopTrendAcquisition@CTrendView@@UAEXXZ@4FA 0045664c     TrendView.obj
 0003:00001650       ?__LINE__Var@?1??LoadMeasurementDLLs@CTrendView@@UAEXXZ@4FA 00456650     TrendView.obj
 0003:00001654       ?__LINE__Var@?1??OnTimer@CTrendView@@IAEXI@Z@4FA 00456654     TrendView.obj
 0003:00001658       ?__LINE__Var@?1??ReCalculateTrend@CTrendView@@UAEXXZ@4FA 00456658     TrendView.obj
 0003:0000165c       ?__LINE__Var@?1??CreateTrendData@CTrendView@@UAEXXZ@4FA 0045665c     TrendView.obj
 0003:00001660       ?__LINE__Var@?1??DisplayHoverWindow@CTrendView@@UAEXXZ@4FA 00456660     TrendView.obj
 0003:00001664       ?__LINE__Var@?1??SaveTrendFile@CTrendView@@UAE_NVCString@@_N@Z@4FA 00456664     TrendView.obj
 0003:00001668       ?__LINE__Var@?1??RetrieveTrendFile@CTrendView@@UAE_NVCString@@@Z@4FA 00456668     TrendView.obj
 0003:0000166c       ?__LINE__Var@?1??OnGSXMouseDown@CTrendView@@IAEXFFJJ@Z@4FA 0045666c     TrendView.obj
 0003:00001670       ?__LINE__Var@?1??OnGSXMouseUp@CTrendView@@IAEXFFJJ@Z@4FA 00456670     TrendView.obj
 0003:00001674       ?__LINE__Var@?1??OnGSXMouseMove@CTrendView@@IAEXFFJJ@Z@4FA 00456674     TrendView.obj
 0003:00001678       ?__LINE__Var@?1??OnGSXClick@CTrendView@@IAEXXZ@4FA 00456678     TrendView.obj
 0003:0000167c       ?__LINE__Var@?1??OnRightSetMarkerTool@CTrendView@@IAEXXZ@4FA 0045667c     TrendView.obj
 0003:00001680       ?__LINE__Var@?1??OnRightSetZoomTool@CTrendView@@IAEXXZ@4FA 00456680     TrendView.obj
 0003:00001684       ?__LINE__Var@?1??GraphSettings@CTrendView@@UAEX_N@Z@4FA 00456684     TrendView.obj
 0003:00001688       ?__LINE__Var@?1??OnRightSetTrack1@CTrendView@@IAEXXZ@4FA 00456688     TrendView.obj
 0003:0000168c       ?__LINE__Var@?1??OnRightSetTrack2@CTrendView@@IAEXXZ@4FA 0045668c     TrendView.obj
 0003:00001690       ?__LINE__Var@?1??OnRightSetTrack3@CTrendView@@IAEXXZ@4FA 00456690     TrendView.obj
 0003:00001694       ?__LINE__Var@?1??OnRightSetTrack4@CTrendView@@IAEXXZ@4FA 00456694     TrendView.obj
 0003:00001698       ?__LINE__Var@?1??OnRightSum@CTrendView@@IAEXXZ@4FA 00456698     TrendView.obj
 0003:0000169c       ?__LINE__Var@?1??Calculate@CParzenWindow@@UAE_NXZ@4FA 0045669c     WindowData.obj
 0003:000016a0       ?__LINE__Var@?1??Calculate@CHanningWindow@@UAE_NXZ@4FA 004566a0     WindowData.obj
 0003:000016a8       ??_R0?AVCObject@@@8        004566a8     UtilLib:StretchedBitmapStatic.obj
 0003:000016c0       ??_R0?AVCCmdTarget@@@8     004566c0     UtilLib:StretchedBitmapStatic.obj
 0003:000016e0       ??_R0?AVCWnd@@@8           004566e0     UtilLib:StretchedBitmapStatic.obj
 0003:000016f8       ??_R0?AVCStatic@@@8        004566f8     UtilLib:StretchedBitmapStatic.obj
 0003:00001710       ??_R0?AVTStretchedBitmapStatic@@@8 00456710     UtilLib:StretchedBitmapStatic.obj
 0003:00001738       ??_R0?AVCBitmap@@@8        00456738     UtilLib:StretchedBitmapStatic.obj
 0003:00001750       ??_R0?AVCGdiObject@@@8     00456750     UtilLib:StretchedBitmapStatic.obj
 0003:00001770       ??_R0?AVTAutoControlBase@@@8 00456770     UtilLib:OhmEditBox.obj
 0003:00001790       ??_R0?AVTAutoListBox@@@8   00456790     UtilLib:OhmEditBox.obj
 0003:000017b0       ??_R0?AVTAutoUnitsListBox@@@8 004567b0     UtilLib:OhmEditBox.obj
 0003:000017d0       ??_R0?AVTOhmUnitsListBox@@@8 004567d0     UtilLib:OhmEditBox.obj
 0003:00001880       ??_R0?AVTBaseComplexArray@@@8 00456880     UtilLib:ComplexArray.obj
 0003:000018a0       ??_R0?AVTUnitVectorTable@@@8 004568a0     UtilLib:ComplexArray.obj
 0003:000018c0       ??_R0?AVTComplexArray@@@8  004568c0     UtilLib:ComplexArray.obj
 0003:000019b0       ??_R0?AUTBaseEnabler@@@8   004569b0     UtilLib:MyControls.obj
 0003:000019d0       ??_R0?AUTDftEnabler@TAutoControlBase@@@8 004569d0     UtilLib:MyControls.obj
 0003:00001a00       ??_R0?AUTEnabler@@@8       00456a00     UtilLib:MyControls.obj
 0003:00001a18       ??_R0?AVTAutoRadioButton@@@8 00456a18     UtilLib:MyControls.obj
 0003:00001a38       ??_R0?AVTAutoRadioButtonWithBitmap@@@8 00456a38     UtilLib:MyControls.obj
 0003:00001a68       ??_R0?AVTAutoCheckBox@@@8  00456a68     UtilLib:MyControls.obj
 0003:00001a88       ??_R0?AVTAutoboolCheckBox@@@8 00456a88     UtilLib:MyControls.obj
 0003:00001aa8       ??_R0?AVTAutoBOOLCheckBox@@@8 00456aa8     UtilLib:MyControls.obj
 0003:00001ac8       ??_R0?AUTDftEnabler@TAutoEditBox@@@8 00456ac8     UtilLib:MyControls.obj
 0003:00001af0       ??_R0?AVTAutoEditBox@@@8   00456af0     UtilLib:MyControls.obj
 0003:00001b10       ??_R0?AU?$TEditBoxTextTranslatorTmplt@VCString@@@@@8 00456b10     UtilLib:MyControls.obj
 0003:00001b48       ??_R0?AUTDftTranslator@TAutoMemoEditBox@@@8 00456b48     UtilLib:MyControls.obj
 0003:00001b78       ??_R0?AU?$TEditBoxTextTranslatorTmplt@N@@@8 00456b78     UtilLib:MyControls.obj
 0003:00001ba8       ??_R0?AUTDftTranslator@TAutoDoubleEditBox@@@8 00456ba8     UtilLib:MyControls.obj
 0003:00001bd8       ??_R0?AU?$TEditBoxTextTranslatorTmplt@K@@@8 00456bd8     UtilLib:MyControls.obj
 0003:00001c08       ??_R0?AUTDftTranslator@TAutoDWORDEditBox@@@8 00456c08     UtilLib:MyControls.obj
 0003:00001c38       ??_R0?AVTAutoIntListBox@@@8 00456c38     UtilLib:MyControls.obj
 0003:00001c58       ??_R0?AVTBitmapButton@@@8  00456c58     UtilLib:MyControls.obj
 0003:00001c78       ??_R0?AVTAutoPopoutBitmapSelector@@@8 00456c78     UtilLib:MyControls.obj
 0003:00001ca0       ??_R0?AVT3DBitmapStatic@@@8 00456ca0     UtilLib:MyControls.obj
 0003:00001cc0       ??_R0?AVTStaticForAutoRadioButton@@@8 00456cc0     UtilLib:MyControls.obj
 0003:00001ce8       ??_R0?AVTFancyStatic@@@8   00456ce8     UtilLib:MyControls.obj
 0003:00001d08       ??_R0?AVTMyDialog@@@8      00456d08     UtilLib:MyControls.obj
 0003:00001d20       ??_R0?AVTMyDialogExtraStuff@@@8 00456d20     UtilLib:MyControls.obj
 0003:00001d48       ??_R0?AVCDialog@@@8        00456d48     UtilLib:MyControls.obj
 0003:00001d60       ??_R0?AVCPropertyPage@@@8  00456d60     UtilLib:MyControls.obj
 0003:00001d80       ??_R0?AVTMyPropertyPage@@@8 00456d80     UtilLib:MyControls.obj
 0003:00001da0       ??_R0?AVTAutoPopoutBitmapSelectorWindow@@@8 00456da0     UtilLib:MyControls.obj
 0003:00001de8       ??_R0?AVCPtrList@@@8       00456de8     UtilLib:Notifier.obj
 0003:00001e00       ??_R0?AV?$_CTypedPtrList@VCPtrList@@PAVTNotifierListNode@@@@@8 00456e00     UtilLib:Notifier.obj
 0003:00001e48       ??_R0?AV?$CTypedPtrList@VCPtrList@@PAVTNotifierListNode@@@@@8 00456e48     UtilLib:Notifier.obj
 0003:00001e88       ??_R0?AVTNotifier@@@8      00456e88     UtilLib:Notifier.obj
 0003:00001ea0       ?GUID_ATLVer30@ATL@@3U_GUID@@A 00456ea0     mfcs42d:stdafx.obj
 0003:00001eb0       ??_R0?AVtype_info@@@8      00456eb0     msvcrtd:ti_inst.obj
 0003:00001ed0       ___defaultmatherr          00456ed0     msvcrtd:merr.obj
 0003:00001ee8       ?iTickStart@@3HA           00456ee8     AverageView.obj
 0003:00001f18       ?_init_CMkrInfo@@3UAFX_CLASSINIT@@A 00456f18     Calibration.obj
 0003:00001f19       ?_init_CCalibration@@3UAFX_CLASSINIT@@A 00456f19     Calibration.obj
 0003:00001f48       ?theApp@@3VCEclipseApp@@A  00456f48     Eclipse.obj
 0003:00002058       ?_init_CProtocolSettings@@3UAFX_CLASSINIT@@A 00457058     Settings.obj
 0003:00002059       ?_init_CSettings@@3UAFX_CLASSINIT@@A 00457059     Settings.obj
 0003:00002088       ?c_pSplashWnd@CSplashWnd@@1PAV1@A 00457088     Splash.obj
 0003:0000208c       ?c_bShowSplashWnd@CSplashWnd@@1HA 0045708c     Splash.obj
 0003:000020d0       ?hbrsh3DLight@TShadowResources@@2PAUHBRUSH__@@A 004570d0     UtilLib:MyControls.obj
 0003:000020e8       ?hbrsh3DDkShadow@TShadowResources@@2PAUHBRUSH__@@A 004570e8     UtilLib:MyControls.obj
 0003:000020ec       ?hbrshTxt@TShadowResources@@2PAUHBRUSH__@@A 004570ec     UtilLib:MyControls.obj
 0003:000020f0       ?dftTrans@TAutoDoubleEditBox@@2UTDftTranslator@1@B 004570f0     UtilLib:MyControls.obj
 0003:000020f4       ?hbrshBkg@TShadowResources@@2PAUHBRUSH__@@A 004570f4     UtilLib:MyControls.obj
 0003:000020fc       ?hbrsh3DShadow@TShadowResources@@2PAUHBRUSH__@@A 004570fc     UtilLib:MyControls.obj
 0003:0000210c       ?dftEnabler@TAutoEditBox@@2UTDftEnabler@1@B 0045710c     UtilLib:MyControls.obj
 0003:00002110       ?hbrsh3DHiLight@TShadowResources@@2PAUHBRUSH__@@A 00457110     UtilLib:MyControls.obj
 0003:00002114       ?dftTrans@TAutoDWORDEditBox@@2UTDftTranslator@1@B 00457114     UtilLib:MyControls.obj
 0003:00002120       ?WM_AUTOCONTROLLOOSINGFOCUS@TAutoControlBase@@2IB 00457120     UtilLib:MyControls.obj
 0003:00002124       ?dftEnabler@TAutoControlBase@@2UTDftEnabler@1@B 00457124     UtilLib:MyControls.obj
 0003:00002130       ?WM_INITUI@@3IA            00457130     UtilLib:MyControls.obj
 0003:00002134       ?WM_DIALOGEVENT@TMyDialogExtraStuff@@0IB 00457134     UtilLib:MyControls.obj
 0003:00002138       ?dftTrans@TAutoMemoEditBox@@2UTDftTranslator@1@B 00457138     UtilLib:MyControls.obj
 0003:00002148       ?bMajorChange@TAutoControlBase@@0_NA 00457148     UtilLib:MyControls.obj
 0003:00002158       ?uWindowGoneMsg@TAutoPopoutBitmapSelector@@0IB 00457158     UtilLib:MyControls.obj
 0003:0000215c       ?iUsage@TShadowResources@@1HA 0045715c     UtilLib:MyControls.obj
 0003:00002160       ?hwndGettingFocus@TAutoControlBase@@1PAUHWND__@@A 00457160     UtilLib:MyControls.obj
 0003:00002174       ?WM_NOTIFIER@TNotifier@@2IB 00457174     UtilLib:Notifier.obj
 0003:00002178       __afxForceEXCLUDE          00457178     mfcs42d:nolib.obj
 0003:0000217c       ?ATL_CREATE_OBJECT@CComApartment@ATL@@2IA 0045717c     mfcs42d:stdafx.obj
 0003:00002180       ?m_libid@CComModule@ATL@@2U_GUID@@A 00457180     mfcs42d:stdafx.obj
 0003:00002190       ?_pModule@ATL@@3PAVCComModule@1@A 00457190     mfcs42d:stdafx.obj
 0003:00002194       __afxForceSTDAFX           00457194     mfcs42d:stdafx.obj
 0003:00002198       __dowildcard               00457198     msvcrtd:wildcard.obj
 0003:0000219c       __newmode                  0045719c     msvcrtd:_newmode.obj
 0003:000021a0       __commode                  004571a0     msvcrtd:xncommod.obj
 0003:000021a4       __fmode                    004571a4     msvcrtd:xtxtmode.obj
 0003:000021a8       ?_afxInitAppState@@3DA     004571a8     mfcs42:appmodul.obj
 0003:000021ac       __adjust_fdiv              004571ac     <common>
 0003:000021b0       ___onexitend               004571b0     <common>
 0003:000021b4       ___onexitbegin             004571b4     <common>
 0004:00000000       __IMPORT_DESCRIPTOR_VERSION 00458000     version:VERSION.dll
 0004:00000014       __IMPORT_DESCRIPTOR_MFC42D 00458014     mfc42d:MFC42D.DLL
 0004:00000028       __IMPORT_DESCRIPTOR_MSVCRTD 00458028     msvcrtd:MSVCRTD.dll
 0004:0000003c       __IMPORT_DESCRIPTOR_KERNEL32 0045803c     kernel32:KERNEL32.dll
 0004:00000050       __IMPORT_DESCRIPTOR_USER32 00458050     user32:USER32.dll
 0004:00000064       __IMPORT_DESCRIPTOR_GDI32  00458064     gdi32:GDI32.dll
 0004:00000078       __IMPORT_DESCRIPTOR_ADVAPI32 00458078     advapi32:ADVAPI32.dll
 0004:0000008c       __IMPORT_DESCRIPTOR_SHELL32 0045808c     shell32:SHELL32.dll
 0004:000000a0       __IMPORT_DESCRIPTOR_MFCO42D 004580a0     mfco42d:MFCO42D.DLL
 0004:000000b4       __IMPORT_DESCRIPTOR_ole32  004580b4     ole32:ole32.dll
 0004:000000c8       __IMPORT_DESCRIPTOR_OLEAUT32 004580c8     oleaut32:OLEAUT32.dll
 0004:000000dc       __IMPORT_DESCRIPTOR_MSVCRT 004580dc     msvcrt:MSVCRT.dll
 0004:000000f0       __NULL_IMPORT_DESCRIPTOR   004580f0     version:VERSION.dll
 0004:00000cd4       __imp__RegCreateKeyExA@36  00458cd4     advapi32:ADVAPI32.dll
 0004:00000cd8       __imp__RegDeleteKeyA@8     00458cd8     advapi32:ADVAPI32.dll
 0004:00000cdc       __imp__RegCloseKey@4       00458cdc     advapi32:ADVAPI32.dll
 0004:00000ce0       \177ADVAPI32_NULL_THUNK_DATA 00458ce0     advapi32:ADVAPI32.dll
 0004:00000ce4       __imp__GetStockObject@4    00458ce4     gdi32:GDI32.dll
 0004:00000ce8       __imp__GetTextExtentPoint32A@16 00458ce8     gdi32:GDI32.dll
 0004:00000cec       __imp__CreateSolidBrush@4  00458cec     gdi32:GDI32.dll
 0004:00000cf0       __imp__GetTextMetricsA@8   00458cf0     gdi32:GDI32.dll
 0004:00000cf4       __imp__GetDeviceCaps@8     00458cf4     gdi32:GDI32.dll
 0004:00000cf8       __imp__CreateFontIndirectA@4 00458cf8     gdi32:GDI32.dll
 0004:00000cfc       __imp__SetBkColor@8        00458cfc     gdi32:GDI32.dll
 0004:00000d00       __imp__SetTextColor@8      00458d00     gdi32:GDI32.dll
 0004:00000d04       __imp__SetTextAlign@8      00458d04     gdi32:GDI32.dll
 0004:00000d08       __imp__MoveToEx@16         00458d08     gdi32:GDI32.dll
 0004:00000d0c       __imp__TextOutA@20         00458d0c     gdi32:GDI32.dll
 0004:00000d10       __imp__BitBlt@36           00458d10     gdi32:GDI32.dll
 0004:00000d14       __imp__DeleteObject@4      00458d14     gdi32:GDI32.dll
 0004:00000d18       __imp__CreateCompatibleDC@4 00458d18     gdi32:GDI32.dll
 0004:00000d1c       __imp__CreateCompatibleBitmap@12 00458d1c     gdi32:GDI32.dll
 0004:00000d20       __imp__GetObjectA@12       00458d20     gdi32:GDI32.dll
 0004:00000d24       __imp__LPtoDP@12           00458d24     gdi32:GDI32.dll
 0004:00000d28       __imp__DeleteDC@4          00458d28     gdi32:GDI32.dll
 0004:00000d2c       __imp__SelectObject@8      00458d2c     gdi32:GDI32.dll
 0004:00000d30       __imp__StretchBlt@44       00458d30     gdi32:GDI32.dll
 0004:00000d34       \177GDI32_NULL_THUNK_DATA  00458d34     gdi32:GDI32.dll
 0004:00000d38       __imp__GetStartupInfoA@4   00458d38     kernel32:KERNEL32.dll
 0004:00000d3c       __imp__GetModuleHandleA@4  00458d3c     kernel32:KERNEL32.dll
 0004:00000d40       __imp__EnterCriticalSection@4 00458d40     kernel32:KERNEL32.dll
 0004:00000d44       __imp__LeaveCriticalSection@4 00458d44     kernel32:KERNEL32.dll
 0004:00000d48       __imp__GetCurrentThreadId@0 00458d48     kernel32:KERNEL32.dll
 0004:00000d4c       __imp__DeleteCriticalSection@4 00458d4c     kernel32:KERNEL32.dll
 0004:00000d50       __imp__InitializeCriticalSection@4 00458d50     kernel32:KERNEL32.dll
 0004:00000d54       __imp__lstrcmpA@8          00458d54     kernel32:KERNEL32.dll
 0004:00000d58       __imp__Sleep@4             00458d58     kernel32:KERNEL32.dll
 0004:00000d5c       __imp__GlobalAlloc@8       00458d5c     kernel32:KERNEL32.dll
 0004:00000d60       __imp__GlobalLock@4        00458d60     kernel32:KERNEL32.dll
 0004:00000d64       __imp__GlobalUnlock@4      00458d64     kernel32:KERNEL32.dll
 0004:00000d68       __imp__MultiByteToWideChar@24 00458d68     kernel32:KERNEL32.dll
 0004:00000d6c       __imp__GetLastError@0      00458d6c     kernel32:KERNEL32.dll
 0004:00000d70       __imp__GetVersionExA@4     00458d70     kernel32:KERNEL32.dll
 0004:00000d74       __imp__GetSystemDirectoryA@8 00458d74     kernel32:KERNEL32.dll
 0004:00000d78       __imp__GetProcAddress@8    00458d78     kernel32:KERNEL32.dll
 0004:00000d7c       __imp__lstrcpyA@8          00458d7c     kernel32:KERNEL32.dll
 0004:00000d80       \177KERNEL32_NULL_THUNK_DATA 00458d80     kernel32:KERNEL32.dll
 0004:00000d84       __imp_?OnCmdMsg@CDialog@@UAEHIHPAXPAUAFX_CMDHANDLERINFO@@@Z 00458d84     mfc42d:MFC42D.DLL
 0004:00000d88       __imp_?Dump@CDialog@@UBEXAAVCDumpContext@@@Z 00458d88     mfc42d:MFC42D.DLL
 0004:00000d8c       __imp_?AssertValid@CDialog@@UBEXXZ 00458d8c     mfc42d:MFC42D.DLL
 0004:00000d90       __imp_?GetRuntimeClass@CDialog@@UBEPAUCRuntimeClass@@XZ 00458d90     mfc42d:MFC42D.DLL
 0004:00000d94       __imp_??1CDialog@@UAE@XZ   00458d94     mfc42d:MFC42D.DLL
 0004:00000d98       __imp_??0CDialog@@QAE@IPAVCWnd@@@Z 00458d98     mfc42d:MFC42D.DLL
 0004:00000d9c       __imp_?SetOccDialogInfo@CWnd@@MAEHPAU_AFX_OCC_DIALOG_INFO@@@Z 00458d9c     mfc42d:MFC42D.DLL
 0004:00000da0       __imp_?CheckAutoCenter@CWnd@@UAEHXZ 00458da0     mfc42d:MFC42D.DLL
 0004:00000da4       __imp_?PreTranslateMessage@CWnd@@UAEHPAUtagMSG@@@Z 00458da4     mfc42d:MFC42D.DLL
 0004:00000da8       __imp_?DestroyWindow@CWnd@@UAEHXZ 00458da8     mfc42d:MFC42D.DLL
 0004:00000dac       __imp_?GetMessageMap@CWnd@@MBEPBUAFX_MSGMAP@@XZ 00458dac     mfc42d:MFC42D.DLL
 0004:00000db0       __imp_?OnCmdMsg@CCmdTarget@@UAEHIHPAXPAUAFX_CMDHANDLERINFO@@@Z 00458db0     mfc42d:MFC42D.DLL
 0004:00000db4       __imp_?Dump@CWnd@@UBEXAAVCDumpContext@@@Z 00458db4     mfc42d:MFC42D.DLL
 0004:00000db8       __imp_?AssertValid@CWnd@@UBEXXZ 00458db8     mfc42d:MFC42D.DLL
 0004:00000dbc       __imp_??0CWnd@@QAE@XZ      00458dbc     mfc42d:MFC42D.DLL
 0004:00000dc0       __imp_??1CWnd@@UAE@XZ      00458dc0     mfc42d:MFC42D.DLL
 0004:00000dc4       __imp_?DDX_Radio@@YGXPAVCDataExchange@@HAAH@Z 00458dc4     mfc42d:MFC42D.DLL
 0004:00000dc8       __imp_?DDX_Control@@YGXPAVCDataExchange@@HAAVCWnd@@@Z 00458dc8     mfc42d:MFC42D.DLL
 0004:00000dcc       __imp_?messageMap@CDialog@@1UAFX_MSGMAP@@B 00458dcc     mfc42d:MFC42D.DLL
 0004:00000dd0       __imp_?AfxAssertFailedLine@@YGHPBDH@Z 00458dd0     mfc42d:MFC42D.DLL
 0004:00000dd4       __imp_?AfxGetMainWnd@@YGPAVCWnd@@XZ 00458dd4     mfc42d:MFC42D.DLL
 0004:00000dd8       __imp_?SetTimer@CWnd@@QAEIIIP6GXPAUHWND__@@IIK@Z@Z 00458dd8     mfc42d:MFC42D.DLL
 0004:00000ddc       __imp_?EnableWindow@CWnd@@QAEHH@Z 00458ddc     mfc42d:MFC42D.DLL
 0004:00000de0       __imp_?GetDlgItem@CWnd@@QBEPAV1@H@Z 00458de0     mfc42d:MFC42D.DLL
 0004:00000de4       __imp_?SetDlgItemTextA@CWnd@@QAEXHPBD@Z 00458de4     mfc42d:MFC42D.DLL
 0004:00000de8       __imp_?KillTimer@CWnd@@QAEHH@Z 00458de8     mfc42d:MFC42D.DLL
 0004:00000dec       __imp_?AfxGetApp@@YGPAVCWinApp@@XZ 00458dec     mfc42d:MFC42D.DLL
 0004:00000df0       __imp_?SetCheck@CButton@@QAEXH@Z 00458df0     mfc42d:MFC42D.DLL
 0004:00000df4       __imp_?OnInitDialog@CDialog@@UAEHXZ 00458df4     mfc42d:MFC42D.DLL
 0004:00000df8       __imp_??1CString@@QAE@XZ   00458df8     mfc42d:MFC42D.DLL
 0004:00000dfc       __imp_?OnTimer@CWnd@@IAEXI@Z 00458dfc     mfc42d:MFC42D.DLL
 0004:00000e00       __imp_?Delete@CException@@QAEXXZ 00458e00     mfc42d:MFC42D.DLL
 0004:00000e04       __imp_?AfxTrace@@YAXPBDZZ  00458e04     mfc42d:MFC42D.DLL
 0004:00000e08       __imp_??BCString@@QBEPBDXZ 00458e08     mfc42d:MFC42D.DLL
 0004:00000e0c       __imp_?Format@CString@@QAAXPBDZZ 00458e0c     mfc42d:MFC42D.DLL
 0004:00000e10       __imp_??0CString@@QAE@XZ   00458e10     mfc42d:MFC42D.DLL
 0004:00000e14       __imp_?UpdateData@CWnd@@QAEHH@Z 00458e14     mfc42d:MFC42D.DLL
 0004:00000e18       __imp_?OnDestroy@CWnd@@IAEXXZ 00458e18     mfc42d:MFC42D.DLL
 0004:00000e1c       __imp_?OnClose@CWnd@@IAEXXZ 00458e1c     mfc42d:MFC42D.DLL
 0004:00000e20       __imp_?GetCheck@CButton@@QBEHXZ 00458e20     mfc42d:MFC42D.DLL
 0004:00000e24       __imp_?OnCancel@CDialog@@MAEXXZ 00458e24     mfc42d:MFC42D.DLL
 0004:00000e28       __imp_??4CString@@QAEABV0@ABV0@@Z 00458e28     mfc42d:MFC42D.DLL
 0004:00000e2c       __imp_?SetFocus@CWnd@@QAEPAV1@XZ 00458e2c     mfc42d:MFC42D.DLL
 0004:00000e30       __imp_?IsEmpty@CString@@QBEHXZ 00458e30     mfc42d:MFC42D.DLL
 0004:00000e34       __imp_?SubclassDlgItem@CWnd@@QAEHIPAV1@@Z 00458e34     mfc42d:MFC42D.DLL
 0004:00000e38       __imp_?GetDlgItemTextA@CWnd@@QBEHHAAVCString@@@Z 00458e38     mfc42d:MFC42D.DLL
 0004:00000e3c       __imp_?OnOK@CDialog@@MAEXXZ 00458e3c     mfc42d:MFC42D.DLL
 0004:00000e40       __imp_??1CFileFind@@UAE@XZ 00458e40     mfc42d:MFC42D.DLL
 0004:00000e44       __imp_?SelectString@CComboBox@@QAEHHPBD@Z 00458e44     mfc42d:MFC42D.DLL
 0004:00000e48       __imp_?Close@CFileFind@@QAEXXZ 00458e48     mfc42d:MFC42D.DLL
 0004:00000e4c       __imp_?SetItemData@CComboBox@@QAEHHK@Z 00458e4c     mfc42d:MFC42D.DLL
 0004:00000e50       __imp_?AfxLoadLibrary@@YGPAUHINSTANCE__@@PBD@Z 00458e50     mfc42d:MFC42D.DLL
 0004:00000e54       __imp_?GetFilePath@CFileFind@@UBE?AVCString@@XZ 00458e54     mfc42d:MFC42D.DLL
 0004:00000e58       __imp_?FindNextFileA@CFileFind@@UAEHXZ 00458e58     mfc42d:MFC42D.DLL
 0004:00000e5c       __imp_?FindFile@CFileFind@@UAEHPBDK@Z 00458e5c     mfc42d:MFC42D.DLL
 0004:00000e60       __imp_?AddString@CComboBox@@QAEHPBD@Z 00458e60     mfc42d:MFC42D.DLL
 0004:00000e64       __imp_??YCString@@QAEABV0@PBD@Z 00458e64     mfc42d:MFC42D.DLL
 0004:00000e68       __imp_?Left@CString@@QBE?AV1@H@Z 00458e68     mfc42d:MFC42D.DLL
 0004:00000e6c       __imp_?GetLength@CString@@QBEHXZ 00458e6c     mfc42d:MFC42D.DLL
 0004:00000e70       __imp_??4CString@@QAEABV0@PBD@Z 00458e70     mfc42d:MFC42D.DLL
 0004:00000e74       __imp_??0CFileFind@@QAE@XZ 00458e74     mfc42d:MFC42D.DLL
 0004:00000e78       __imp_?GetItemData@CComboBox@@QBEKH@Z 00458e78     mfc42d:MFC42D.DLL
 0004:00000e7c       __imp_?GetCurSel@CComboBox@@QBEHXZ 00458e7c     mfc42d:MFC42D.DLL
 0004:00000e80       __imp_?AfxFreeLibrary@@YGHPAUHINSTANCE__@@@Z 00458e80     mfc42d:MFC42D.DLL
 0004:00000e84       __imp_??0CString@@QAE@ABV0@@Z 00458e84     mfc42d:MFC42D.DLL
 0004:00000e88       __imp_?GetLBText@CComboBox@@QBEXHAAVCString@@@Z 00458e88     mfc42d:MFC42D.DLL
 0004:00000e8c       __imp_??0CString@@QAE@PBD@Z 00458e8c     mfc42d:MFC42D.DLL
 0004:00000e90       __imp_?OnShowWindow@CWnd@@IAEXHI@Z 00458e90     mfc42d:MFC42D.DLL
 0004:00000e94       __imp_??1CListBox@@UAE@XZ  00458e94     mfc42d:MFC42D.DLL
 0004:00000e98       __imp_??0CListBox@@QAE@XZ  00458e98     mfc42d:MFC42D.DLL
 0004:00000e9c       __imp_?SetSel@CEdit@@QAEXHHH@Z 00458e9c     mfc42d:MFC42D.DLL
 0004:00000ea0       __imp_?DeleteString@CListBox@@QAEHI@Z 00458ea0     mfc42d:MFC42D.DLL
 0004:00000ea4       __imp_?FindString@CListBox@@QBEHHPBD@Z 00458ea4     mfc42d:MFC42D.DLL
 0004:00000ea8       __imp_?Dir@CListBox@@QAEHIPBD@Z 00458ea8     mfc42d:MFC42D.DLL
 0004:00000eac       __imp_??H@YG?AVCString@@ABV0@PBD@Z 00458eac     mfc42d:MFC42D.DLL
 0004:00000eb0       __imp_?Find@CString@@QBEHPBD@Z 00458eb0     mfc42d:MFC42D.DLL
 0004:00000eb4       __imp_?AfxMessageBox@@YGHPBDII@Z 00458eb4     mfc42d:MFC42D.DLL
 0004:00000eb8       __imp_?MakeUpper@CString@@QAEXXZ 00458eb8     mfc42d:MFC42D.DLL
 0004:00000ebc       __imp_?GetText@CListBox@@QBEXHAAVCString@@@Z 00458ebc     mfc42d:MFC42D.DLL
 0004:00000ec0       __imp_?GetCurSel@CListBox@@QBEHXZ 00458ec0     mfc42d:MFC42D.DLL
 0004:00000ec4       __imp_?OnFilePrintPreview@CView@@IAEXXZ 00458ec4     mfc42d:MFC42D.DLL
 0004:00000ec8       __imp_?OnFilePrint@CView@@IAEXXZ 00458ec8     mfc42d:MFC42D.DLL
 0004:00000ecc       __imp_??3CObject@@SGXPAXPBDH@Z 00458ecc     mfc42d:MFC42D.DLL
 0004:00000ed0       __imp_??2CObject@@SGPAXIPBDH@Z 00458ed0     mfc42d:MFC42D.DLL
 0004:00000ed4       __imp_?classCView@CView@@2UCRuntimeClass@@B 00458ed4     mfc42d:MFC42D.DLL
 0004:00000ed8       __imp_?OnEndPrintPreview@CView@@MAEXPAVCDC@@PAUCPrintInfo@@UtagPOINT@@PAVCPreviewView@@@Z 00458ed8     mfc42d:MFC42D.DLL
 0004:00000edc       __imp_?OnEndPrinting@CView@@MAEXPAVCDC@@PAUCPrintInfo@@@Z 00458edc     mfc42d:MFC42D.DLL
 0004:00000ee0       __imp_?OnBeginPrinting@CView@@MAEXPAVCDC@@PAUCPrintInfo@@@Z 00458ee0     mfc42d:MFC42D.DLL
 0004:00000ee4       __imp_?OnUpdate@CView@@MAEXPAV1@JPAVCObject@@@Z 00458ee4     mfc42d:MFC42D.DLL
 0004:00000ee8       __imp_?OnActivateFrame@CView@@MAEXIPAVCFrameWnd@@@Z 00458ee8     mfc42d:MFC42D.DLL
 0004:00000eec       __imp_?OnActivateView@CView@@MAEXHPAV1@0@Z 00458eec     mfc42d:MFC42D.DLL
 0004:00000ef0       __imp_?OnInitialUpdate@CView@@UAEXXZ 00458ef0     mfc42d:MFC42D.DLL
 0004:00000ef4       __imp_?OnPrepareDC@CView@@UAEXPAVCDC@@PAUCPrintInfo@@@Z 00458ef4     mfc42d:MFC42D.DLL
 0004:00000ef8       __imp_?OnDragScroll@CView@@UAEKKVCPoint@@@Z 00458ef8     mfc42d:MFC42D.DLL
 0004:00000efc       __imp_?OnDropEx@CView@@UAEKPAVCOleDataObject@@KKVCPoint@@@Z 00458efc     mfc42d:MFC42D.DLL
 0004:00000f00       __imp_?OnDrop@CView@@UAEHPAVCOleDataObject@@KVCPoint@@@Z 00458f00     mfc42d:MFC42D.DLL
 0004:00000f04       __imp_?OnDragLeave@CView@@UAEXXZ 00458f04     mfc42d:MFC42D.DLL
 0004:00000f08       __imp_?OnDragOver@CView@@UAEKPAVCOleDataObject@@KVCPoint@@@Z 00458f08     mfc42d:MFC42D.DLL
 0004:00000f0c       __imp_?OnDragEnter@CView@@UAEKPAVCOleDataObject@@KVCPoint@@@Z 00458f0c     mfc42d:MFC42D.DLL
 0004:00000f10       __imp_?OnScrollBy@CView@@UAEHVCSize@@H@Z 00458f10     mfc42d:MFC42D.DLL
 0004:00000f14       __imp_?OnScroll@CView@@UAEHIIH@Z 00458f14     mfc42d:MFC42D.DLL
 0004:00000f18       __imp_?IsSelected@CView@@UBEHPBVCObject@@@Z 00458f18     mfc42d:MFC42D.DLL
 0004:00000f1c       __imp_?PostNcDestroy@CView@@MAEXXZ 00458f1c     mfc42d:MFC42D.DLL
 0004:00000f20       __imp_?GetScrollBarCtrl@CView@@UBEPAVCScrollBar@@H@Z 00458f20     mfc42d:MFC42D.DLL
 0004:00000f24       __imp_?CalcWindowRect@CView@@UAEXPAUtagRECT@@I@Z 00458f24     mfc42d:MFC42D.DLL
 0004:00000f28       __imp_?PreCreateWindow@CView@@MAEHAAUtagCREATESTRUCTA@@@Z 00458f28     mfc42d:MFC42D.DLL
 0004:00000f2c       __imp_?OnCmdMsg@CView@@UAEHIHPAXPAUAFX_CMDHANDLERINFO@@@Z 00458f2c     mfc42d:MFC42D.DLL
 0004:00000f30       __imp_??1CView@@UAE@XZ     00458f30     mfc42d:MFC42D.DLL
 0004:00000f34       __imp_??0CView@@IAE@XZ     00458f34     mfc42d:MFC42D.DLL
 0004:00000f38       __imp_?messageMap@CView@@1UAFX_MSGMAP@@B 00458f38     mfc42d:MFC42D.DLL
 0004:00000f3c       __imp_?eventsinkMap@CCmdTarget@@1UAFX_EVENTSINKMAP@@B 00458f3c     mfc42d:MFC42D.DLL
 0004:00000f40       __imp_?GetDocument@CView@@QBEPAVCDocument@@XZ 00458f40     mfc42d:MFC42D.DLL
 0004:00000f44       __imp_?AssertValid@CView@@UBEXXZ 00458f44     mfc42d:MFC42D.DLL
 0004:00000f48       __imp_?Dump@CView@@UBEXAAVCDumpContext@@@Z 00458f48     mfc42d:MFC42D.DLL
 0004:00000f4c       __imp_??BCWnd@@QBEPAUHWND__@@XZ 00458f4c     mfc42d:MFC42D.DLL
 0004:00000f50       __imp_?SetRectEmpty@CRect@@QAEXXZ 00458f50     mfc42d:MFC42D.DLL
 0004:00000f54       __imp_??0CRect@@QAE@XZ     00458f54     mfc42d:MFC42D.DLL
 0004:00000f58       __imp_?OnSize@CWnd@@IAEXIHH@Z 00458f58     mfc42d:MFC42D.DLL
 0004:00000f5c       __imp_??1CFile@@UAE@XZ     00458f5c     mfc42d:MFC42D.DLL
 0004:00000f60       __imp_??1CFileException@@UAE@XZ 00458f60     mfc42d:MFC42D.DLL
 0004:00000f64       __imp_?EndWaitCursor@CCmdTarget@@QAEXXZ 00458f64     mfc42d:MFC42D.DLL
 0004:00000f68       __imp_?Close@CFile@@UAEXXZ 00458f68     mfc42d:MFC42D.DLL
 0004:00000f6c       __imp_?Read@CFile@@UAEIPAXI@Z 00458f6c     mfc42d:MFC42D.DLL
 0004:00000f70       __imp_?Seek@CFile@@UAEJJI@Z 00458f70     mfc42d:MFC42D.DLL
 0004:00000f74       __imp_?Open@CFile@@UAEHPBDIPAVCFileException@@@Z 00458f74     mfc42d:MFC42D.DLL
 0004:00000f78       __imp_??0CFileException@@QAE@HJPBD@Z 00458f78     mfc42d:MFC42D.DLL
 0004:00000f7c       __imp_??0CFile@@QAE@XZ     00458f7c     mfc42d:MFC42D.DLL
 0004:00000f80       __imp_?ShowWindow@CWnd@@QAEHH@Z 00458f80     mfc42d:MFC42D.DLL
 0004:00000f84       __imp_?MoveWindow@CWnd@@QAEXPBUtagRECT@@H@Z 00458f84     mfc42d:MFC42D.DLL
 0004:00000f88       __imp_??BCRect@@QAEPAUtagRECT@@XZ 00458f88     mfc42d:MFC42D.DLL
 0004:00000f8c       __imp_?Width@CRect@@QBEHXZ 00458f8c     mfc42d:MFC42D.DLL
 0004:00000f90       __imp_?Height@CRect@@QBEHXZ 00458f90     mfc42d:MFC42D.DLL
 0004:00000f94       __imp_?GetSafeHwnd@CWnd@@QBEPAUHWND__@@XZ 00458f94     mfc42d:MFC42D.DLL
 0004:00000f98       __imp_?GetParent@CWnd@@QBEPAV1@XZ 00458f98     mfc42d:MFC42D.DLL
 0004:00000f9c       __imp_?WindowFromPoint@CWnd@@SGPAV1@UtagPOINT@@@Z 00458f9c     mfc42d:MFC42D.DLL
 0004:00000fa0       __imp_?PtInRect@CRect@@QBEHUtagPOINT@@@Z 00458fa0     mfc42d:MFC42D.DLL
 0004:00000fa4       __imp_?GetWindowRect@CWnd@@QBEXPAUtagRECT@@@Z 00458fa4     mfc42d:MFC42D.DLL
 0004:00000fa8       __imp_??0CPoint@@QAE@XZ    00458fa8     mfc42d:MFC42D.DLL
 0004:00000fac       __imp_?BeginWaitCursor@CCmdTarget@@QAEXXZ 00458fac     mfc42d:MFC42D.DLL
 0004:00000fb0       __imp_?Invalidate@CWnd@@QAEXH@Z 00458fb0     mfc42d:MFC42D.DLL
 0004:00000fb4       __imp_??1CArchive@@QAE@XZ  00458fb4     mfc42d:MFC42D.DLL
 0004:00000fb8       __imp_??0CArchive@@QAE@PAVCFile@@IHPAX@Z 00458fb8     mfc42d:MFC42D.DLL
 0004:00000fbc       __imp_??0CFile@@QAE@PBDI@Z 00458fbc     mfc42d:MFC42D.DLL
 0004:00000fc0       __imp_??1CCmdTarget@@UAE@XZ 00458fc0     mfc42d:MFC42D.DLL
 0004:00000fc4       __imp_?Write@CFile@@UAEXPBXI@Z 00458fc4     mfc42d:MFC42D.DLL
 0004:00000fc8       __imp_?Close@CArchive@@QAEXXZ 00458fc8     mfc42d:MFC42D.DLL
 0004:00000fcc       __imp_?Flush@CFile@@UAEXXZ 00458fcc     mfc42d:MFC42D.DLL
 0004:00000fd0       __imp_??1CMenu@@UAE@XZ     00458fd0     mfc42d:MFC42D.DLL
 0004:00000fd4       __imp_?DestroyMenu@CMenu@@QAEHXZ 00458fd4     mfc42d:MFC42D.DLL
 0004:00000fd8       __imp_?TrackPopupMenu@CMenu@@QAEHIHHPAVCWnd@@PBUtagRECT@@@Z 00458fd8     mfc42d:MFC42D.DLL
 0004:00000fdc       __imp_?CheckMenuRadioItem@CMenu@@QAEHIIII@Z 00458fdc     mfc42d:MFC42D.DLL
 0004:00000fe0       __imp_?CheckMenuItem@CMenu@@QAEIII@Z 00458fe0     mfc42d:MFC42D.DLL
 0004:00000fe4       __imp_?EnableMenuItem@CMenu@@QAEIII@Z 00458fe4     mfc42d:MFC42D.DLL
 0004:00000fe8       __imp_?GetSubMenu@CMenu@@QBEPAV1@H@Z 00458fe8     mfc42d:MFC42D.DLL
 0004:00000fec       __imp_?LoadMenuA@CMenu@@QAEHI@Z 00458fec     mfc42d:MFC42D.DLL
 0004:00000ff0       __imp_??0CMenu@@QAE@XZ     00458ff0     mfc42d:MFC42D.DLL
 0004:00000ff4       __imp_?ClientToScreen@CWnd@@QBEXPAUtagPOINT@@@Z 00458ff4     mfc42d:MFC42D.DLL
 0004:00000ff8       __imp_?GetSafeHdc@CDC@@QBEPAUHDC__@@XZ 00458ff8     mfc42d:MFC42D.DLL
 0004:00000ffc       __imp_?LPtoDP@CDC@@QBEXPAUtagRECT@@@Z 00458ffc     mfc42d:MFC42D.DLL
 0004:00001000       __imp_?GetDeviceCaps@CDC@@QBEHH@Z 00459000     mfc42d:MFC42D.DLL
 0004:00001004       __imp_?GetClientRect@CWnd@@QBEXPAUtagRECT@@@Z 00459004     mfc42d:MFC42D.DLL
 0004:00001008       __imp_?DoPreparePrinting@CView@@QAEHPAUCPrintInfo@@@Z 00459008     mfc42d:MFC42D.DLL
 0004:0000100c       __imp_?Create@CDialog@@QAEHIPAVCWnd@@@Z 0045900c     mfc42d:MFC42D.DLL
 0004:00001010       __imp_?IsWindowVisible@CWnd@@QBEHXZ 00459010     mfc42d:MFC42D.DLL
 0004:00001014       __imp_??1CScrollBar@@UAE@XZ 00459014     mfc42d:MFC42D.DLL
 0004:00001018       __imp_?GetProfileIntA@CWinApp@@QAEIPBD0H@Z 00459018     mfc42d:MFC42D.DLL
 0004:0000101c       __imp_?GetProfileStringA@CWinApp@@QAE?AVCString@@PBD00@Z 0045901c     mfc42d:MFC42D.DLL
 0004:00001020       __imp_?WriteProfileInt@CWinApp@@QAEHPBD0H@Z 00459020     mfc42d:MFC42D.DLL
 0004:00001024       __imp_?WriteProfileStringA@CWinApp@@QAEHPBD00@Z 00459024     mfc42d:MFC42D.DLL
 0004:00001028       __imp_?OnDestroy@CView@@IAEXXZ 00459028     mfc42d:MFC42D.DLL
 0004:0000102c       __imp_?OnSetCursor@CWnd@@IAEHPAV1@II@Z 0045902c     mfc42d:MFC42D.DLL
 0004:00001030       __imp_?GetFileTitle@CFileDialog@@QBE?AVCString@@XZ 00459030     mfc42d:MFC42D.DLL
 0004:00001034       __imp_?GetTitle@CDocument@@QBEABVCString@@XZ 00459034     mfc42d:MFC42D.DLL
 0004:00001038       __imp_??9@YG_NABVCString@@0@Z 00459038     mfc42d:MFC42D.DLL
 0004:0000103c       __imp_?GetPathName@CFileDialog@@QBE?AVCString@@XZ 0045903c     mfc42d:MFC42D.DLL
 0004:00001040       __imp_?DoModal@CFileDialog@@UAEHXZ 00459040     mfc42d:MFC42D.DLL
 0004:00001044       __imp_??0CFileDialog@@QAE@HPBD0K0PAVCWnd@@@Z 00459044     mfc42d:MFC42D.DLL
 0004:00001048       __imp_?SetWindowTextA@CWnd@@QAEXPBD@Z 00459048     mfc42d:MFC42D.DLL
 0004:0000104c       __imp_??YCString@@QAEABV0@ABV0@@Z 0045904c     mfc42d:MFC42D.DLL
 0004:00001050       __imp_?TrimRight@CString@@QAEXXZ 00459050     mfc42d:MFC42D.DLL
 0004:00001054       __imp_??1CButton@@UAE@XZ   00459054     mfc42d:MFC42D.DLL
 0004:00001058       __imp_?classCCmdTarget@CCmdTarget@@2UCRuntimeClass@@B 00459058     mfc42d:MFC42D.DLL
 0004:0000105c       __imp_?AfxClassInit@@YGXPAUCRuntimeClass@@@Z 0045905c     mfc42d:MFC42D.DLL
 0004:00001060       __imp_?ReadObject@CArchive@@QAEPAVCObject@@PBUCRuntimeClass@@@Z 00459060     mfc42d:MFC42D.DLL
 0004:00001064       __imp_??0CObject@@IAE@XZ   00459064     mfc42d:MFC42D.DLL
 0004:00001068       __imp_?classCObject@CObject@@2UCRuntimeClass@@B 00459068     mfc42d:MFC42D.DLL
 0004:0000106c       __imp_??5CArchive@@QAEAAV0@AAN@Z 0045906c     mfc42d:MFC42D.DLL
 0004:00001070       __imp_??6CArchive@@QAEAAV0@N@Z 00459070     mfc42d:MFC42D.DLL
 0004:00001074       __imp_?IsStoring@CArchive@@QBEHXZ 00459074     mfc42d:MFC42D.DLL
 0004:00001078       __imp_?messageMap@CCmdTarget@@1UAFX_MSGMAP@@B 00459078     mfc42d:MFC42D.DLL
 0004:0000107c       __imp_?OnFinalRelease@CCmdTarget@@UAEXXZ 0045907c     mfc42d:MFC42D.DLL
 0004:00001080       __imp_?Dump@CCmdTarget@@UBEXAAVCDumpContext@@@Z 00459080     mfc42d:MFC42D.DLL
 0004:00001084       __imp_?AssertValid@CCmdTarget@@UBEXXZ 00459084     mfc42d:MFC42D.DLL
 0004:00001088       __imp_??0CCmdTarget@@QAE@XZ 00459088     mfc42d:MFC42D.DLL
 0004:0000108c       __imp_??3@YAXPAX@Z         0045908c     mfc42d:MFC42D.DLL
 0004:00001090       __imp_??2@YAPAXIPBDH@Z     00459090     mfc42d:MFC42D.DLL
 0004:00001094       __imp_??5@YGAAVCArchive@@AAV0@AAVCString@@@Z 00459094     mfc42d:MFC42D.DLL
 0004:00001098       __imp_??5CArchive@@QAEAAV0@AAH@Z 00459098     mfc42d:MFC42D.DLL
 0004:0000109c       __imp_??5CArchive@@QAEAAV0@AAG@Z 0045909c     mfc42d:MFC42D.DLL
 0004:000010a0       __imp_??6@YGAAVCArchive@@AAV0@ABVCString@@@Z 004590a0     mfc42d:MFC42D.DLL
 0004:000010a4       __imp_??6CArchive@@QAEAAV0@H@Z 004590a4     mfc42d:MFC42D.DLL
 0004:000010a8       __imp_??6CArchive@@QAEAAV0@G@Z 004590a8     mfc42d:MFC42D.DLL
 0004:000010ac       __imp_??1CListCtrl@@UAE@XZ 004590ac     mfc42d:MFC42D.DLL
 0004:000010b0       __imp_??0CListCtrl@@QAE@XZ 004590b0     mfc42d:MFC42D.DLL
 0004:000010b4       __imp_?SetItemData@CListCtrl@@QAEHHK@Z 004590b4     mfc42d:MFC42D.DLL
 0004:000010b8       __imp_?SetItemText@CListCtrl@@QAEHHHPBD@Z 004590b8     mfc42d:MFC42D.DLL
 0004:000010bc       __imp_?InsertItem@CListCtrl@@QAEHHPBD@Z 004590bc     mfc42d:MFC42D.DLL
 0004:000010c0       __imp_?GetItemCount@CListCtrl@@QBEHXZ 004590c0     mfc42d:MFC42D.DLL
 0004:000010c4       __imp_?SetCurSel@CComboBox@@QAEHH@Z 004590c4     mfc42d:MFC42D.DLL
 0004:000010c8       __imp_?DeleteItem@CListCtrl@@QAEHH@Z 004590c8     mfc42d:MFC42D.DLL
 0004:000010cc       __imp_?GetNextItem@CListCtrl@@QBEHHH@Z 004590cc     mfc42d:MFC42D.DLL
 0004:000010d0       __imp_?GetSelectedCount@CListCtrl@@QBEIXZ 004590d0     mfc42d:MFC42D.DLL
 0004:000010d4       __imp_?GetItemData@CListCtrl@@QBEKH@Z 004590d4     mfc42d:MFC42D.DLL
 0004:000010d8       __imp_?LimitText@CEdit@@QAEXH@Z 004590d8     mfc42d:MFC42D.DLL
 0004:000010dc       __imp_?InsertColumn@CListCtrl@@QAEHHPBDHHH@Z 004590dc     mfc42d:MFC42D.DLL
 0004:000010e0       __imp_?Flush@CArchive@@QAEXXZ 004590e0     mfc42d:MFC42D.DLL
 0004:000010e4       __imp_??3@YAXPAXPBDH@Z     004590e4     mfc42d:MFC42D.DLL
 0004:000010e8       __imp_?SetItemState@CListCtrl@@QAEHHII@Z 004590e8     mfc42d:MFC42D.DLL
 0004:000010ec       __imp_?GetItemText@CListCtrl@@QBE?AVCString@@HH@Z 004590ec     mfc42d:MFC42D.DLL
 0004:000010f0       __imp_?GetItemState@CListCtrl@@QBEIHI@Z 004590f0     mfc42d:MFC42D.DLL
 0004:000010f4       __imp_?DDX_Text@@YGXPAVCDataExchange@@HAAF@Z 004590f4     mfc42d:MFC42D.DLL
 0004:000010f8       __imp_?DDX_Text@@YGXPAVCDataExchange@@HAAM@Z 004590f8     mfc42d:MFC42D.DLL
 0004:000010fc       __imp_?GetRuntimeClass@CWnd@@UBEPAUCRuntimeClass@@XZ 004590fc     mfc42d:MFC42D.DLL
 0004:00001100       __imp_?messageMap@CWnd@@1UAFX_MSGMAP@@B 00459100     mfc42d:MFC42D.DLL
 0004:00001104       __imp_?CreateEx@CWnd@@QAEHKPBD0KHHHHPAUHWND__@@PAUHMENU__@@PAX@Z 00459104     mfc42d:MFC42D.DLL
 0004:00001108       __imp_?AfxRegisterWndClass@@YGPBDIPAUHICON__@@PAUHBRUSH__@@0@Z 00459108     mfc42d:MFC42D.DLL
 0004:0000110c       __imp_??1CFont@@UAE@XZ     0045910c     mfc42d:MFC42D.DLL
 0004:00001110       __imp_?ReleaseDC@CWnd@@QAEHPAVCDC@@@Z 00459110     mfc42d:MFC42D.DLL
 0004:00001114       __imp_?DrawTextA@CDC@@QAEHABVCString@@PAUtagRECT@@I@Z 00459114     mfc42d:MFC42D.DLL
 0004:00001118       __imp_?GetTextMetricsA@CDC@@QBEHPAUtagTEXTMETRICA@@@Z 00459118     mfc42d:MFC42D.DLL
 0004:0000111c       __imp_?CreateFontA@CFont@@QAEHHHHHHEEEEEEEEPBD@Z 0045911c     mfc42d:MFC42D.DLL
 0004:00001120       __imp_??0CFont@@QAE@XZ     00459120     mfc42d:MFC42D.DLL
 0004:00001124       __imp_?GetDC@CWnd@@QAEPAVCDC@@XZ 00459124     mfc42d:MFC42D.DLL
 0004:00001128       __imp_??1CPaintDC@@UAE@XZ  00459128     mfc42d:MFC42D.DLL
 0004:0000112c       __imp_?SelectObject@CDC@@UAEPAVCFont@@PAV2@@Z 0045912c     mfc42d:MFC42D.DLL
 0004:00001130       __imp_?SetBkMode@CDC@@QAEHH@Z 00459130     mfc42d:MFC42D.DLL
 0004:00001134       __imp_??0CPaintDC@@QAE@PAVCWnd@@@Z 00459134     mfc42d:MFC42D.DLL
 0004:00001138       __imp_?OnFilePrintSetup@CWinApp@@IAEXXZ 00459138     mfc42d:MFC42D.DLL
 0004:0000113c       __imp_?OnFileOpen@CWinApp@@IAEXXZ 0045913c     mfc42d:MFC42D.DLL
 0004:00001140       __imp_?OnFileNew@CWinApp@@IAEXXZ 00459140     mfc42d:MFC42D.DLL
 0004:00001144       __imp_?messageMap@CWinApp@@1UAFX_MSGMAP@@B 00459144     mfc42d:MFC42D.DLL
 0004:00001148       __imp_?WinHelpA@CWinApp@@UAEXKI@Z 00459148     mfc42d:MFC42D.DLL
 0004:0000114c       __imp_?OnDDECommand@CWinApp@@UAEHPAD@Z 0045914c     mfc42d:MFC42D.DLL
 0004:00001150       __imp_?DoWaitCursor@CWinApp@@UAEXH@Z 00459150     mfc42d:MFC42D.DLL
 0004:00001154       __imp_?DoMessageBox@CWinApp@@UAEHPBDII@Z 00459154     mfc42d:MFC42D.DLL
 0004:00001158       __imp_?SaveAllModified@CWinApp@@UAEHXZ 00459158     mfc42d:MFC42D.DLL
 0004:0000115c       __imp_?InitApplication@CWinApp@@UAEHXZ 0045915c     mfc42d:MFC42D.DLL
 0004:00001160       __imp_?AddToRecentFileList@CWinApp@@UAEXPBD@Z 00459160     mfc42d:MFC42D.DLL
 0004:00001164       __imp_?OpenDocumentFile@CWinApp@@UAEPAVCDocument@@PBD@Z 00459164     mfc42d:MFC42D.DLL
 0004:00001168       __imp_?Delete@CWinThread@@UAEXXZ 00459168     mfc42d:MFC42D.DLL
 0004:0000116c       __imp_?GetMainWnd@CWinThread@@UAEPAVCWnd@@XZ 0045916c     mfc42d:MFC42D.DLL
 0004:00001170       __imp_?ProcessMessageFilter@CWinThread@@UAEHHPAUtagMSG@@@Z 00459170     mfc42d:MFC42D.DLL
 0004:00001174       __imp_?ProcessWndProcException@CWinApp@@UAEJPAVCException@@PBUtagMSG@@@Z 00459174     mfc42d:MFC42D.DLL
 0004:00001178       __imp_?IsIdleMessage@CWinThread@@UAEHPAUtagMSG@@@Z 00459178     mfc42d:MFC42D.DLL
 0004:0000117c       __imp_?OnIdle@CWinApp@@UAEHJ@Z 0045917c     mfc42d:MFC42D.DLL
 0004:00001180       __imp_?PumpMessage@CWinThread@@UAEHXZ 00459180     mfc42d:MFC42D.DLL
 0004:00001184       __imp_?Run@CWinApp@@UAEHXZ 00459184     mfc42d:MFC42D.DLL
 0004:00001188       __imp_?Dump@CWinApp@@UBEXAAVCDumpContext@@@Z 00459188     mfc42d:MFC42D.DLL
 0004:0000118c       __imp_?AssertValid@CWinApp@@UBEXXZ 0045918c     mfc42d:MFC42D.DLL
 0004:00001190       __imp_?GetRuntimeClass@CWinApp@@UBEPAUCRuntimeClass@@XZ 00459190     mfc42d:MFC42D.DLL
 0004:00001194       __imp_??1CWinApp@@UAE@XZ   00459194     mfc42d:MFC42D.DLL
 0004:00001198       __imp_??0CWinApp@@QAE@PBD@Z 00459198     mfc42d:MFC42D.DLL
 0004:0000119c       __imp_?GetActiveView@CFrameWnd@@QBEPAVCView@@XZ 0045919c     mfc42d:MFC42D.DLL
 0004:000011a0       __imp_?SetActiveView@CFrameWnd@@QAEXPAVCView@@H@Z 004591a0     mfc42d:MFC42D.DLL
 0004:000011a4       __imp_?OnFinalRelease@CWnd@@UAEXXZ 004591a4     mfc42d:MFC42D.DLL
 0004:000011a8       __imp_?UpdateWindow@CWnd@@QAEXXZ 004591a8     mfc42d:MFC42D.DLL
 0004:000011ac       __imp_??H@YG?AVCString@@ABV0@0@Z 004591ac     mfc42d:MFC42D.DLL
 0004:000011b0       __imp_??H@YG?AVCString@@PBDABV0@@Z 004591b0     mfc42d:MFC42D.DLL
 0004:000011b4       __imp_??1CCommandLineInfo@@UAE@XZ 004591b4     mfc42d:MFC42D.DLL
 0004:000011b8       __imp_?ProcessShellCommand@CWinApp@@QAEHAAVCCommandLineInfo@@@Z 004591b8     mfc42d:MFC42D.DLL
 0004:000011bc       __imp_?ParseCommandLine@CWinApp@@QAEXAAVCCommandLineInfo@@@Z 004591bc     mfc42d:MFC42D.DLL
 0004:000011c0       __imp_??0CCommandLineInfo@@QAE@XZ 004591c0     mfc42d:MFC42D.DLL
 0004:000011c4       __imp_?AddDocTemplate@CWinApp@@QAEXPAVCDocTemplate@@@Z 004591c4     mfc42d:MFC42D.DLL
 0004:000011c8       __imp_??0CSingleDocTemplate@@QAE@IPAUCRuntimeClass@@00@Z 004591c8     mfc42d:MFC42D.DLL
 0004:000011cc       __imp_?LoadStdProfileSettings@CWinApp@@IAEXI@Z 004591cc     mfc42d:MFC42D.DLL
 0004:000011d0       __imp_?SetRegistryKey@CWinApp@@IAEXPBD@Z 004591d0     mfc42d:MFC42D.DLL
 0004:000011d4       __imp_?Enable3dControls@CWinApp@@IAEHXZ 004591d4     mfc42d:MFC42D.DLL
 0004:000011d8       __imp_?ExitInstance@CWinApp@@UAEHXZ 004591d8     mfc42d:MFC42D.DLL
 0004:000011dc       __imp_?SetRowInfo@CSplitterWnd@@QAEXHHH@Z 004591dc     mfc42d:MFC42D.DLL
 0004:000011e0       __imp_?ReverseFind@CString@@QBEHD@Z 004591e0     mfc42d:MFC42D.DLL
 0004:000011e4       __imp_?AddString@CListBox@@QAEHPBD@Z 004591e4     mfc42d:MFC42D.DLL
 0004:000011e8       __imp_?PreTranslateMessage@CWinThread@@UAEHPAUtagMSG@@@Z 004591e8     mfc42d:MFC42D.DLL
 0004:000011ec       __imp_?classCDocument@CDocument@@2UCRuntimeClass@@B 004591ec     mfc42d:MFC42D.DLL
 0004:000011f0       __imp_?messageMap@CDocument@@1UAFX_MSGMAP@@B 004591f0     mfc42d:MFC42D.DLL
 0004:000011f4       __imp_?OnIdle@CDocument@@UAEXXZ 004591f4     mfc42d:MFC42D.DLL
 0004:000011f8       __imp_?GetDefaultAccelerator@CDocument@@UAEPAUHACCEL__@@XZ 004591f8     mfc42d:MFC42D.DLL
 0004:000011fc       __imp_?GetDefaultMenu@CDocument@@UAEPAUHMENU__@@XZ 004591fc     mfc42d:MFC42D.DLL
 0004:00001200       __imp_?UpdateFrameCounts@CDocument@@UAEXXZ 00459200     mfc42d:MFC42D.DLL
 0004:00001204       __imp_?DoFileSave@CDocument@@UAEHXZ 00459204     mfc42d:MFC42D.DLL
 0004:00001208       __imp_?DoSave@CDocument@@UAEHPBDH@Z 00459208     mfc42d:MFC42D.DLL
 0004:0000120c       __imp_?PreCloseFrame@CDocument@@UAEXPAVCFrameWnd@@@Z 0045920c     mfc42d:MFC42D.DLL
 0004:00001210       __imp_?SaveModified@CDocument@@UAEHXZ 00459210     mfc42d:MFC42D.DLL
 0004:00001214       __imp_?CanCloseFrame@CDocument@@UAEHPAVCFrameWnd@@@Z 00459214     mfc42d:MFC42D.DLL
 0004:00001218       __imp_?ReleaseFile@CDocument@@UAEXPAVCFile@@H@Z 00459218     mfc42d:MFC42D.DLL
 0004:0000121c       __imp_?GetFile@CDocument@@UAEPAVCFile@@PBDIPAVCFileException@@@Z 0045921c     mfc42d:MFC42D.DLL
 0004:00001220       __imp_?ReportSaveLoadException@CDocument@@UAEXPBDPAVCException@@HI@Z 00459220     mfc42d:MFC42D.DLL
 0004:00001224       __imp_?OnCloseDocument@CDocument@@UAEXXZ 00459224     mfc42d:MFC42D.DLL
 0004:00001228       __imp_?OnSaveDocument@CDocument@@UAEHPBD@Z 00459228     mfc42d:MFC42D.DLL
 0004:0000122c       __imp_?OnOpenDocument@CDocument@@UAEHPBD@Z 0045922c     mfc42d:MFC42D.DLL
 0004:00001230       __imp_?DeleteContents@CDocument@@UAEXXZ 00459230     mfc42d:MFC42D.DLL
 0004:00001234       __imp_?OnChangedViewList@CDocument@@UAEXXZ 00459234     mfc42d:MFC42D.DLL
 0004:00001238       __imp_?GetNextView@CDocument@@UBEPAVCView@@AAPAU__POSITION@@@Z 00459238     mfc42d:MFC42D.DLL
 0004:0000123c       __imp_?GetFirstViewPosition@CDocument@@UBEPAU__POSITION@@XZ 0045923c     mfc42d:MFC42D.DLL
 0004:00001240       __imp_?SetModifiedFlag@CDocument@@UAEXH@Z 00459240     mfc42d:MFC42D.DLL
 0004:00001244       __imp_?IsModified@CDocument@@UAEHXZ 00459244     mfc42d:MFC42D.DLL
 0004:00001248       __imp_?SetPathName@CDocument@@UAEXPBDH@Z 00459248     mfc42d:MFC42D.DLL
 0004:0000124c       __imp_?SetTitle@CDocument@@UAEXPBD@Z 0045924c     mfc42d:MFC42D.DLL
 0004:00001250       __imp_?OnFinalRelease@CDocument@@UAEXXZ 00459250     mfc42d:MFC42D.DLL
 0004:00001254       __imp_?OnCmdMsg@CDocument@@UAEHIHPAXPAUAFX_CMDHANDLERINFO@@@Z 00459254     mfc42d:MFC42D.DLL
 0004:00001258       __imp_??0CDocument@@QAE@XZ 00459258     mfc42d:MFC42D.DLL
 0004:0000125c       __imp_??1CDocument@@UAE@XZ 0045925c     mfc42d:MFC42D.DLL
 0004:00001260       __imp_?OnNewDocument@CDocument@@UAEHXZ 00459260     mfc42d:MFC42D.DLL
 0004:00001264       __imp_?AssertValid@CDocument@@UBEXXZ 00459264     mfc42d:MFC42D.DLL
 0004:00001268       __imp_?Dump@CDocument@@UBEXAAVCDumpContext@@@Z 00459268     mfc42d:MFC42D.DLL
 0004:0000126c       __imp_?GetRuntimeClass@CEdit@@UBEPAUCRuntimeClass@@XZ 0045926c     mfc42d:MFC42D.DLL
 0004:00001270       __imp_??0CEdit@@QAE@XZ     00459270     mfc42d:MFC42D.DLL
 0004:00001274       __imp_??1CEdit@@UAE@XZ     00459274     mfc42d:MFC42D.DLL
 0004:00001278       __imp_?OnChar@CWnd@@IAEXIII@Z 00459278     mfc42d:MFC42D.DLL
 0004:0000127c       __imp_?Find@CString@@QBEHD@Z 0045927c     mfc42d:MFC42D.DLL
 0004:00001280       __imp_??0CScrollBar@@QAE@XZ 00459280     mfc42d:MFC42D.DLL
 0004:00001284       __imp_?DDV_MaxChars@@YGXPAVCDataExchange@@ABVCString@@H@Z 00459284     mfc42d:MFC42D.DLL
 0004:00001288       __imp_?DDX_Text@@YGXPAVCDataExchange@@HAAVCString@@@Z 00459288     mfc42d:MFC42D.DLL
 0004:0000128c       __imp_?DDX_Check@@YGXPAVCDataExchange@@HAAH@Z 0045928c     mfc42d:MFC42D.DLL
 0004:00001290       __imp_?SetScrollPos@CScrollBar@@QAEHHH@Z 00459290     mfc42d:MFC42D.DLL
 0004:00001294       __imp_?SetScrollRange@CScrollBar@@QAEXHHH@Z 00459294     mfc42d:MFC42D.DLL
 0004:00001298       __imp_?OnHScroll@CWnd@@IAEXIIPAVCScrollBar@@@Z 00459298     mfc42d:MFC42D.DLL
 0004:0000129c       __imp_?GetWindowTextA@CWnd@@QBEXAAVCString@@@Z 0045929c     mfc42d:MFC42D.DLL
 0004:000012a0       __imp_??2CObject@@SGPAXI@Z 004592a0     mfc42d:MFC42D.DLL
 0004:000012a4       __imp_?classCWnd@CWnd@@2UCRuntimeClass@@B 004592a4     mfc42d:MFC42D.DLL
 0004:000012a8       __imp_?GetProperty@CWnd@@QBEXJGPAX@Z 004592a8     mfc42d:MFC42D.DLL
 0004:000012ac       __imp_?SetProperty@CWnd@@QAAXJGZZ 004592ac     mfc42d:MFC42D.DLL
 0004:000012b0       __imp_?InvokeHelper@CWnd@@QAAXJGGPAXPBEZZ 004592b0     mfc42d:MFC42D.DLL
 0004:000012b4       __imp_?SetStatusText@CControlBar@@UAEHH@Z 004592b4     mfc42d:MFC42D.DLL
 0004:000012b8       __imp_?DoPaint@CControlBar@@UAEXPAVCDC@@@Z 004592b8     mfc42d:MFC42D.DLL
 0004:000012bc       __imp_?AfxWinMain@@YGHPAUHINSTANCE__@@0PADH@Z 004592bc     mfc42d:MFC42D.DLL
 0004:000012c0       __imp_?IsDockBar@CControlBar@@UBEHXZ 004592c0     mfc42d:MFC42D.DLL
 0004:000012c4       __imp_?RecalcDelayShow@CControlBar@@UAEKPAUAFX_SIZEPARENTPARAMS@@@Z 004592c4     mfc42d:MFC42D.DLL
 0004:000012c8       __imp_?IsVisible@CControlBar@@UBEHXZ 004592c8     mfc42d:MFC42D.DLL
 0004:000012cc       __imp_?DelayShow@CControlBar@@UAEXH@Z 004592cc     mfc42d:MFC42D.DLL
 0004:000012d0       __imp_?CalcDynamicLayout@CControlBar@@UAE?AVCSize@@HK@Z 004592d0     mfc42d:MFC42D.DLL
 0004:000012d4       __imp_?PostNcDestroy@CControlBar@@UAEXXZ 004592d4     mfc42d:MFC42D.DLL
 0004:000012d8       __imp_?WindowProc@CControlBar@@UAEJIIJ@Z 004592d8     mfc42d:MFC42D.DLL
 0004:000012dc       __imp_?PreTranslateMessage@CControlBar@@UAEHPAUtagMSG@@@Z 004592dc     mfc42d:MFC42D.DLL
 0004:000012e0       __imp_?PreCreateWindow@CControlBar@@UAEHAAUtagCREATESTRUCTA@@@Z 004592e0     mfc42d:MFC42D.DLL
 0004:000012e4       __imp_?DestroyWindow@CControlBar@@UAEHXZ 004592e4     mfc42d:MFC42D.DLL
 0004:000012e8       __imp_?GetMessageMap@CControlBar@@MBEPBUAFX_MSGMAP@@XZ 004592e8     mfc42d:MFC42D.DLL
 0004:000012ec       __imp_?Dump@CControlBar@@UBEXAAVCDumpContext@@@Z 004592ec     mfc42d:MFC42D.DLL
 0004:000012f0       __imp_?AssertValid@CControlBar@@UBEXXZ 004592f0     mfc42d:MFC42D.DLL
 0004:000012f4       __imp_?GetRuntimeClass@CControlBar@@UBEPAUCRuntimeClass@@XZ 004592f4     mfc42d:MFC42D.DLL
 0004:000012f8       __imp_??1CControlBar@@UAE@XZ 004592f8     mfc42d:MFC42D.DLL
 0004:000012fc       __imp_??0CSize@@QAE@XZ     004592fc     mfc42d:MFC42D.DLL
 0004:00001300       __imp_??0CControlBar@@IAE@XZ 00459300     mfc42d:MFC42D.DLL
 0004:00001304       __imp_?MoveWindow@CWnd@@QAEXHHHHH@Z 00459304     mfc42d:MFC42D.DLL
 0004:00001308       __imp_?Size@CRect@@QBE?AVCSize@@XZ 00459308     mfc42d:MFC42D.DLL
 0004:0000130c       __imp_?LoadStandardCursor@CWinApp@@QBEPAUHICON__@@PBD@Z 0045930c     mfc42d:MFC42D.DLL
 0004:00001310       __imp_??0CSize@@QAE@HH@Z   00459310     mfc42d:MFC42D.DLL
 0004:00001314       __imp_?UpdateDialogControls@CWnd@@QAEXPAVCCmdTarget@@H@Z 00459314     mfc42d:MFC42D.DLL
 0004:00001318       __imp_??1CTabCtrl@@UAE@XZ  00459318     mfc42d:MFC42D.DLL
 0004:0000131c       __imp_??0CTabCtrl@@QAE@XZ  0045931c     mfc42d:MFC42D.DLL
 0004:00001320       __imp_?ScreenToClient@CWnd@@QBEXPAUtagRECT@@@Z 00459320     mfc42d:MFC42D.DLL
 0004:00001324       __imp_?SendDlgItemMessageA@CWnd@@QAEJHIIJ@Z 00459324     mfc42d:MFC42D.DLL
 0004:00001328       __imp_?InsertItem@CTabCtrl@@QAEHHPAUtagTCITEMA@@@Z 00459328     mfc42d:MFC42D.DLL
 0004:0000132c       __imp_?GetCurSel@CTabCtrl@@QBEHXZ 0045932c     mfc42d:MFC42D.DLL
 0004:00001330       __imp_?classCFrameWnd@CFrameWnd@@2UCRuntimeClass@@B 00459330     mfc42d:MFC42D.DLL
 0004:00001334       __imp_?messageMap@CFrameWnd@@1UAFX_MSGMAP@@B 00459334     mfc42d:MFC42D.DLL
 0004:00001338       __imp_?ExitHelpMode@CFrameWnd@@UAEXXZ 00459338     mfc42d:MFC42D.DLL
 0004:0000133c       __imp_?DelayUpdateFrameMenu@CFrameWnd@@UAEXPAUHMENU__@@@Z 0045933c     mfc42d:MFC42D.DLL
 0004:00001340       __imp_?GetDefaultAccelerator@CFrameWnd@@UAEPAUHACCEL__@@XZ 00459340     mfc42d:MFC42D.DLL
 0004:00001344       __imp_?OnUpdateFrameMenu@CFrameWnd@@UAEXPAUHMENU__@@@Z 00459344     mfc42d:MFC42D.DLL
 0004:00001348       __imp_?OnUpdateFrameTitle@CFrameWnd@@UAEXH@Z 00459348     mfc42d:MFC42D.DLL
 0004:0000134c       __imp_?NegotiateBorderSpace@CFrameWnd@@UAEHIPAUtagRECT@@@Z 0045934c     mfc42d:MFC42D.DLL
 0004:00001350       __imp_?GetMessageBar@CFrameWnd@@UAEPAVCWnd@@XZ 00459350     mfc42d:MFC42D.DLL
 0004:00001354       __imp_?OnSetPreviewMode@CFrameWnd@@UAEXHPAUCPrintPreviewState@@@Z 00459354     mfc42d:MFC42D.DLL
 0004:00001358       __imp_?ActivateFrame@CFrameWnd@@UAEXH@Z 00459358     mfc42d:MFC42D.DLL
 0004:0000135c       __imp_?RecalcLayout@CFrameWnd@@UAEXH@Z 0045935c     mfc42d:MFC42D.DLL
 0004:00001360       __imp_?GetMessageString@CFrameWnd@@UBEXIAAVCString@@@Z 00459360     mfc42d:MFC42D.DLL
 0004:00001364       __imp_?GetActiveFrame@CFrameWnd@@UAEPAV1@XZ 00459364     mfc42d:MFC42D.DLL
 0004:00001368       __imp_?GetActiveDocument@CFrameWnd@@UAEPAVCDocument@@XZ 00459368     mfc42d:MFC42D.DLL
 0004:0000136c       __imp_?LoadFrame@CFrameWnd@@UAEHIKPAVCWnd@@PAUCCreateContext@@@Z 0045936c     mfc42d:MFC42D.DLL
 0004:00001370       __imp_?IsFrameWnd@CFrameWnd@@UBEHXZ 00459370     mfc42d:MFC42D.DLL
 0004:00001374       __imp_?PostNcDestroy@CFrameWnd@@MAEXXZ 00459374     mfc42d:MFC42D.DLL
 0004:00001378       __imp_?PreTranslateMessage@CFrameWnd@@UAEHPAUtagMSG@@@Z 00459378     mfc42d:MFC42D.DLL
 0004:0000137c       __imp_?EndModalState@CFrameWnd@@UAEXXZ 0045937c     mfc42d:MFC42D.DLL
 0004:00001380       __imp_?BeginModalState@CFrameWnd@@UAEXXZ 00459380     mfc42d:MFC42D.DLL
 0004:00001384       __imp_?OnCommand@CFrameWnd@@MAEHIJ@Z 00459384     mfc42d:MFC42D.DLL
 0004:00001388       __imp_?PreCreateWindow@CFrameWnd@@MAEHAAUtagCREATESTRUCTA@@@Z 00459388     mfc42d:MFC42D.DLL
 0004:0000138c       __imp_?OnCmdMsg@CFrameWnd@@UAEHIHPAXPAUAFX_CMDHANDLERINFO@@@Z 0045938c     mfc42d:MFC42D.DLL
 0004:00001390       __imp_??1CToolBar@@UAE@XZ  00459390     mfc42d:MFC42D.DLL
 0004:00001394       __imp_??1CStatusBar@@UAE@XZ 00459394     mfc42d:MFC42D.DLL
 0004:00001398       __imp_??1CSplitterWnd@@UAE@XZ 00459398     mfc42d:MFC42D.DLL
 0004:0000139c       __imp_??1CFrameWnd@@UAE@XZ 0045939c     mfc42d:MFC42D.DLL
 0004:000013a0       __imp_??0CToolBar@@QAE@XZ  004593a0     mfc42d:MFC42D.DLL
 0004:000013a4       __imp_??0CStatusBar@@QAE@XZ 004593a4     mfc42d:MFC42D.DLL
 0004:000013a8       __imp_??0CSplitterWnd@@QAE@XZ 004593a8     mfc42d:MFC42D.DLL
 0004:000013ac       __imp_??0CFrameWnd@@QAE@XZ 004593ac     mfc42d:MFC42D.DLL
 0004:000013b0       __imp_?LoadBarState@CFrameWnd@@QAEXPBD@Z 004593b0     mfc42d:MFC42D.DLL
 0004:000013b4       __imp_?DockControlBar@CFrameWnd@@QAEXPAVCControlBar@@IPBUtagRECT@@@Z 004593b4     mfc42d:MFC42D.DLL
 0004:000013b8       __imp_?EnableDocking@CFrameWnd@@QAEXK@Z 004593b8     mfc42d:MFC42D.DLL
 0004:000013bc       __imp_?SetBarStyle@CControlBar@@QAEXK@Z 004593bc     mfc42d:MFC42D.DLL
 0004:000013c0       __imp_?GetBarStyle@CControlBar@@QAEKXZ 004593c0     mfc42d:MFC42D.DLL
 0004:000013c4       __imp_?EnableDocking@CControlBar@@QAEXK@Z 004593c4     mfc42d:MFC42D.DLL
 0004:000013c8       __imp_?SetState@CToolBarCtrl@@QAEHHI@Z 004593c8     mfc42d:MFC42D.DLL
 0004:000013cc       __imp_?GetState@CToolBarCtrl@@QBEHH@Z 004593cc     mfc42d:MFC42D.DLL
 0004:000013d0       __imp_?GetToolBarCtrl@CToolBar@@QBEAAVCToolBarCtrl@@XZ 004593d0     mfc42d:MFC42D.DLL
 0004:000013d4       __imp_?SetButtonStyle@CToolBar@@QAEXHI@Z 004593d4     mfc42d:MFC42D.DLL
 0004:000013d8       __imp_?SetPaneStyle@CStatusBar@@QAEXHI@Z 004593d8     mfc42d:MFC42D.DLL
 0004:000013dc       __imp_?SetIndicators@CStatusBar@@QAEHPBIH@Z 004593dc     mfc42d:MFC42D.DLL
 0004:000013e0       __imp_?Create@CStatusBar@@QAEHPAVCWnd@@KI@Z 004593e0     mfc42d:MFC42D.DLL
 0004:000013e4       __imp_?LoadToolBar@CToolBar@@QAEHI@Z 004593e4     mfc42d:MFC42D.DLL
 0004:000013e8       __imp_?Create@CToolBar@@QAEHPAVCWnd@@KI@Z 004593e8     mfc42d:MFC42D.DLL
 0004:000013ec       __imp_?OnCreate@CFrameWnd@@IAEHPAUtagCREATESTRUCTA@@@Z 004593ec     mfc42d:MFC42D.DLL
 0004:000013f0       __imp_?CreateStatic@CSplitterWnd@@QAEHPAVCWnd@@HHKI@Z 004593f0     mfc42d:MFC42D.DLL
 0004:000013f4       __imp_?AssertValid@CFrameWnd@@UBEXXZ 004593f4     mfc42d:MFC42D.DLL
 0004:000013f8       __imp_?Dump@CFrameWnd@@UBEXAAVCDumpContext@@@Z 004593f8     mfc42d:MFC42D.DLL
 0004:000013fc       __imp_?ShowControlBar@CFrameWnd@@QAEXPAVCControlBar@@HH@Z 004593fc     mfc42d:MFC42D.DLL
 0004:00001400       __imp_?GetStyle@CWnd@@QBEKXZ 00459400     mfc42d:MFC42D.DLL
 0004:00001404       __imp_?DoModal@CPropertySheet@@UAEHXZ 00459404     mfc42d:MFC42D.DLL
 0004:00001408       __imp_??8@YG_NABVCString@@PBD@Z 00459408     mfc42d:MFC42D.DLL
 0004:0000140c       __imp_?OnInitMenuPopup@CFrameWnd@@IAEXPAVCMenu@@IH@Z 0045940c     mfc42d:MFC42D.DLL
 0004:00001410       __imp_?SetPaneText@CStatusBar@@QAEHHPBDH@Z 00459410     mfc42d:MFC42D.DLL
 0004:00001414       __imp_?OnClose@CFrameWnd@@IAEXXZ 00459414     mfc42d:MFC42D.DLL
 0004:00001418       __imp_?SaveBarState@CFrameWnd@@QBEXPBD@Z 00459418     mfc42d:MFC42D.DLL
 0004:0000141c       __imp_??0CButton@@QAE@XZ   0045941c     mfc42d:MFC42D.DLL
 0004:00001420       __imp_?GetFileName@CFileDialog@@QBE?AVCString@@XZ 00459420     mfc42d:MFC42D.DLL
 0004:00001424       __imp_?SetIcon@CButton@@QAEPAUHICON__@@PAU2@@Z 00459424     mfc42d:MFC42D.DLL
 0004:00001428       __imp_?AfxGetResourceHandle@@YGPAUHINSTANCE__@@XZ 00459428     mfc42d:MFC42D.DLL
 0004:0000142c       __imp_?classCPropertyPage@CPropertyPage@@2UCRuntimeClass@@B 0045942c     mfc42d:MFC42D.DLL
 0004:00001430       __imp_?OnWizardFinish@CPropertyPage@@UAEHXZ 00459430     mfc42d:MFC42D.DLL
 0004:00001434       __imp_?OnWizardNext@CPropertyPage@@UAEJXZ 00459434     mfc42d:MFC42D.DLL
 0004:00001438       __imp_?OnWizardBack@CPropertyPage@@UAEJXZ 00459438     mfc42d:MFC42D.DLL
 0004:0000143c       __imp_?OnQueryCancel@CPropertyPage@@UAEHXZ 0045943c     mfc42d:MFC42D.DLL
 0004:00001440       __imp_?OnKillActive@CPropertyPage@@UAEHXZ 00459440     mfc42d:MFC42D.DLL
 0004:00001444       __imp_?OnSetActive@CPropertyPage@@UAEHXZ 00459444     mfc42d:MFC42D.DLL
 0004:00001448       __imp_?OnReset@CPropertyPage@@UAEXXZ 00459448     mfc42d:MFC42D.DLL
 0004:0000144c       __imp_?OnCancel@CPropertyPage@@UAEXXZ 0045944c     mfc42d:MFC42D.DLL
 0004:00001450       __imp_?OnOK@CPropertyPage@@UAEXXZ 00459450     mfc42d:MFC42D.DLL
 0004:00001454       __imp_?PreTranslateMessage@CPropertyPage@@MAEHPAUtagMSG@@@Z 00459454     mfc42d:MFC42D.DLL
 0004:00001458       __imp_?OnNotify@CPropertyPage@@MAEHIJPAJ@Z 00459458     mfc42d:MFC42D.DLL
 0004:0000145c       __imp_?Dump@CPropertyPage@@UBEXAAVCDumpContext@@@Z 0045945c     mfc42d:MFC42D.DLL
 0004:00001460       __imp_?AssertValid@CPropertyPage@@UBEXXZ 00459460     mfc42d:MFC42D.DLL
 0004:00001464       __imp_??1CPropertyPage@@UAE@XZ 00459464     mfc42d:MFC42D.DLL
 0004:00001468       __imp_??0CPropertyPage@@QAE@II@Z 00459468     mfc42d:MFC42D.DLL
 0004:0000146c       __imp_?DDV_MinMaxLong@@YGXPAVCDataExchange@@JJJ@Z 0045946c     mfc42d:MFC42D.DLL
 0004:00001470       __imp_?DDX_Text@@YGXPAVCDataExchange@@HAAJ@Z 00459470     mfc42d:MFC42D.DLL
 0004:00001474       __imp_?messageMap@CPropertyPage@@1UAFX_MSGMAP@@B 00459474     mfc42d:MFC42D.DLL
 0004:00001478       __imp_?OnApply@CPropertyPage@@UAEHXZ 00459478     mfc42d:MFC42D.DLL
 0004:0000147c       __imp_?SetModified@CPropertyPage@@QAEXH@Z 0045947c     mfc42d:MFC42D.DLL
 0004:00001480       __imp_?DDV_MinMaxFloat@@YGXPAVCDataExchange@@ABMMM@Z 00459480     mfc42d:MFC42D.DLL
 0004:00001484       __imp_?classCPropertySheet@CPropertySheet@@2UCRuntimeClass@@B 00459484     mfc42d:MFC42D.DLL
 0004:00001488       __imp_?BuildPropPageArray@CPropertySheet@@UAEXXZ 00459488     mfc42d:MFC42D.DLL
 0004:0000148c       __imp_?PreTranslateMessage@CPropertySheet@@UAEHPAUtagMSG@@@Z 0045948c     mfc42d:MFC42D.DLL
 0004:00001490       __imp_?OnCommand@CPropertySheet@@UAEHIJ@Z 00459490     mfc42d:MFC42D.DLL
 0004:00001494       __imp_?ContinueModal@CPropertySheet@@UAEHXZ 00459494     mfc42d:MFC42D.DLL
 0004:00001498       __imp_?OnCmdMsg@CPropertySheet@@UAEHIHPAXPAUAFX_CMDHANDLERINFO@@@Z 00459498     mfc42d:MFC42D.DLL
 0004:0000149c       __imp_?Dump@CPropertySheet@@UBEXAAVCDumpContext@@@Z 0045949c     mfc42d:MFC42D.DLL
 0004:000014a0       __imp_?AssertValid@CPropertySheet@@UBEXXZ 004594a0     mfc42d:MFC42D.DLL
 0004:000014a4       __imp_??1CPropertySheet@@UAE@XZ 004594a4     mfc42d:MFC42D.DLL
 0004:000014a8       __imp_?AddPage@CPropertySheet@@QAEXPAVCPropertyPage@@@Z 004594a8     mfc42d:MFC42D.DLL
 0004:000014ac       __imp_??0CPropertySheet@@QAE@IPAVCWnd@@I@Z 004594ac     mfc42d:MFC42D.DLL
 0004:000014b0       __imp_??0CPropertySheet@@QAE@PBDPAVCWnd@@I@Z 004594b0     mfc42d:MFC42D.DLL
 0004:000014b4       __imp_?messageMap@CPropertySheet@@1UAFX_MSGMAP@@B 004594b4     mfc42d:MFC42D.DLL
 0004:000014b8       __imp_?OnInitDialog@CPropertySheet@@UAEHXZ 004594b8     mfc42d:MFC42D.DLL
 0004:000014bc       __imp_?GetRuntimeClass@CObject@@UBEPAUCRuntimeClass@@XZ 004594bc     mfc42d:MFC42D.DLL
 0004:000014c0       __imp_??0CProgressCtrl@@QAE@XZ 004594c0     mfc42d:MFC42D.DLL
 0004:000014c4       __imp_??1CProgressCtrl@@UAE@XZ 004594c4     mfc42d:MFC42D.DLL
 0004:000014c8       __imp_?classCFileDialog@CFileDialog@@2UCRuntimeClass@@B 004594c8     mfc42d:MFC42D.DLL
 0004:000014cc       __imp_?OnTypeChange@CFileDialog@@MAEXXZ 004594cc     mfc42d:MFC42D.DLL
 0004:000014d0       __imp_?OnFolderChange@CFileDialog@@MAEXXZ 004594d0     mfc42d:MFC42D.DLL
 0004:000014d4       __imp_?OnFileNameChange@CFileDialog@@MAEXXZ 004594d4     mfc42d:MFC42D.DLL
 0004:000014d8       __imp_?OnLBSelChangedNotify@CFileDialog@@MAEXIII@Z 004594d8     mfc42d:MFC42D.DLL
 0004:000014dc       __imp_?OnFileNameOK@CFileDialog@@MAEHXZ 004594dc     mfc42d:MFC42D.DLL
 0004:000014e0       __imp_?OnShareViolation@CFileDialog@@MAEIPBD@Z 004594e0     mfc42d:MFC42D.DLL
 0004:000014e4       __imp_?OnCancel@CCommonDialog@@MAEXXZ 004594e4     mfc42d:MFC42D.DLL
 0004:000014e8       __imp_?OnOK@CCommonDialog@@MAEXXZ 004594e8     mfc42d:MFC42D.DLL
 0004:000014ec       __imp_?OnNotify@CFileDialog@@MAEHIJPAJ@Z 004594ec     mfc42d:MFC42D.DLL
 0004:000014f0       __imp_?Dump@CFileDialog@@UBEXAAVCDumpContext@@@Z 004594f0     mfc42d:MFC42D.DLL
 0004:000014f4       __imp_?SetTemplate@CFileDialog@@QAEXII@Z 004594f4     mfc42d:MFC42D.DLL
 0004:000014f8       __imp_?messageMap@CCommonDialog@@1UAFX_MSGMAP@@B 004594f8     mfc42d:MFC42D.DLL
 0004:000014fc       __imp_?OnInitDone@CFileDialog@@MAEXXZ 004594fc     mfc42d:MFC42D.DLL
 0004:00001500       __imp_?Empty@CString@@QAEXXZ 00459500     mfc42d:MFC42D.DLL
 0004:00001504       __imp_?OpenClipboard@CWnd@@QAEHXZ 00459504     mfc42d:MFC42D.DLL
 0004:00001508       __imp_??5CArchive@@QAEAAV0@AAM@Z 00459508     mfc42d:MFC42D.DLL
 0004:0000150c       __imp_??6CArchive@@QAEAAV0@M@Z 0045950c     mfc42d:MFC42D.DLL
 0004:00001510       __imp_?Right@CString@@QBE?AV1@H@Z 00459510     mfc42d:MFC42D.DLL
 0004:00001514       __imp_?SetRect@CRect@@QAEXHHHH@Z 00459514     mfc42d:MFC42D.DLL
 0004:00001518       __imp_?GetBitmap@CBitmap@@QAEHPAUtagBITMAP@@@Z 00459518     mfc42d:MFC42D.DLL
 0004:0000151c       __imp_?LoadBitmapA@CBitmap@@QAEHI@Z 0045951c     mfc42d:MFC42D.DLL
 0004:00001520       __imp_?CenterWindow@CWnd@@QAEXPAV1@@Z 00459520     mfc42d:MFC42D.DLL
 0004:00001524       __imp_?OnCreate@CWnd@@IAEHPAUtagCREATESTRUCTA@@@Z 00459524     mfc42d:MFC42D.DLL
 0004:00001528       __imp_?BitBlt@CDC@@QAEHHHHHPAV1@HHK@Z 00459528     mfc42d:MFC42D.DLL
 0004:0000152c       __imp_?SelectObject@CDC@@QAEPAVCBitmap@@PAV2@@Z 0045952c     mfc42d:MFC42D.DLL
 0004:00001530       __imp_??1CDC@@UAE@XZ       00459530     mfc42d:MFC42D.DLL
 0004:00001534       __imp_?CreateCompatibleDC@CDC@@QAEHPAV1@@Z 00459534     mfc42d:MFC42D.DLL
 0004:00001538       __imp_??0CDC@@QAE@XZ       00459538     mfc42d:MFC42D.DLL
 0004:0000153c       __imp_?SetPos@CProgressCtrl@@QAEHH@Z 0045953c     mfc42d:MFC42D.DLL
 0004:00001540       __imp_?SetRange@CProgressCtrl@@QAEXFF@Z 00459540     mfc42d:MFC42D.DLL
 0004:00001544       __imp_?ModifyMenuA@CMenu@@QAEHIIIPBD@Z 00459544     mfc42d:MFC42D.DLL
 0004:00001548       __imp_?OnLButtonUp@CWnd@@IAEXIVCPoint@@@Z 00459548     mfc42d:MFC42D.DLL
 0004:0000154c       __imp_??2@YAPAXI@Z         0045954c     mfc42d:MFC42D.DLL
 0004:00001550       __imp_?GetRuntimeClass@CStatic@@UBEPAUCRuntimeClass@@XZ 00459550     mfc42d:MFC42D.DLL
 0004:00001554       __imp_??1CStatic@@UAE@XZ   00459554     mfc42d:MFC42D.DLL
 0004:00001558       __imp_?GetRuntimeClass@CBitmap@@UBEPAUCRuntimeClass@@XZ 00459558     mfc42d:MFC42D.DLL
 0004:0000155c       __imp_?GetRuntimeClass@CGdiObject@@UBEPAUCRuntimeClass@@XZ 0045955c     mfc42d:MFC42D.DLL
 0004:00001560       __imp_?DeleteObject@CGdiObject@@QAEHXZ 00459560     mfc42d:MFC42D.DLL
 0004:00001564       __imp_?Attach@CGdiObject@@QAEHPAX@Z 00459564     mfc42d:MFC42D.DLL
 0004:00001568       __imp_?AfxFindResourceHandle@@YGPAUHINSTANCE__@@PBD0@Z 00459568     mfc42d:MFC42D.DLL
 0004:0000156c       __imp_?FromHandle@CWnd@@SGPAV1@PAUHWND__@@@Z 0045956c     mfc42d:MFC42D.DLL
 0004:00001570       __imp_?ReleaseBuffer@CString@@QAEXH@Z 00459570     mfc42d:MFC42D.DLL
 0004:00001574       __imp_?GetBuffer@CString@@QAEPADH@Z 00459574     mfc42d:MFC42D.DLL
 0004:00001578       __imp_?Default@CWnd@@IAEJXZ 00459578     mfc42d:MFC42D.DLL
 0004:0000157c       __imp_??YCString@@QAEABV0@D@Z 0045957c     mfc42d:MFC42D.DLL
 0004:00001580       __imp_?IsWindowEnabled@CWnd@@QBEHXZ 00459580     mfc42d:MFC42D.DLL
 0004:00001584       __imp_?TrimLeft@CString@@QAEXXZ 00459584     mfc42d:MFC42D.DLL
 0004:00001588       __imp_?GetCurrentMessage@CWnd@@KGPBUtagMSG@@XZ 00459588     mfc42d:MFC42D.DLL
 0004:0000158c       __imp_?Attach@CDC@@QAEHPAUHDC__@@@Z 0045958c     mfc42d:MFC42D.DLL
 0004:00001590       __imp_?Replace@CString@@QAEHPBD0@Z 00459590     mfc42d:MFC42D.DLL
 0004:00001594       __imp_?FromHandle@CGdiObject@@SGPAV1@PAX@Z 00459594     mfc42d:MFC42D.DLL
 0004:00001598       __imp_?AfxThrowUserException@@YGXXZ 00459598     mfc42d:MFC42D.DLL
 0004:0000159c       __imp_?LoadStringA@CString@@QAEHI@Z 0045959c     mfc42d:MFC42D.DLL
 0004:000015a0       __imp_??0CDialog@@QAE@XZ   004595a0     mfc42d:MFC42D.DLL
 0004:000015a4       __imp_?Create@CDialog@@QAEHPBDPAVCWnd@@@Z 004595a4     mfc42d:MFC42D.DLL
 0004:000015a8       __imp_?SendMessageToDescendants@CWnd@@SGXPAUHWND__@@IIJHH@Z 004595a8     mfc42d:MFC42D.DLL
 0004:000015ac       __imp_?GetRuntimeClass@CPropertyPage@@UBEPAUCRuntimeClass@@XZ 004595ac     mfc42d:MFC42D.DLL
 0004:000015b0       __imp_?AfxGetModuleState@@YGPAVAFX_MODULE_STATE@@XZ 004595b0     mfc42d:MFC42D.DLL
 0004:000015b4       __imp_?OnNcDestroy@CWnd@@IAEXXZ 004595b4     mfc42d:MFC42D.DLL
 0004:000015b8       __imp_?GetRuntimeClass@CPtrList@@UBEPAUCRuntimeClass@@XZ 004595b8     mfc42d:MFC42D.DLL
 0004:000015bc       __imp_?FromHandlePermanent@CWnd@@SGPAV1@PAUHWND__@@@Z 004595bc     mfc42d:MFC42D.DLL
 0004:000015c0       __imp_??0CPtrList@@QAE@H@Z 004595c0     mfc42d:MFC42D.DLL
 0004:000015c4       __imp_??1CPtrList@@UAE@XZ  004595c4     mfc42d:MFC42D.DLL
 0004:000015c8       __imp_?RemoveAll@CPtrList@@QAEXXZ 004595c8     mfc42d:MFC42D.DLL
 0004:000015cc       __imp_?AddHead@CPtrList@@QAEPAU__POSITION@@PAX@Z 004595cc     mfc42d:MFC42D.DLL
 0004:000015d0       __imp_?RemoveAt@CPtrList@@QAEXPAU__POSITION@@@Z 004595d0     mfc42d:MFC42D.DLL
 0004:000015d4       __imp_?IsInvokeAllowed@CCmdTarget@@UAEHJ@Z 004595d4     mfc42d:MFC42D.DLL
 0004:000015d8       __imp_?GetDispatchIID@CCmdTarget@@UAEHPAU_GUID@@@Z 004595d8     mfc42d:MFC42D.DLL
 0004:000015dc       __imp_?GetTypeInfoCount@CCmdTarget@@UAEIXZ 004595dc     mfc42d:MFC42D.DLL
 0004:000015e0       __imp_?GetTypeLibCache@CCmdTarget@@UAEPAVCTypeLibCache@@XZ 004595e0     mfc42d:MFC42D.DLL
 0004:000015e4       __imp_?GetTypeLib@CCmdTarget@@UAEJKPAPAUITypeLib@@@Z 004595e4     mfc42d:MFC42D.DLL
 0004:000015e8       __imp_?GetCommandMap@CCmdTarget@@MBEPBUAFX_OLECMDMAP@@XZ 004595e8     mfc42d:MFC42D.DLL
 0004:000015ec       __imp_?GetDispatchMap@CCmdTarget@@MBEPBUAFX_DISPMAP@@XZ 004595ec     mfc42d:MFC42D.DLL
 0004:000015f0       __imp_?GetConnectionMap@CCmdTarget@@MBEPBUAFX_CONNECTIONMAP@@XZ 004595f0     mfc42d:MFC42D.DLL
 0004:000015f4       __imp_?GetInterfaceMap@CCmdTarget@@MBEPBUAFX_INTERFACEMAP@@XZ 004595f4     mfc42d:MFC42D.DLL
 0004:000015f8       __imp_?GetEventSinkMap@CCmdTarget@@MBEPBUAFX_EVENTSINKMAP@@XZ 004595f8     mfc42d:MFC42D.DLL
 0004:000015fc       __imp_?OnCreateAggregates@CCmdTarget@@UAEHXZ 004595fc     mfc42d:MFC42D.DLL
 0004:00001600       __imp_?GetInterfaceHook@CCmdTarget@@UAEPAUIUnknown@@PBX@Z 00459600     mfc42d:MFC42D.DLL
 0004:00001604       __imp_?GetExtraConnectionPoints@CCmdTarget@@MAEHPAVCPtrArray@@@Z 00459604     mfc42d:MFC42D.DLL
 0004:00001608       __imp_?GetConnectionHook@CCmdTarget@@MAEPAUIConnectionPoint@@ABU_GUID@@@Z 00459608     mfc42d:MFC42D.DLL
 0004:0000160c       __imp_?PreSubclassWindow@CWnd@@UAEXXZ 0045960c     mfc42d:MFC42D.DLL
 0004:00001610       __imp_?Create@CWnd@@UAEHPBD0KABUtagRECT@@PAV1@IPAUCCreateContext@@@Z 00459610     mfc42d:MFC42D.DLL
 0004:00001614       __imp_?PreCreateWindow@CWnd@@UAEHAAUtagCREATESTRUCTA@@@Z 00459614     mfc42d:MFC42D.DLL
 0004:00001618       __imp_?CalcWindowRect@CWnd@@UAEXPAUtagRECT@@I@Z 00459618     mfc42d:MFC42D.DLL
 0004:0000161c       __imp_?OnToolHitTest@CWnd@@UBEHVCPoint@@PAUtagTOOLINFOA@@@Z 0045961c     mfc42d:MFC42D.DLL
 0004:00001620       __imp_?GetScrollBarCtrl@CWnd@@UBEPAVCScrollBar@@H@Z 00459620     mfc42d:MFC42D.DLL
 0004:00001624       __imp_?WinHelpA@CWnd@@UAEXKI@Z 00459624     mfc42d:MFC42D.DLL
 0004:00001628       __imp_?ContinueModal@CWnd@@UAEHXZ 00459628     mfc42d:MFC42D.DLL
 0004:0000162c       __imp_?EndModalLoop@CWnd@@UAEXH@Z 0045962c     mfc42d:MFC42D.DLL
 0004:00001630       __imp_?OnCommand@CWnd@@MAEHIJ@Z 00459630     mfc42d:MFC42D.DLL
 0004:00001634       __imp_?OnNotify@CWnd@@MAEHIJPAJ@Z 00459634     mfc42d:MFC42D.DLL
 0004:00001638       __imp_?GetSuperWndProcAddr@CWnd@@MAEPAP6GJPAUHWND__@@IIJ@ZXZ 00459638     mfc42d:MFC42D.DLL
 0004:0000163c       __imp_?PreTranslateMessage@CDialog@@UAEHPAUtagMSG@@@Z 0045963c     mfc42d:MFC42D.DLL
 0004:00001640       __imp_?OnAmbientProperty@CWnd@@UAEHPAVCOleControlSite@@JPAUtagVARIANT@@@Z 00459640     mfc42d:MFC42D.DLL
 0004:00001644       __imp_?WindowProc@CWnd@@MAEJIIJ@Z 00459644     mfc42d:MFC42D.DLL
 0004:00001648       __imp_?OnWndMsg@CWnd@@MAEHIIJPAJ@Z 00459648     mfc42d:MFC42D.DLL
 0004:0000164c       __imp_?DefWindowProcA@CWnd@@MAEJIIJ@Z 0045964c     mfc42d:MFC42D.DLL
 0004:00001650       __imp_?PostNcDestroy@CWnd@@MAEXXZ 00459650     mfc42d:MFC42D.DLL
 0004:00001654       __imp_?OnChildNotify@CWnd@@MAEHIIJPAJ@Z 00459654     mfc42d:MFC42D.DLL
 0004:00001658       __imp_?CheckAutoCenter@CDialog@@UAEHXZ 00459658     mfc42d:MFC42D.DLL
 0004:0000165c       __imp_?IsFrameWnd@CWnd@@UBEHXZ 0045965c     mfc42d:MFC42D.DLL
 0004:00001660       __imp_?SetOccDialogInfo@CDialog@@MAEHPAU_AFX_OCC_DIALOG_INFO@@@Z 00459660     mfc42d:MFC42D.DLL
 0004:00001664       __imp_?DoModal@CDialog@@UAEHXZ 00459664     mfc42d:MFC42D.DLL
 0004:00001668       __imp_?OnSetFont@CDialog@@UAEXPAVCFont@@@Z 00459668     mfc42d:MFC42D.DLL
 0004:0000166c       __imp_?PreInitDialog@CDialog@@MAEXXZ 0045966c     mfc42d:MFC42D.DLL
 0004:00001670       __imp_?GetPane@CSplitterWnd@@QBEPAVCWnd@@HH@Z 00459670     mfc42d:MFC42D.DLL
 0004:00001674       __imp_?OnBarStyleChange@CControlBar@@UAEXKK@Z 00459674     mfc42d:MFC42D.DLL
 0004:00001678       \177MFC42D_NULL_THUNK_DATA 00459678     mfc42d:MFC42D.DLL
 0004:0000167c       __imp_?GetProperty@COleDispatchDriver@@QBEXJGPAX@Z 0045967c     mfco42d:MFCO42D.DLL
 0004:00001680       __imp_?CreateDispatch@COleDispatchDriver@@QAEHPBDPAVCOleException@@@Z 00459680     mfco42d:MFCO42D.DLL
 0004:00001684       __imp_??1COleDispatchDriver@@QAE@XZ 00459684     mfco42d:MFCO42D.DLL
 0004:00001688       __imp_?CreateControl@CWnd@@QAEHABU_GUID@@PBDKABUtagRECT@@PAV1@IPAVCFile@@HPAG@Z 00459688     mfco42d:MFCO42D.DLL
 0004:0000168c       __imp_?AfxThrowOleDispatchException@@YGXGPBDI@Z 0045968c     mfco42d:MFCO42D.DLL
 0004:00001690       __imp_?AfxOleInit@@YGHXZ   00459690     mfco42d:MFCO42D.DLL
 0004:00001694       __imp_?AfxEnableControlContainer@@YAXPAVCOccManager@@@Z 00459694     mfco42d:MFCO42D.DLL
 0004:00001698       __imp_?SetProperty@COleDispatchDriver@@QAAXJGZZ 00459698     mfco42d:MFCO42D.DLL
 0004:0000169c       __imp_?InvokeHelper@COleDispatchDriver@@QAAXJGGPAXPBEZZ 0045969c     mfco42d:MFCO42D.DLL
 0004:000016a0       __imp_??0COleDispatchDriver@@QAE@XZ 004596a0     mfco42d:MFCO42D.DLL
 0004:000016a4       \177MFCO42D_NULL_THUNK_DATA 004596a4     mfco42d:MFCO42D.DLL
 0004:000016a8       __imp___setmbcp            004596a8     msvcrt:MSVCRT.dll
 0004:000016ac       __imp__stricmp             004596ac     msvcrt:MSVCRT.dll
 0004:000016ac       __imp___stricmp            004596ac     msvcrt:MSVCRT.dll
 0004:000016b0       __imp__strdup              004596b0     msvcrt:MSVCRT.dll
 0004:000016b0       __imp___strdup             004596b0     msvcrt:MSVCRT.dll
 0004:000016b4       __imp___ultoa              004596b4     msvcrt:MSVCRT.dll
 0004:000016b4       __imp__ultoa               004596b4     msvcrt:MSVCRT.dll
 0004:000016b8       \177MSVCRT_NULL_THUNK_DATA 004596b8     msvcrt:MSVCRT.dll
 0004:000016bc       __imp___except_handler3    004596bc     msvcrtd:MSVCRTD.dll
 0004:000016c0       __imp_??1type_info@@UAE@XZ 004596c0     msvcrtd:MSVCRTD.dll
 0004:000016c4       __imp____RTDynamicCast     004596c4     msvcrtd:MSVCRTD.dll
 0004:000016c8       __imp__strchr              004596c8     msvcrtd:MSVCRTD.dll
 0004:000016cc       __imp__free                004596cc     msvcrtd:MSVCRTD.dll
 0004:000016d0       __imp__strtoul             004596d0     msvcrtd:MSVCRTD.dll
 0004:000016d4       __imp__isdigit             004596d4     msvcrtd:MSVCRTD.dll
 0004:000016d8       __imp__toupper             004596d8     msvcrtd:MSVCRTD.dll
 0004:000016dc       __imp___finite             004596dc     msvcrtd:MSVCRTD.dll
 0004:000016e0       __imp___hypot              004596e0     msvcrtd:MSVCRTD.dll
 0004:000016e4       __imp_?terminate@@YAXXZ    004596e4     msvcrtd:MSVCRTD.dll
 0004:000016e8       __imp___control87          004596e8     msvcrtd:MSVCRTD.dll
 0004:000016ec       __imp___clearfp            004596ec     msvcrtd:MSVCRTD.dll
 0004:000016f0       __imp___CIpow              004596f0     msvcrtd:MSVCRTD.dll
 0004:000016f4       __imp__floor               004596f4     msvcrtd:MSVCRTD.dll
 0004:000016f8       __imp__cos                 004596f8     msvcrtd:MSVCRTD.dll
 0004:000016fc       __imp___purecall           004596fc     msvcrtd:MSVCRTD.dll
 0004:00001700       __imp__memset              00459700     msvcrtd:MSVCRTD.dll
 0004:00001704       __imp__ceil                00459704     msvcrtd:MSVCRTD.dll
 0004:00001708       __imp__atoi                00459708     msvcrtd:MSVCRTD.dll
 0004:0000170c       __imp__memcpy              0045970c     msvcrtd:MSVCRTD.dll
 0004:00001710       __imp____dllonexit         00459710     msvcrtd:MSVCRTD.dll
 0004:00001714       __imp___acmdln             00459714     msvcrtd:MSVCRTD.dll
 0004:00001718       __imp___onexit             00459718     msvcrtd:MSVCRTD.dll
 0004:0000171c       __imp___exit               0045971c     msvcrtd:MSVCRTD.dll
 0004:00001720       __imp___XcptFilter         00459720     msvcrtd:MSVCRTD.dll
 0004:00001724       __imp__exit                00459724     msvcrtd:MSVCRTD.dll
 0004:00001728       __imp___controlfp          00459728     msvcrtd:MSVCRTD.dll
 0004:0000172c       __imp____set_app_type      0045972c     msvcrtd:MSVCRTD.dll
 0004:00001730       __imp____p__fmode          00459730     msvcrtd:MSVCRTD.dll
 0004:00001734       __imp____p__commode        00459734     msvcrtd:MSVCRTD.dll
 0004:00001738       __imp___adjust_fdiv        00459738     msvcrtd:MSVCRTD.dll
 0004:0000173c       __imp____setusermatherr    0045973c     msvcrtd:MSVCRTD.dll
 0004:00001740       __imp___initterm           00459740     msvcrtd:MSVCRTD.dll
 0004:00001744       __imp____getmainargs       00459744     msvcrtd:MSVCRTD.dll
 0004:00001748       __imp__sprintf             00459748     msvcrtd:MSVCRTD.dll
 0004:0000174c       __imp____CxxFrameHandler   0045974c     msvcrtd:MSVCRTD.dll
 0004:00001750       __imp__strcpy              00459750     msvcrtd:MSVCRTD.dll
 0004:00001754       __imp__atof                00459754     msvcrtd:MSVCRTD.dll
 0004:00001758       __imp___access             00459758     msvcrtd:MSVCRTD.dll
 0004:0000175c       __imp___splitpath          0045975c     msvcrtd:MSVCRTD.dll
 0004:00001760       __imp__sin                 00459760     msvcrtd:MSVCRTD.dll
 0004:00001764       __imp__atan                00459764     msvcrtd:MSVCRTD.dll
 0004:00001768       __imp__sqrt                00459768     msvcrtd:MSVCRTD.dll
 0004:0000176c       __imp__fabs                0045976c     msvcrtd:MSVCRTD.dll
 0004:00001770       __imp___ftol               00459770     msvcrtd:MSVCRTD.dll
 0004:00001774       __imp___spawnl             00459774     msvcrtd:MSVCRTD.dll
 0004:00001778       __imp__getenv              00459778     msvcrtd:MSVCRTD.dll
 0004:0000177c       __imp__strlen              0045977c     msvcrtd:MSVCRTD.dll
 0004:00001780       __imp___copysign           00459780     msvcrtd:MSVCRTD.dll
 0004:00001784       \177MSVCRTD_NULL_THUNK_DATA 00459784     msvcrtd:MSVCRTD.dll
 0004:00001788       __imp__SafeArrayUnaccessData@4 00459788     oleaut32:OLEAUT32.dll
 0004:0000178c       __imp__SafeArrayAccessData@8 0045978c     oleaut32:OLEAUT32.dll
 0004:00001790       __imp__VariantInit@4       00459790     oleaut32:OLEAUT32.dll
 0004:00001794       __imp__VariantClear@4      00459794     oleaut32:OLEAUT32.dll
 0004:00001798       __imp__SafeArrayCreate@12  00459798     oleaut32:OLEAUT32.dll
 0004:0000179c       __imp__VariantCopy@8       0045979c     oleaut32:OLEAUT32.dll
 0004:000017a0       __imp__SafeArrayCopy@8     004597a0     oleaut32:OLEAUT32.dll
 0004:000017a4       __imp__SafeArrayGetElement@12 004597a4     oleaut32:OLEAUT32.dll
 0004:000017a8       \177OLEAUT32_NULL_THUNK_DATA 004597a8     oleaut32:OLEAUT32.dll
 0004:000017ac       __imp__SHGetPathFromIDListA@8 004597ac     shell32:SHELL32.dll
 0004:000017b0       __imp__SHGetMalloc@4       004597b0     shell32:SHELL32.dll
 0004:000017b4       __imp__SHBrowseForFolderA@4 004597b4     shell32:SHELL32.dll
 0004:000017b8       \177SHELL32_NULL_THUNK_DATA 004597b8     shell32:SHELL32.dll
 0004:000017bc       __imp__ShowWindow@8        004597bc     user32:USER32.dll
 0004:000017c0       __imp__ClientToScreen@8    004597c0     user32:USER32.dll
 0004:000017c4       __imp__GetWindow@8         004597c4     user32:USER32.dll
 0004:000017c8       __imp__IsRectEmpty@4       004597c8     user32:USER32.dll
 0004:000017cc       __imp__SetParent@8         004597cc     user32:USER32.dll
 0004:000017d0       __imp__SetWindowPos@28     004597d0     user32:USER32.dll
 0004:000017d4       __imp__SetRectEmpty@4      004597d4     user32:USER32.dll
 0004:000017d8       __imp__DrawTextA@20        004597d8     user32:USER32.dll
 0004:000017dc       __imp__GetCapture@0        004597dc     user32:USER32.dll
 0004:000017e0       __imp__GetNextDlgGroupItem@12 004597e0     user32:USER32.dll
 0004:000017e4       __imp__SetCapture@4        004597e4     user32:USER32.dll
 0004:000017e8       __imp__PtInRect@12         004597e8     user32:USER32.dll
 0004:000017ec       __imp__GetDlgCtrlID@4      004597ec     user32:USER32.dll
 0004:000017f0       __imp__InvalidateRect@12   004597f0     user32:USER32.dll
 0004:000017f4       __imp__DestroyWindow@4     004597f4     user32:USER32.dll
 0004:000017f8       __imp__SetWindowLongA@12   004597f8     user32:USER32.dll
 0004:000017fc       __imp__GetClassNameA@12    004597fc     user32:USER32.dll
 0004:00001800       __imp__GetFocus@0          00459800     user32:USER32.dll
 0004:00001804       __imp__GetDlgItem@8        00459804     user32:USER32.dll
 0004:00001808       __imp__GetWindowLongA@8    00459808     user32:USER32.dll
 0004:0000180c       __imp__SetFocus@4          0045980c     user32:USER32.dll
 0004:00001810       __imp__PostMessageA@16     00459810     user32:USER32.dll
 0004:00001814       __imp__InflateRect@12      00459814     user32:USER32.dll
 0004:00001818       __imp__GetWindowRect@8     00459818     user32:USER32.dll
 0004:0000181c       __imp__GetWindowThreadProcessId@8 0045981c     user32:USER32.dll
 0004:00001820       __imp__GetActiveWindow@0   00459820     user32:USER32.dll
 0004:00001824       __imp__MapWindowPoints@16  00459824     user32:USER32.dll
 0004:00001828       __imp__LoadCursorA@8       00459828     user32:USER32.dll
 0004:0000182c       __imp__OffsetRect@12       0045982c     user32:USER32.dll
 0004:00001830       __imp__RegisterWindowMessageA@4 00459830     user32:USER32.dll
 0004:00001834       __imp__GetSysColor@4       00459834     user32:USER32.dll
 0004:00001838       __imp__FillRect@12         00459838     user32:USER32.dll
 0004:0000183c       __imp__DrawFocusRect@8     0045983c     user32:USER32.dll
 0004:00001840       __imp__GetParent@4         00459840     user32:USER32.dll
 0004:00001844       __imp__EnableWindow@8      00459844     user32:USER32.dll
 0004:00001848       __imp__LoadBitmapA@8       00459848     user32:USER32.dll
 0004:0000184c       __imp__GetClientRect@8     0045984c     user32:USER32.dll
 0004:00001850       __imp__GetDC@4             00459850     user32:USER32.dll
 0004:00001854       __imp__ReleaseDC@8         00459854     user32:USER32.dll
 0004:00001858       __imp__EmptyClipboard@0    00459858     user32:USER32.dll
 0004:0000185c       __imp__SetClipboardData@8  0045985c     user32:USER32.dll
 0004:00001860       __imp__CloseClipboard@0    00459860     user32:USER32.dll
 0004:00001864       __imp__LoadImageA@24       00459864     user32:USER32.dll
 0004:00001868       __imp__SendMessageA@16     00459868     user32:USER32.dll
 0004:0000186c       __imp__IsCharAlphaNumericA@4 0045986c     user32:USER32.dll
 0004:00001870       __imp__IsCharAlphaA@4      00459870     user32:USER32.dll
 0004:00001874       __imp__MessageBeep@4       00459874     user32:USER32.dll
 0004:00001878       __imp__GetCursorPos@4      00459878     user32:USER32.dll
 0004:0000187c       __imp__IsWindow@4          0045987c     user32:USER32.dll
 0004:00001880       __imp__ReleaseCapture@0    00459880     user32:USER32.dll
 0004:00001884       \177USER32_NULL_THUNK_DATA 00459884     user32:USER32.dll
 0004:00001888       __imp__GetFileVersionInfoSizeA@8 00459888     version:VERSION.dll
 0004:0000188c       __imp__GetFileVersionInfoA@16 0045988c     version:VERSION.dll
 0004:00001890       __imp__VerQueryValueA@16   00459890     version:VERSION.dll
 0004:00001894       \177VERSION_NULL_THUNK_DATA 00459894     version:VERSION.dll
 0004:00001898       __imp__CoTaskMemFree@4     00459898     ole32:ole32.dll
 0004:0000189c       __imp__CoTaskMemAlloc@4    0045989c     ole32:ole32.dll
 0004:000018a0       \177ole32_NULL_THUNK_DATA  004598a0     ole32:ole32.dll

 entry point at        0001:0003fb50

 Static symbols

 0001:00027df0       _$E245                     00428df0 f   Settings.obj
 0001:00027e10       _$E244                     00428e10 f   Settings.obj
 0001:00028040       _$E248                     00429040 f   Settings.obj
 0001:00028060       _$E247                     00429060 f   Settings.obj
 0001:00012180       _$E201                     00413180 f   FloatEdit.obj
 0001:0000eff0       _$E254                     0040fff0 f   Eclipse.obj
 0001:0000f010       _$E251                     00410010 f   Eclipse.obj
 0001:0000f030       _$E253                     00410030 f   Eclipse.obj
 0001:0000f050       _$E252                     00410050 f   Eclipse.obj
 0001:00008b70       _$E245                     00409b70 f   Calibration.obj
 0001:00008b90       _$E244                     00409b90 f   Calibration.obj
 0001:00008d40       _$E248                     00409d40 f   Calibration.obj
 0001:00008d60       _$E247                     00409d60 f   Calibration.obj
 0001:0003e6f0       _$E202                     0043f6f0 f   UtilLib:Notifier.obj
 0001:0003e700       _$E201                     0043f700 f   UtilLib:Notifier.obj
 0001:00038480       _$E265                     00439480 f   UtilLib:MyControls.obj
 0001:00038490       _$E264                     00439490 f   UtilLib:MyControls.obj
 0001:000384b0       _$E268                     004394b0 f   UtilLib:MyControls.obj
 0001:000384c0       _$E267                     004394c0 f   UtilLib:MyControls.obj
 0001:00038960       _$E276                     00439960 f   UtilLib:MyControls.obj
 0001:00038970       _$E272                     00439970 f   UtilLib:MyControls.obj
 0001:00038980       _$E275                     00439980 f   UtilLib:MyControls.obj
 0001:00038990       _$E273                     00439990 f   UtilLib:MyControls.obj
 0001:000389b0       _$E279                     004399b0 f   UtilLib:MyControls.obj
 0001:000389c0       _$E278                     004399c0 f   UtilLib:MyControls.obj
 0001:000393e0       _$E285                     0043a3e0 f   UtilLib:MyControls.obj
 0001:000393f0       _$E281                     0043a3f0 f   UtilLib:MyControls.obj
 0001:00039400       _$E284                     0043a400 f   UtilLib:MyControls.obj
 0001:00039410       _$E282                     0043a410 f   UtilLib:MyControls.obj
 0001:000398e0       _$E291                     0043a8e0 f   UtilLib:MyControls.obj
 0001:000398f0       _$E287                     0043a8f0 f   UtilLib:MyControls.obj
 0001:00039900       _$E290                     0043a900 f   UtilLib:MyControls.obj
 0001:00039910       _$E288                     0043a910 f   UtilLib:MyControls.obj
 0001:000399a0       _$E294                     0043a9a0 f   UtilLib:MyControls.obj
 0001:00039b50       _$E296                     0043ab50 f   UtilLib:MyControls.obj
 0001:00039bb0       _$E301                     0043abb0 f   UtilLib:MyControls.obj
 0001:00039bc0       _$E297                     0043abc0 f   UtilLib:MyControls.obj
 0001:00039bd0       _$E300                     0043abd0 f   UtilLib:MyControls.obj
 0001:00039be0       _$E298                     0043abe0 f   UtilLib:MyControls.obj
 0001:0003a260       _$E307                     0043b260 f   UtilLib:MyControls.obj
 0001:0003a270       _$E303                     0043b270 f   UtilLib:MyControls.obj
 0001:0003a280       _$E306                     0043b280 f   UtilLib:MyControls.obj
 0001:0003a290       _$E304                     0043b290 f   UtilLib:MyControls.obj
 0001:0003b0d0       _$E310                     0043c0d0 f   UtilLib:MyControls.obj
 0001:0003b0e0       _$E309                     0043c0e0 f   UtilLib:MyControls.obj
 0001:0003ca90       _$E313                     0043da90 f   UtilLib:MyControls.obj
 0001:0003caa0       _$E312                     0043daa0 f   UtilLib:MyControls.obj
 0001:00036fa0       ?CheckLocalDecimal@@YAXXZ  00437fa0 f   UtilLib:NumberUtils.obj
 0001:0003fa89       hard                       00440a89 f   msvcrtd:llmul.obj
 0001:0003f990       _$$$00001                  00440990 f   msvcrtd:chkstk.obj
 0001:0003f99c       probepages                 0044099c f   msvcrtd:chkstk.obj
 0001:0003f9b0       lastpage                   004409b0 f   msvcrtd:chkstk.obj
 0001:0003f950       ?ArrayUnwindFilter@@YAHPAU_EXCEPTION_POINTERS@@@Z 00440950 f   msvcrtd:ehvecdtr.obj
 0001:00040121       _$E373                     00441121 f   mfcs42:appmodul.obj
 0001:00040126       _$E372                     00441126 f   mfcs42:appmodul.obj

FIXUPS: 4112e 3a36 8 a ffff260d 41 d 3b d978 a ffff26a6 d 3b d928 a ffffc240
FIXUPS: 40bc6 1c f 3b d3 24 fffffdcb 1a ffffff50 fffffe54 7f 47 fffffe59
FIXUPS: 407de 913 8 29 ffff627e 3d 14 1d4 18 1f 63 12 11 72 d4d1 b b b
FIXUPS: 44bf0 ffff2b36 e d 41 9 27 9 2c fffff6dd 54 91 11 d8 58 48 12 d
FIXUPS: 44cce ffff2c42 a7 30 22 12 16 73 5b 12 41 1d 70 c 14 17 12 1d 12
FIXUPS: 37c6d 82 27b 90 cc0a 16 b 8 16 b ffff26a2 23 1d 167b 17 10 28 7d
FIXUPS: 38a8c 74 12 cf 86 2b 26 bfad c 9 c 8 a 8 a 8 a ffff40e8 d 13 d
FIXUPS: 38de1 13 d 38 f be7c ffff37e7 27 54 2a 26 70 f 10 54 b 20 12 b
FIXUPS: 386be 9 b 20 19 9 b 1f 9 b 20 19 9 b 38 ca 26 80 28 6cc7 91 20
FIXUPS: 38f62 40 17b 82 b2 69 7 f 61 78 32 f 10 3e 1a ffffec64 29 32 49
FIXUPS: 38182 2e 2b 83 40 3c 85 50 60 43 6eff 13 d 13 d 13 d 13 10 d 3d
FIXUPS: 3f430 f 5d95 27 a ffffa25f d 3d 15 f 5d42 29 a ffffa2bd d 2d b
FIXUPS: 3f55b b 5c 40 fffffa61 21 d 23 d 38 f 60ac a ffff9f85 20 21 d 32
FIXUPS: 3f1e3 21 d 22 21 d 32 11 d 10 13 d 10 13 d 13 d 13 5df1 9 a a 8
FIXUPS: 45164 ffff9cb9 6358 a a ffff9d0b d 62f3 a ffff9d66 d 13 d 10 13
FIXUPS: 3ef61 10 13 d 10 13 d 10 13 d 10 35 5fcc a 8 8 8 a 8 a 8 b b a
FIXUPS: 45070 a 9 b c 8 a b a 8 a 8 b a 8 b a 8 e a fffffda2 b 8 16 b 8
FIXUPS: 44f15 8 a 8 a 8 a 8 a 8 b a 8 9 b 8 9 b 8 a 9 b 8 8 a 8 fffffd55
FIXUPS: 44d59 9 b 8 a 8 a 8 8 8 a 8 8 a 8 16 b 8 16 b 8 16 b 8 16 b 8 16
FIXUPS: 44e9a 8 16 ffff9789 32 3a 28 38 b 7b 28 a 2e 34 6d 89 1b5 235 3f
FIXUPS: 3ed73 30 21 d 5f13 8 a 8 8 b a 8 8 a 8 a ffff944e 35 50 10 11 43
FIXUPS: 3e28e 11 69 18 7 d 9 2a 1c 21 35 63 1f 10 13 3c 13 11 35 7 1a c
FIXUPS: 3e563 24 35 60 fffff1da 36 7 4c 172 14 47 7 7 11 26 7c 1a 6f 30
FIXUPS: 3dbdb 3b 50 1a 13 79 9 120 56 2a 22 22 25 a4 1c 2d 178 ffffed82
FIXUPS: 3cf2d 140 19 f6 7c af 10 f 147 66 c 5f 19 1c f 40 6 1a 50 14 13
FIXUPS: 3d60c 13 65 3a 16 5d 1d 3e 7 46 ffffeeb9 19 15 4c 10 7 38 10 f
FIXUPS: 3c7f7 66 10 dc 14c 17 1d 17 47 7 26 6b 11 9a b4 4e 48 31 53 23
FIXUPS: 3ce62 66 17 ffffee97 15f 6b 5a 4a c1 f e f 58 53 23 67 53 2c 96
FIXUPS: 3c3f0 1b 98 4f f 3c 20 16 15 19 7 19 18 1d 2f 1d ffffed2b 65 b0
FIXUPS: 3b49d 1c 5c b1 44 18 48 15 181 29 41 7c 76 7 67 1e 29 77 14 29
FIXUPS: 3bae4 55 b3 15 95 15 93 19 10 ffffee4f 10 10 24 6c 22 13 16 158
FIXUPS: 3ae44 29 10 16 155 4d 13 16 ad 65 34 1a 24 e 71 5 10 10 24 6c 15
FIXUPS: 3b347 10 fffff451 b 11 77 28 1b 3b 16 12 5 10 10 24 42 a 12 1e
FIXUPS: 3a9d9 11 9 10 16 90 18 16 35 a 12 a a 1a 5b fffff708 4d 4a 31 4a
FIXUPS: 3a3e1 5 10 10 24 29 10 5c 10 6e 12 33 1e 1c 2b 1f d 8 3d d a 10
FIXUPS: 3a6a2 48 13 14 89 fffff32f 95 45 131 6c 1b 10 38 2f 10 4d 2f 10
FIXUPS: 39f34 f 26 40 10 50 50 76 4a 3b 25 11 10 55 16 34 16 15 f 563f
FIXUPS: 3f8e0 c 2d 29 bf c 34 5813 b a 8 b a ffffa7ce d 10 13 d ffff99f0
FIXUPS: 394b1 52 c 36 41c 5 10 10 24 7 50 80 7723 9 b fffc092a 8 23 1e
FIXUPS: 1b50 1d 1e 25 22 8 26 1d 1e 18 7 3da97 4e 1b 3a a 13 5b 11 11 c
FIXUPS: 3f849 23 1a 1d fffc1ee3 7 f 7 1e 7 f 7 29 7 3b 1e 10 1e 13 f 21
FIXUPS: 18e3 1b b 14 23 b 1b b 14 5f 8b b 19 c f fffffaaf 7 f 7 26 7 f
FIXUPS: 15bd f 7 7 f 7 7 f 7 7 32 20 7 43 5 1e 31 7 f 7 f 7 d 10 10 fffffba7
FIXUPS: 131e 1f 1e 37 1d 12 f 7 f 7 f 7 f 7 f 7 f 7 7 f 7 7 f 7 7 3b 2c
FIXUPS: 150b 10 1e 15 add e 7 f 3f1f5 b fffc0e31 ffffefae 12 12 40112 c
FIXUPS: 4117b fffbff25 13 2d 4a 9 3d 42 f f 3ffb4 c b fffc0065 13 31 15
FIXUPS: 1270 18 65 3ff03 fffc0bb0 13 4c f f 3f3e7 c b fffc0c39 81 8 1b
FIXUPS: 1f04 7 b 19 b e 14 f 7 d 7 16 3f288 b fffc0db6 18 f 8 10 119e 1d
FIXUPS: 31e8 8 13 46 a f 3e072 b fffc1fd8 a4 f 1b 3df6f 1a b fffc2097 20
FIXUPS: 33f0 20 28 e ffffe8cf f f 1c 18 3f45d 9 c c fffc1c3b 24 16 8c 14
FIXUPS: 2f0c 12 12 1a 23 d 23 b 23 ba 1e 13 27 10 10 10 f 9 8 13 1d 9 8
FIXUPS: 3181 1d 9 8 fffff64b 1f 23 24 23 b 19 19 23 19 1b 1f 29 19 1b 1f
FIXUPS: 2a07 1b 136 25 24 16 8c b 25 23 16 8c b 21 8c b fffff7e2 f 36 b
FIXUPS: 263c 16 c f 3ebf7 9 9 c c c c c c b fffc13d7 1e 13 1e 10 1e 33
FIXUPS: 2763 13 13 27 23 b a fffffb1d d d d d d a 9 15 12 25 f e b 6 25
FIXUPS: 2439 20 f 20 f 20 f 20 16 36 b f 36 b f 36 3eddf fffc26b4 16 c
FIXUPS: 3a8f e d 7 13 7 f 3d8ea b fffc0cda 67 13 2d 24 84 5 1e 18 10 10
FIXUPS: 2263 1c f c 16 8 19 25 3f087 b fffc24a6 e 10 7 e 7 3d 18 8 e e
FIXUPS: 38f8 12 13 16 1f c 18 15 f 13 16 1f c 18 8 f 3d977 9 9 fffc220c
FIXUPS: 35c1 f 3dd84 c b fffc2299 15 7c 5 1e 2c e 12 15 e c 12 18 e 10
FIXUPS: 3782 10 e c 7 d 7 13 7 16 3db7d fffc8432 381be c f f f b fffc7e42
FIXUPS: 97f9 f 381ac b fffc7e71 4f 2b 39 32 24 f 7d ae 20 ffff9a3b 12 12
FIXUPS: 351d 3de07 c f b fffc2206 13 5b90 1e 1a 12 48 41 f b 56 14d 57
FIXUPS: 940d 190 2c 12 1a a 66 25 17 7 27 12 38256 c c b fffc7df8 12 12
FIXUPS: 9788 f fffff791 7 7 8 12 f 8 c d 7 1e 18 8 9 d 7 1e 18 8 9 c d
FIXUPS: 9051 388a3 9 9 9 9 b fffc7769 39 1e fffffc2d 19 c 21 7 7 8 c a
FIXUPS: 8d94 8 a 1c f 8 c d 7 1e 1d b 9 d 7 1e 1d b 9 c 14 19 c 38997 c
FIXUPS: 4189f c c b fffc7240 f 38dc3 b fffc7261 23 10 f d b 12 d 2c b 10
FIXUPS: 8c0f d b 12 d f 30 1e 10 1e 13 fffffbf5 19 34 22 1c 24 d 11 7 c
FIXUPS: 89cb 21 c f 25 f f 8 d f f f f 12 38d7a c c c c c c c fffc6ce8
FIXUPS: 856e d f f f f f f f 12 19 5b 46 42 30 1f 1c 26 29 e 28 41 c a
FIXUPS: 8857 a 1e a 1e a 1e fffff933 25 19 11 2e 15 1f 21 c 15 15 b 1f
FIXUPS: 834a b 2d a 30 a 27 a 21 21 a 6a b 15 22 20 20 1f f fffffa06 d
FIXUPS: 7f7e 10 14 39822 9 9 9 9 9 9 9 9 b fffc67c9 2c 32 b 1e 10 1e 37
FIXUPS: 812c 1c b 12 23 e 16 28 f fffffb6c c f 18 18 c f 14 c 14 c 8 35
FIXUPS: 7e3f e 10 12 d e 10 12 d e 10 12 d e 10 12 d e 10 fffffbe2 e 12
FIXUPS: 7b65 9 e 12 12 9 e 12 12 9 e 11 f 1d 18 c f 14 c 14 c 14 c 14 c
FIXUPS: 7cf6 c 14 21 fffffbd7 13 b 13 b 13 b 13 1c b 13 8 16 19 c 1a 13
FIXUPS: 7a34 15 13 c 8 32 12 9 e 12 12 9 e 12 12 39c38 fffc5f16 12 20 3a0cd
FIXUPS: 41782 fffc5f70 12 f f 3a072 c f b fffc5f93 1e 13 1f 1e 13 37 1e
FIXUPS: 7839 19 21 1e 1a 18 13 f b 13 fffff9ae 20 3a443 b fffc5c13 1e 10
FIXUPS: 737e 13 14 b 42 4b 1d 2b 3a2af b fffc5db1 f a 1e a 1e a 1e a 1e
FIXUPS: 75a9 19 43 19 3a139 fffc593b b 14 b e 7 b 14 b e 7 8 7 17 7 21
FIXUPS: 7187 b e 7 10 1c e 1c e 32 7 b e 1c e 1c fffffa2b d 73 9 5e 9 2e
FIXUPS: 6df8 e 25 c 2d 2f 2f 1e 38 2b 3c 10 3a766 b fffc58d5 1e 13 20 b
FIXUPS: 703d 19 7 17 7 10 fffff869 22 b 14 b 14 2c 1b 18 8 d f 3accd b
FIXUPS: 6a15 14 34 1e 26 a1 42 12 f 44 f 22 3aaaa b fffc5583 51 8 c fffff94d
FIXUPS: 661e 7 7 8 e 4a 37 a 27 13 c f 3af42 9 9 c b fffc50f5 1e 10 1e
FIXUPS: 6815 1b 8 14 19 15 1e 13 a 1c fffff95d 10 1e 13 66 12 12 9 24 12
FIXUPS: 636d 8 e 35 16 18 16 e 58 4c 42 2a 19 16 20 23 b f a 20 19 c fffff95b
FIXUPS: 5f90 1e 35 1d 12 15 9 14 18 12 35 e 1c 1c 8 f 22 19 c f 17 c 10
FIXUPS: 619f 1e 3b467 9 9 c b fffc4bc3 fffffa30 2b e a 2f f c 12 3a 1e
FIXUPS: 5d4a f 3b81b 9 9 c c c c b fffc47df 40 f2 12 12 19 f 3b6b6 16 f
FIXUPS: 41608 b fffc43c7 15 25 1e 9 15 1c 16 8 8 a 20 25 a f f 12 25 a
FIXUPS: 5b5c f b a a 18 e a 2b e a 2b e fffffa83 c b 2c 16 18 16 8 b b
FIXUPS: 5769 b b b b b b 72 15 b b 8 b 85 34 2c b 15 15 3bbdf b fffc445d
FIXUPS: 531a b b b b b b 72 15 b 2c 16 18 16 8 b b 8 b 85 34 2c b 15 3bfb2
FIXUPS: 55e0 1e 10 1e 75 8 9 fffff94f 56 20 8 f 17 39 2d 12 c 12 2c e 10
FIXUPS: 519f f 10 f c 3c32c 9 9 c b fffc3cfb 1e 10 1e 75 f b b fffff8dd
FIXUPS: 4bf7 11 40 13 ae b b 23 b 6f 25 1a b c 3e c 3c68a fffc39df 1e 13
FIXUPS: 4efe f 26 21 7 7 d 2f 1b 16 1a fffff7ea e 1d 16 18 16 8 e 5e 4b
FIXUPS: 4973 4b 32 f 3caa5 9 9 b fffc3585 1e 18 f b c 1a 3ca1a fffc3643
FIXUPS: 4b37 10 1e 39 2c fffff85e 19 e 11 3c 39 16 1d b a 17 15 f 3cf1c
FIXUPS: 4147d 9 b fffc310f 1e 10 1e c9 32 c 8 40 25 c c 1a 15 16 fffff971
FIXUPS: 413b d d d d 2a c f 10 d d d d d d d d 3d228 b fffc2e21 9 43 60
FIXUPS: 4337 1b 37 1e 13 15 2f 15 fffff7e6 3d80b c b fffc2905 13 2d 4a
FIXUPS: 3db3 3d 20 13 ec f f 3d4f7 c f b fffc2b96 20 24 3e 1e 13 8 25 e
FIXUPS: 40e3 19 18 d 8391 10 39 8e 7 7 7 7 7 6 6 7 7 60 7 7 7 7 7 6 6 7
FIXUPS: c663 1d e e ffff747f 18 3d8b9 b fffc27de 12 7511 bf 8 18 8 1a1
FIXUPS: b3a1 4ec 39 74 34 1c 3f 4d 23c 1b 3f 4d 6c 18 bc 1c 3f 4d 14c 1c
FIXUPS: c088 4d 34b 16 33 10 ffffdfe8 12 f d9 30 93 41 2a 26 7b 41 27 19
FIXUPS: a7dc 7b 41 27 19 1f 3f 32 22 13 2c 107 196 27 1b0 bf 8 18 8 ffffefe6
FIXUPS: 9f1c 39 37abf 16 f f f b fffc8574 f 37a8f b fffc85b7 f 37a4f b
FIXUPS: a096 f 37a0f b fffc8621 80 13 2a 1e 50 2b 11a 26 26 35 43a2 7 ffffb361
FIXUPS: 9af9 37ee3 b fffc8193 2a 1d 31 46 18 37dac b fffc8299 30 13 67
FIXUPS: 9d74 1e 2e 38 7 7 7 26 7 7 7 7d 21 12 46b6 7 f 7 f 7 f 7 f 7 f
FIXUPS: e623 f 7 2c 7 14 14 7 11 7 16 14 7 11 7 13 14 7 11 7 21 fffffc00
FIXUPS: e381 18 13 18 16 18 a 18 4d b 12 13 1f f 33885 9 b fffcc7a9 7 f
FIXUPS: e51e f 7 f 7 f 7 f 7 f 7 fffffa7d 59 33c92 1a e fffcc38d 16 13
FIXUPS: e0e5 43 10 14 19 15 1e 13 22 8 f 33b40 b fffcc536 1e 16 b 19 17
FIXUPS: e2e8 f 6 36 12 33992 b fffcbf93 1e 15 d 1e 15 d d 1e 18 2d 7 39
FIXUPS: ddc3 10 1e 13 14 1e 13 e 28 34 4f 26 26 26 4e f 29 fffffa23 16
FIXUPS: da5b f 1f 28 19 11 1b 21 e f 25 21 c f 1b 2b b f f f f 12 34043
FIXUPS: 41c83 c c c c c c fffcb99e 14 f 6 32 12 37 d 64 344d6 b fffcbb71
FIXUPS: d7f0 18 18 d 1e 15 d 1e 15 d d 1e 18 45 1e 60 1c b 12 23 fffff93b
FIXUPS: d3c7 8 7 1f 13 7 12 7 14 13 7 7d 7 14 e 1d c f 346d0 9 c 1d b fffcb957
FIXUPS: d5a8 7 32 37 12 b 1c fffffb25 349e1 c c c c c c c c c c 1d b fffcb5be
FIXUPS: d1d3 13 f 15 16 15 17 7 11 11 c c 32 b 15 17 1e fffff939 f 15 28
FIXUPS: ccba c f 1b 2b 3d e f d 24 2f 8b 3c e c c 3e e 15 17 1e 10b f 10
FIXUPS: d129 f 1d f 349a7 fffcadc9 15 96 12 12 35174 b fffcaed0 f f 35124
FIXUPS: 41b40 b fffcaf0a 1e 60 1c b 12 23 e 16 28 f 1f 28 19 11 11 12 21
FIXUPS: f36a e 39 2a 1f f f 329bc b fffcd67f 18 27 18 1c 16 16 10 328e7
FIXUPS: 41dff fffca91f 12 18 3538c c b fffcad35 13 58 f f 3524b c 294 9
FIXUPS: 41da8 fffcd12e 46 28 43 24 2f 25 32 20 2c 1e 55 28 43 24 20 6d
FIXUPS: f22c 3c 18 18 18 1c 16 16 10 32aac b fffcd596 fffff89c 12 12 10
FIXUPS: ec5a 2c 18 18 18 e b 47 19 c 8 10 15 16 b 12 12 16 b 12 12 16 b
FIXUPS: ee3d 30 b e 16 fffff9e6 28 26 33494 c f b fffccba6 13 31 15 17
FIXUPS: ea58 10 10 10 10 10 10 10 10 13 13 13 10 10 26 12 12 12 10 1a 10dd
FIXUPS: fca0 f 32225 9 b fffcd676 12 328a4 b fffcd7d1 13 4c f 327d6 b fffcd855
FIXUPS: f6a9 15 15 15 15 63 5 1e 1f 2b 1e 15 8 fffff056 12 1187 e 13 3247c
FIXUPS: 41e9f fffcdbc7 8 d 1a b 30 1e 27 b 8 11 21 c f 3233f 9 b fffcdcf4
FIXUPS: fbcd a 1a b 30 c 15 28 10 2f38 c 9 19 7 19 c 15 f 2f6c9 9 9 9 9
FIXUPS: 42331 b fffd0935 1a ffffcbba 12 b 325f2 b fffcda41 13 55 f 3255d
FIXUPS: 41e7f fffcdb05 46 9 2fac 1e 13 3a f 8 e 8 18 14 b e c b 17 b 14
FIXUPS: 12ab1 f 21 f 8 14 c b 1c 14 7 19 c d 1e fffffab9 b d 12 10 26 30
FIXUPS: 12713 25 18 18 f 1e c 2faf3 c c 1a b fffd0503 2c 13 2d 24 84 f
FIXUPS: 12906 2f9de b fffd065d 5 1e fffffaad 7 9 8 19 1a 7 7 f 7 7 f 7
FIXUPS: 124af f 7 7 26 7 7 f 7 7 f 7 7 68 4a 11 1f 28 f fffffc5c 7 7 f
FIXUPS: 122d3 7 f 7 7 f 7 7 f 7 7 f 7 7 f 7 7 17 19 1a 7 7 f 7 7 e 7 8
FIXUPS: 1210e 11 7 8 1f 7 9 23 19 1a 7 7 f 7 7 f 7 7 f 7 7 f 7 7 f 7 7
FIXUPS: 12261 7 7 d 19 fffffa49 2e 32 2e 32 2e 32 2e 30 32 2e 32 2e 32
FIXUPS: 11f7c 32 1f 1e 1f 1b 18 a 18 17 7 33 19 1a 7 7 f 7 fffff763 52
FIXUPS: 118cf f 30936 b fffcf70b 52 13 f 30896 b fffcf7ab 52 13 f 307f6
FIXUPS: 4225f fffcf84b 52 13 f 30756 b fffcf8dd 32 2e 32 2e 32 30 2e fffff6d0
FIXUPS: 113ae 2e 32 2e 32 3c 52 13 f 30c96 b fffcf3ab 52 13 f 30bf6 b fffcf43d
FIXUPS: 1164e 2e 32 3c 52 13 f 30a96 b fffcf59d 32 2e 32 fffff73c 52 13
FIXUPS: 10fde 31136 b fffcef0b 52 13 f 31096 b fffcefab 52 13 f 30ff6 b
FIXUPS: 111aa 52 13 f 30f56 b fffcf0eb 52 13 f 30eb6 b fffcf17d 32 30d06
FIXUPS: 4205f fffceb4b 52 13 f 31456 b fffcebeb 52 13 f 313b6 b fffcec8b
FIXUPS: 10d7c 13 f 31316 b fffced2b 52 13 f 31276 b fffcedcb 52 13 f 311d6
FIXUPS: 420ff fffce826 11 7 c b c 5a f f 31590 1d 9 c c c c c c c c c c
FIXUPS: 42012 c c c b fffcea67 42 52 13 f fffffb1c 63 21 6 f 19 f f f 1f
FIXUPS: 10799 6 f 19 f f f 1f 21 6 f 19 f f f 18 b 2d 1c 7 c b fffff865
FIXUPS: 101b3 3a 8 13 c 1d 52 1c ba 29 29 29 f f f 2b 3a 21 6 f 19 f f
FIXUPS: 104e2 1a d6 29 29 29 f f 2835 24 40 ffffce53 15 32188 b fffcdf81
FIXUPS: fed6 f 3202f b fffce041 13 4f f 31f63 b fffce0bb 5 20 20 20 38
FIXUPS: 1009f 12 f d a 21 35 3a 4184 f 4f 12 12 2e0aa b fffd1f9d f 2e066
FIXUPS: 4243f fffd0b81 50 13 36 86 a 1e 11 30 19 2e fffffb39 18 2f66c b
FIXUPS: 12db0 30 13 36 27 30 11b7 42 18 7 f 57 18 19 13 18 7 8 f f 2e24d
FIXUPS: 423df fffd1dff 18 19 13 18 7 8 f f 2e18d b fffd1eaa 18 7 f d fffffa92
FIXUPS: 13d7d 12 11 7 f 7 12 3a 18 7 11 40 18 7 14 3d 18 7 18 7 10 11 7
FIXUPS: 13f5f 3a 18 7 f 42 18 7 fffff9f0 7 12 38 18 7 11 40 18 7 14 3d
FIXUPS: 13b82 e 15 26 e 15 26 e 15 2f e 12 2f e 14 52 18 7 18 7 fffffaf4
FIXUPS: 13862 14 15 e c e e 7 1e 7 16 2eaa1 9 9 b fffd1588 18 7 18 7 f
FIXUPS: 1399d f 7 d 7 14 11 7 f 7 fffffca6 7 11 7 f 7 f 7 e e 7 e 13 7
FIXUPS: 13754 7 11 7 f 7 e e 7 e e 7 8 19 19 c 1a e fffffccc 12 c 1c 7
FIXUPS: 13559 7 f 7 f 7 11 7 f 7 f 7 f 7 f 7 10 1f e 7 10 11 7 1b 7 f 7
FIXUPS: 131f2 12 2d 13 1b 2f105 c f f b fffd0f27 13 31 15 17 18 15 17 15
FIXUPS: 13405 5 1e 10 1e 2c 1b 1e e 7 10 11 7 228e 3e 42 3e 42 3e 42 50
FIXUPS: 1598b 30 30 30 45 44 42 4e 37 39 40 4c 4c 40 40 38 42 3c 4e 4e
FIXUPS: 15e8e 30 ffffd310 12 1f08 35 2b 35 2b 31 2f 35 2b 31 2f 31 2f 31
FIXUPS: 15388 31 2f 31 2f 31 45 2f 2e 30 30 43 46 3e 40 42 42 3e fffff3a4
FIXUPS: 14b19 2f 31 2f 31 2f 31 2f 31 2f 31 2f 31 2f 31 2f 31 2f 31 2f
FIXUPS: 14edd 2b 35 2b 32 2e 32 2e 35 2b 35 fffff5a2 15 2de30 17 b fffd21e3
FIXUPS: 146d8 31 2f 31 2f 31 2f 31 2f 31 2f 31 43 17 c 15 2db70 17 b fffd24a3
FIXUPS: 149c8 31 2f 31 2f 31 2daab 17 b fffd44dc 39 46 3a 3d 42 3a 3e 71
FIXUPS: 16cc8 44 ffffd705 18 2e02c b fffd2058 31 2f 31 43 17 c 15 2deb0
FIXUPS: 4248b b fffd2163 43 17 1f09 39 47 39 42 3e 47 31 2e 3a 42 45 1c
FIXUPS: 16827 14 2bcc9 17 b fffd435c 3b 3f 24 f 15 2bbf0 17 b fffd4436
FIXUPS: 169cc 23 f 15 fffff4d5 31 2f 31 2f 32 2e 31 2f 31 2f 31 2f 31 2f
FIXUPS: 161b9 2f 31 2f 31 2f 31 2f 31 3f 33 30 3a 47 39 47 39 e31 39 12
FIXUPS: 173c1 1b 2b 10 16 2b1c7 1a b fffd4e88 57 fffff849 18 2b83c b fffd4848
FIXUPS: 16e1a 2e 31 2f 31 2f 31 2f 31 2f 31 32 30 33 a3e 2abd8 c f f f
FIXUPS: 426ec f f b fffd49b0 12 2d 2b4b0 b fffd4bc1 13 9c f 2b396 b fffd4ca6
FIXUPS: 1728d e 7 8 9 28 9 10 1c 1f 3e7 7 2af07 b fffd5136 1e 13 68 4d
FIXUPS: 17859 12 2addc b fffd5280 1e 58 20 2acff b fffd535b 12 12 2ac96
FIXUPS: 42692 fffd53b0 12 12 12 12 12 12 f 26e 9 10 1c 22 17 39 12 30 1b
FIXUPS: 17e5a 10 16 2a8e4 1a b fffd5768 57 fffff5e1 37 13 2d 24 6c 35 5
FIXUPS: 17688 35 e f 26 7 d49 f 18 f a f 10 12 10 f 18 f a f 10 fffff5e5
FIXUPS: 17b27 2d 2abd0 b fffd54a1 13 9c f 2aab6 b fffd5586 8 e 7 8 9 2aadd
FIXUPS: 427ef f b fffd594b 15 67 8b 17 17 17 17 17 8 f 18 f a f 10 40 7
FIXUPS: 18387 35 10 f 18 f a f 10 15 33e7 22 1c f 27390 b fffd8d0a 7 1d
FIXUPS: 1b944 15 7 1c 7 ffffc60b 12 14 14 14 2a7b8 c f f b fffd58b7 13
FIXUPS: 180e2 12 12 f f 2a6b0 fffd8d63 f 1f e 30 f 11 11 2f 2b 1e 42 21
FIXUPS: 1b6e4 f f f 12 27444 c c c c c c c c b fffd8ba0 f 27463 b fffd84eb
FIXUPS: 1b11d 7 1c 7 13 7 1d 7 49 7 1c 7 13 7 1d 7 67 1e b5 30 48 19 10
FIXUPS: 1b42f 60 1c b 12 23 e 16 fffff7f6 59 13 f 27dc4 b fffd8273 18 a
FIXUPS: 1adfc 36 18 a 18 36 18 a 18 36 18 a 18 36 18 a 18 2c 1c 22 37 1e
FIXUPS: 1b0d2 fffff7ef 1e 4b 1b 1e f f f 11 f f f 26 f f 1e 7 29 7 29 7
FIXUPS: 1aa9e 52 1e 37 5b 1e 62 1e 37 3b 1e fffff9a1 3f 1b f f d 24 30
FIXUPS: 1a761 11 14 1f 3e 14 35 21 f f 12 2823a c c c c c c c c c c b fffd7d82
FIXUPS: 42a8f c b fffd7863 1e 37 60 1c b 12 23 e 16 28 f 1f 25 c c 15 19
FIXUPS: 1a513 16 15 18 14 23 1e 4b 24 e 29 fffffa36 21 a 21 17 7 2f 2b
FIXUPS: 1a189 12 2b f 12 21 35 1c 7 12 7 f f 12 2876e c c c c c c c c c
FIXUPS: 19d6d 35 15 28 9 15 24 20 2c f 22 28 f 10 12 2b f 15 1c 7 12 7
FIXUPS: 19f91 f 19 9 15 24 2d 19 11 11 fffff926 18 17 7 16 1e 4c 28fb5
FIXUPS: 429ff fffd708b 4b 1e 60 1c b 12 23 e 16 28 f 1f 3c 19 1b 13 21
FIXUPS: 19cd7 21 17 7 36 28c7e fffd6c86 9 a 18 14 9 a 18 26 9 a 18 14 9
FIXUPS: 19732 18 4d 18 1a 18 17 7 16 1e 56 2914b b fffd6f0b 1e 4f 18 fffff977
FIXUPS: 1931c 18 a 18 36 18 a 18 36 18 a 18 3c 1e 1f 9 15 4b c 31 c 13
FIXUPS: 19587 c 2e 15 24 293aa 9 9 9 fffd6560 39 13 12 c 11 9 47 18 9 47
FIXUPS: 19080 24 34 1c 22 60 12 12 297ed b fffd683a 18 a 18 36 18 a 18
FIXUPS: 192ac 18 a fffff996 20 12 d 1e 19 39 37 1c 13 27 13 1d 12 12 12
FIXUPS: 18e18 13 7 1d 7 13 7 1c 7 13 13 e 15 13 d 16 fffff97e 1b0 13 2d
FIXUPS: 18acb 12 12 12 12 12 12 12 12 12 f 29d68 f f f f f f f f f b fffd623e
FIXUPS: 18be7 17 13 27 19 3a4c 1e ffffbf00 18 2a249 b fffd5e8e 15 12 12
FIXUPS: 18700 12 12 12 12 12 12 60 a 2a05e f f f f f f f f f f b fffd5f3b
FIXUPS: 1c2c1 38 f 1e 7 3e 25 19 f 2695c b fffd96c1 1d 1e 3d 1c 17 1c 14
FIXUPS: 1c4d7 14 1c 32 19 17 19 14 19 14 19 41 1e fffffa34 e 16 28 f 1f
FIXUPS: 1c10e 19 11 1b 2b f 12 2b f e e f f 12 26a92 c c c c c c b fffd9558
FIXUPS: 1c280 13 27 fffffb06 f 8 8 a 26e8b 9 9 9 9 9 b fffd9179 7 49 7
FIXUPS: 1bece 7 17 7 17 7 2d 7 17 7 32 1e 60 1c b 12 fffff9dc 271fc c f
FIXUPS: 42c4e f b fffd8e08 13 31 15 17 78 5 1e 22 58 7 2a 17 37 e f 1c
FIXUPS: 1bcb4 2a 17 37 e f 34 f 1115 7 1c 35 18 7 19 38 18 7 1c 35 41 e
FIXUPS: 1d045 2e e 1d 2e e 1d 37 e 1a 37 e 14 ffffe81f 12 12 12 12 1148
FIXUPS: 1cb6d 7 f 7 39 7 f 7 11 7 f 7 3b 18 7 1e 2c 47 18 7 26 7 1c 2c
FIXUPS: 1cdb5 7 5d 18 7 19 38 fffffaab 7 18 11 7 11 1a c 1b 7 21 7 f 7
FIXUPS: 1ca2a e 7 18 11 7 18 14 7 21 7 49 7 f 7 f 7 11 1d04 53 24 23 7
FIXUPS: 1e90f 7 11 7 a 2d 7 13 7 11 7 a ffffdd96 12 47 2659d c b fffd9a95
FIXUPS: 1c7f3 31 15 67 1a 7 3f 26 1c17 12 24938 c c c c c c b fffdb6a3
FIXUPS: 1e59b 3d 1c 17 1c 14 1c 14 1c 32 1c 17 1c 14 1c 14 1c 45 1e 53
FIXUPS: 1e83d fffff9d4 a 33 7 17 7 a 38 1e 60 1c b 12 23 e 16 28 f 1f 25
FIXUPS: 1e447 11 1b 2b f 12 2b f e e a f fffffa0b 19 18 8 18 17 7 c 7 18
FIXUPS: 1dfdb 12 24e77 b fffdb1b3 20 20 20 20 20 20 23 7 30 29 7 30 32
FIXUPS: 1e1d5 17 7 17 fffffa2d 1e 15 d 11 7 1c 7 75 20 d 8 d d b b 10 14
FIXUPS: 1ddbd a d c b 15 2b 7 38 f 1e 7 3e 25 fffffb02 33 7 f 7 11 7 f
FIXUPS: 1da81 21 7 f 7 11 7 f 7 21 21 22 7 f 7 8 8 f 7 f 7 18 47 1e fffffb3e
FIXUPS: 1d771 c b 7c 7 2a e f 1c 7 2a e f 34 f 3a f 8 8 a 254c2 9 9 9 9
FIXUPS: 42e53 fffdab3d 5 1e 10 1e 25401 f f f b fffda6ca 18 17 18 1a 18
FIXUPS: 1d577 17 7b 1e 10 1e 1a b 23 d 1c d 8 f b 17 b 14 8 b 18 2267 25
FIXUPS: 1fa02 20 20 20 ffffd7a9 18 25b39 b fffda565 15 12 12 12 12 25a4b
FIXUPS: 42d83 f f f b fffda5f5 13 9a 12 12 12 12 f 25910 f fffdc9a0 28
FIXUPS: 1f7aa 1f 25 19 11 17 21 e f 15 23 f 12 23751 c c c c c b fffdc8a4
FIXUPS: 1f920 13 18 f 1b f 236f0 b fffdc933 fffffb0d 12 8 17 8 17 8 17
FIXUPS: 1f536 17 c b 33 19 18 8 18 17 7 c 7 18 8 239cd fffdc66f 1e 60 1c
FIXUPS: 1f71a 12 23 e fffffac5 12 23d93 b fffdc2ad f 23d56 b fffdc2d3 23
FIXUPS: 1f2ec 13 7 11 7 a 41 1e 10 1e 15 36 29 b 11 12 f b 11 12 f b fffffab6
FIXUPS: 1ef6c d 17 b 14 2d 1a c c c b 17 23f48 9 b fffdc0d8 5 1e 10 1e
FIXUPS: 1f0f5 17 17 17 57 12 12 23df2 b fffdc24f 12 fffffaa5 17 7a 1e 10
FIXUPS: 1ed95 1a f d 17 b 14 8 d 17 b 14 8 d 17 b d 26 d 1f d 1f d 8 d
FIXUPS: 1ef45 b 1b42 20 ffffdf39 18 244e9 b fffdbbb5 15 12 12 12 2440d
FIXUPS: 42f13 f f b fffdbc34 13 58 12 12 12 f 24324 f f f b fffdbcd8 18
FIXUPS: 1ec83 1d 1b9e 19 11 17 21 e f 15 23 f 12 22891 c c c c c b fffdd764
FIXUPS: 20970 13 18 f 1b f 22830 b fffdd7f3 b 25 20 20 fffffad6 17 8 17
FIXUPS: 20586 17 c b 33 19 18 8 18 17 7 c 7 18 8 22b0d fffdd52f 1e 60 1c
FIXUPS: 2076a 12 23 e 16 28 f 1f fffffab9 12 22e93 b fffdd190 23 7 13 7
FIXUPS: 20367 7 a 41 1e 10 1e 15 36 29 b 11 12 f b 11 12 f b 11 12 8 17
FIXUPS: 20014 8 d 17 b 14 2d 1a c c c b 17 23048 9 b fffdcfd8 5 1e 10 1e
FIXUPS: 201a5 17 17 17 57 12 12 22ef2 b fffdd14f 12 fffffaa5 17 7a 1e 10
FIXUPS: 1fe45 1a f d 17 b 14 8 d 17 b 14 8 d 17 b d 26 d 1f d 1f d 8 d
FIXUPS: 1fff5 b 1b12 20 ffffdf69 18 235e9 b fffdcab5 15 12 12 12 2350d
FIXUPS: 430c3 f f b fffdcb34 13 58 12 12 12 f 23424 f f f b fffdcbd8 18
FIXUPS: 1fd33 1d 1b5a 1f 25 19 11 17 21 e f 15 23 f 12 21971 c c c c c
FIXUPS: 4337e fffde684 1e 13 18 f 1b f 21910 b fffde713 20 20 fffffae7
FIXUPS: 215f0 8 17 8 17 8 17 c b 33 19 18 8 18 17 7 c 7 18 8 21bed fffde44f
FIXUPS: 21793 60 1c b 12 23 e 16 28 fffffac6 12 f 12 21f73 b fffde0b0 23
FIXUPS: 213ec 13 7 11 7 a 41 1e 10 1e 15 36 29 b 11 12 f b 11 12 f b 11
FIXUPS: 215d1 fffffae2 b 14 8 d 17 b 14 2d 1a c c c b 17 2211a 9 b fffddef8
FIXUPS: 211d5 1e 10 1e 34 17 17 17 57 12 12 21fd2 b fffddb57 1e 10 1e 34
FIXUPS: 20ee0 17 17 f f d 17 b 14 8 d 17 b 14 8 d 17 b d 26 d 1f d 1f d
FIXUPS: 21091 d fffffa4d 18 22729 b fffdd975 15 12 12 12 2264d f f f b
FIXUPS: 20c70 13 58 12 12 12 f 22564 f f f b fffdda98 18 17 1d 18 17 1b3f
FIXUPS: 22927 11 17 21 e f 15 23 f 12 20ae1 c c c c c b fffdf514 1e 13
FIXUPS: 22a6b f 1b f 20a80 b fffdf5a3 20 20 20 20 fffffac6 17 8 17 8 17
FIXUPS: 22679 b 33 19 18 8 18 17 7 c 7 18 8 20d5d fffdf2df 1e 60 1c b 12
FIXUPS: 2286f e 16 28 f 1f fffffab9 12 210e3 b fffdef40 23 7 13 7 11 7
FIXUPS: 22448 41 1e 10 1e 15 36 29 b 11 12 f b 11 12 f b 11 12 8 17 fffffad4
FIXUPS: 220ec d 17 b 14 2d 1a c c c b 17 21298 9 b fffded88 5 1e 10 1e
FIXUPS: 22275 17 17 17 57 12 12 21142 b fffdeeff 12 fffffaa5 17 7a 1e 10
FIXUPS: 21f15 1a f d 17 b 14 8 d 17 b 14 8 d 17 b d 26 d 1f d 1f d 8 d
FIXUPS: 220c5 b 1a82 20 ffffdff9 18 21839 b fffde865 15 12 12 12 2175d
FIXUPS: 433e3 f f b fffde8e4 13 58 12 12 12 f 21674 f f f b fffde988 18
FIXUPS: 21e03 1d 1aca 1f 25 19 11 17 21 e f 15 23 f 12 1fc51 c c c c c
FIXUPS: 4369e fffe03a4 1e 13 18 f 1b f 1fbf0 b fffe0433 20 20 fffffae7
FIXUPS: 23630 8 17 8 17 8 17 c b 33 19 18 8 18 17 7 c 7 18 8 1fecd fffe016f
FIXUPS: 237d3 60 1c b 12 23 e 16 28 fffffac6 12 f 12 20253 b fffdfdd0 23
FIXUPS: 2342c 13 7 11 7 a 41 1e 10 1e 15 36 29 b 11 12 f b 11 12 f b 11
FIXUPS: 23611 fffffad4 b 14 8 d 17 b 14 2d 1a c c c b 17 20408 9 b fffdfc18
FIXUPS: 23215 1e 10 1e 34 17 17 17 57 12 12 202b2 b fffdf811 1d 18 17 7a
FIXUPS: 22f07 10 1e 1a f d 17 b 14 8 d 17 b 14 8 d 17 b d 26 d 1f d 1f
FIXUPS: 230bb 8 d 1a62 20 20 20 ffffdff9 18 209a9 b fffdf6f5 15 12 12 12
FIXUPS: 43564 f f f b fffdf774 13 58 12 12 12 f 207e4 f f f b fffdf818
FIXUPS: 22e0c 1ac7 28 f 1f 25 19 11 17 21 e f 15 23 f 12 1edc1 c c c c
FIXUPS: 43823 b fffe1234 1e 13 18 f 1b f 1ed60 b fffe12c3 fffffb0d 12 8
FIXUPS: 24650 8 17 8 17 8 17 c b 33 19 18 8 18 17 7 c 7 18 8 1f03d fffe0fff
FIXUPS: 247f3 60 1c b 12 23 e 1eeda b fffe0c1f 12 f 12 1f3c3 b fffe0c60
FIXUPS: 24445 7 13 7 11 7 a 41 1e 10 1e 15 36 29 b 11 12 f b 11 12 f b
FIXUPS: 240e3 d 15 b 14 8 d 17 b 14 2d 1a c c c b 17 1f578 9 b fffe0aa8
FIXUPS: 24235 1e 10 1e 34 17 17 17 57 12 12 fffffa9f 18 17 1d 18 17 7a
FIXUPS: 23f27 10 1e 1a f d 17 b 14 8 d 17 b 14 8 d 17 b d 26 d 1f d 1f
FIXUPS: 240db 1f904 fffe2153 20 20 20 20 ffffdff9 18 1fb19 b fffe0585 15
FIXUPS: 23c93 12 12 1fa3d f f f b fffe0604 13 58 12 12 12 f 1f954 f f f
FIXUPS: 4376c fffe2163 e 16 28 f 1f 25 19 11 17 21 e f 15 23 f 12 1df31
FIXUPS: 43983 c c c c b fffe20c4 1e 13 18 f 1b f 1ded0 fffe1c4f b 11 12
FIXUPS: 25659 17 8 17 8 17 8 17 c b 33 19 18 8 18 17 7 c 7 18 8 1e1ad fffe1e8f
FIXUPS: 25813 60 1c b 12 fffffad7 12 1e592 b fffe1aaf 12 f 12 1e533 b fffe1af0
FIXUPS: 25465 7 13 7 11 7 a 41 1e 10 1e 15 36 29 b 11 12 f b 11 12 fffffada
FIXUPS: 250fb 8 d 15 b 14 8 d 17 b 14 2d 1a c c c b 17 1e6e8 9 b fffe1938
FIXUPS: 25255 1e 10 1e 34 17 17 17 57 1e580 b fffe1538 18 17 1d 18 17 7a
FIXUPS: 24f47 10 1e 1a f d 17 b 14 8 d 17 b 14 8 d 17 b d 26 d 1f d 1a55
FIXUPS: 43b64 b fffe2fe3 20 20 20 20 ffffdff9 18 1ec89 b fffe1415 15 12
FIXUPS: 24cc5 12 1ebad f f f b fffe1494 13 58 12 12 12 f 1eac4 f f fffe2fd8
FIXUPS: 268cc 23 e 16 28 f 1f 25 19 11 17 21 e f 15 23 f 12 1d0a1 c c c
FIXUPS: 43b37 c b fffe2f54 1e 13 18 f 1b fffffb0d 12 f b 11 12 8 17 8 17
FIXUPS: 266b7 17 8 17 c b 33 19 18 8 18 17 7 c 7 18 8 1d31d fffe2d1f 1e
FIXUPS: 26893 1c fffffa8b 57 12 12 1d702 b fffe293f 12 f 12 1d6a3 b fffe2980
FIXUPS: 26485 7 13 7 11 7 a 41 1e 10 1e 15 36 29 b 11 12 f b fffffad1 d
FIXUPS: 2610e d 8 d 15 b 14 8 d 17 b 14 2d 1a c c c b 17 1d858 9 b fffe27c8
FIXUPS: 26275 1e 10 1e 34 17 17 1d740 f f b fffe23c8 18 17 1d 18 17 7a
FIXUPS: 25f67 10 1e 1a f d 17 b 14 8 d 17 b 14 8 d 17 b d 26 d 1dc2e f
FIXUPS: 43d0f f f f b fffe33b6 1e 13 ffffeabd 18 1ddf9 b fffe22a5 15 12
FIXUPS: 25ce5 12 1dd1d f f f b fffe2324 13 58 12 12 12 f 1dc34 fffe34c3
FIXUPS: 26f28 12 12 11 12 12 11 1cc92 f f f f f f f f f b fffe3345 12 12
FIXUPS: 27031 12 12 12 12 12 f 1cc2a f f fffe3045 11 12 12 11 12 12 11
FIXUPS: 43b84 f f f f f f f f f b fffe31ca 13 4e 15 12 12 12 12 12 12 12
FIXUPS: 26ee6 1f 45e 13 17 b 14 c c b 1c9a5 b fffe36a7 1e 15 f 1a 8 1a
FIXUPS: 274b0 b 15 1c8c6 fffe2ebb 15 12 12 12 12 12 12 12 12 1f d89 1c346
FIXUPS: 43def fffe3ce5 15 fffffa2c 7f 1c810 b fffe3941 13 2d ef 1a fffff935
FIXUPS: 27180 1cbd4 b fffe3481 13 31 15 15 7b 5 1e 1f f 13 10 f 8 d3a 19
FIXUPS: 280b8 1b 2b f 12 2b f 12 21 e f f f 12 1bc7e c c c c c c c b fffe3b28
FIXUPS: 279f0 1c3d4 b fffe3c61 13 4c 1c3a5 b fffe3f81 a 7 1e 15 7 1e 13
FIXUPS: 27e44 8 c c c 7 c 7 42 e 3b 1e 60 1c b 12 23 e 16 28 f 1f c2e 8
FIXUPS: 28cc6 c a 2b f 1b1ce 9 b fffe3cc5 15 19 1c219 f b fffe3e12 13 82
FIXUPS: 27cca 1e 13 19 13 f 7 a 7 19 b e 16 d06 1e f 8 7 1e f 8 7 1e f
FIXUPS: 28b49 7 1b 13 f 8 7 19 7 1e d 7 1e d 7 1e 13 f 8 7 19 fffffc69
FIXUPS: 288f8 14 d 7 12 f 8 7 14 d 7 12 f 8 7 14 13 f 8 7 1e f 8 7 19 f
FIXUPS: 28a59 7 1e f 8 fffffc41 7 1e d 7 1e 13 b e 8 7 19 b e 14 12 16
FIXUPS: 43ec4 b fffe4943 1e 13 20 f c 8 7 1b 11 f 12 f fffffc25 8 7 1e
FIXUPS: 28546 e 8 7 1e b e 8 7 1e b e 8 7 1e b e 8 7 1b 13 b e 8 7 19 7
FIXUPS: 286c9 fffffc81 7 18 b e 8 7 1e 17 b e 8 7 1a 17 b e 8 7 14 13 b
FIXUPS: 28487 8 7 1e b e 8 7 19 b 1bb22 c c c c c c c 9 9 c c c c c c c
FIXUPS: 440e8 9 c c c c b fffe40dd 37 13 31 81 5 1e 13 20ce 22 1c b 1c
FIXUPS: 2a495 34 34 34 3b 2f f 12 32 f f f c c c c 11 e 15 f 19946 9 9
FIXUPS: 43ff2 c c c fffe5fb5 25 f 8 24 25 f 8 2f 8 2b 18 67 f 3f f 3f f
FIXUPS: 2a232 f 3f f 3f f 3f f 3c f 19 29 12 1b fffff88e 25 f 8 30 22 25
FIXUPS: 29d35 8 24 25 f 8 30 22 25 f 8 24 25 f 8 30 22 25 f 8 24 25 f 8
FIXUPS: 29fa9 fffff6e9 21b 1a 42 1e 10 1e 13 f b0 11 1c 11 1a 11 36 1a
FIXUPS: 29af6 d 22 25 f 8 24 25 f 8 30 22 25 f 8 fffff776 7 6 6 7 b b 40
FIXUPS: 29456 15 1ab19 16 b fffe54fb 13 5f f 1aa93 b fffe55d1 52 36 7 7
FIXUPS: 2962d 7 7 34 7 7 7 7 fffffbb5 7 7 7 7 7 7 7 7 7 7 6 6 7 ae 7 7
FIXUPS: 2935c 7 7 7 7 7 7 7 7 7 7 7 7 7 7 1ab79 fffe4fce 12 f 1b01e c b
FIXUPS: 28f60 13 4c f f 1af87 c b fffe50cf 2a 1e 2e 13 36 d 30 bb 7 7 7
FIXUPS: 2921d 7 7 7 7 1afcb 9 9 9 b fffe7918 16 f 2c 30 30 30 2e 8c f 34
FIXUPS: 2bd3d f 39 12 12 12 ffffcfa0 18 1b199 b fffe4ee3 2a 1e 46 18 1b08c
FIXUPS: 2b862 12 f 18905 20 f c c c c b fffe76be 72 b 56 6e 8 f 20 1c c
FIXUPS: 2ba62 b e 1c 1c c 12 b e 1e f fffff661 13 12 af 23 2d 4e 7 6e 2e
FIXUPS: 2b3c3 11 269 f 11 11 53 f 26 2b f 2e e e b 1d 1a 1d 20 1b 30 f
FIXUPS: 2aa7a f 10 c 2e c f 7 47 8 b 17 2e c 47 15 13 1c 26 20 a7 2a 47
FIXUPS: 2adfe 2a 8b 34 2d 24 12 1d 57 fffff79d 199d9 c b fffe6675 13 96
FIXUPS: 2a878 198dc c b fffe6739 15 a7 8 8 25 e 17 d d d d d d d 10 10
FIXUPS: 2aa42 d d f 1981a b fffe7e6d 38 17 c 22 7 8 b 34 7 65 14 11 43
FIXUPS: 2c2ab 10 10 f 14 f 2d f c f 17f50 9 b fffe80c8 ffffe37e 12 3ba5
FIXUPS: 2e2d3 13 18 8 1e 8 83 18 10 18 8 18 f 160e6 b fffe7906 12 1840d
FIXUPS: 4423f fffe7c21 13 6a 24 f 18344 c b fffe7d6d 18 31 3f 1ef5 1e 13
FIXUPS: 2df9e 8 1e 8 83 18 10 18 8 18 f 16406 b fffe9c36 1e 13 18 8 1e
FIXUPS: 2e17c 83 18 10 18 8 18 f 16276 b fffe96fe b 18 80 18 b 18 3d b
FIXUPS: 2dd21 16 b e f 16725 b fffe9916 1e 13 18 8 1e 8 83 18 10 18 8 18
FIXUPS: 2df0e 16596 b fffe9444 e 16 b e f 16b05 b fffe9536 1e 13 f 18 b
FIXUPS: 2da00 80 18 b 18 3d b e 16 b e f 16915 b fffe9726 1e 13 f fffff990
FIXUPS: 2d583 13 f 18 b 18 80 18 b 18 3d b e 16 b e f 16cf5 b fffe9346
FIXUPS: 2d793 13 f 18 b 18 80 18 b 18 3d fffffa7e d 7 13 11 8 13 11 8 13
FIXUPS: 2d3f6 8 13 e 1d d 7 13 11 8 13 11 8 13 11 8 13 e 1d f 16ee3 b ffffffec
FIXUPS: 2d14e 34 1e 13 14 7 13 11 8 13 11 8 13 11 8 13 e 1d d 7 13 11 8
FIXUPS: 2d2e3 11 8 13 11 8 13 e fffffc7f e 7 1b 21 10 7 e 7 c 1b 21 e c
FIXUPS: 2d0c2 21 e c f 17278 9 9 9 9 9 9 9 9 9 9 9 9 fffe89bb 10 7 e 7
FIXUPS: 2cde3 1b 15 e c 1b 15 e c 14 e 7 1b 15 10 7 e 7 c 1b 21 e c 1b
FIXUPS: 2cf9a e c fffffbfd 17793 9 9 c c b fffe887c 1e 13 1b e 7 1b 15
FIXUPS: 2cc96 7 e 7 c 1b 15 e c 1b 15 e c 14 e 7 1b fffffc32 7 12 7 12
FIXUPS: 2ca01 a 9 15 12 25 f e b 6 17 3f 7 14 7 14 7 14 7 9 d 16 8 8 8
FIXUPS: 2cb96 c fffffbce 7 11 7 11 7 11 7 11 7 41 5 1e 1f 17 17 17 17 17
FIXUPS: 2c8e4 17 f f c 16 8 19 25 f d 12 7 fffffbda 7 11 7 11 7 2e 7 14
FIXUPS: 2c617 11 7 11 7 11 7 11 7 2e 7 14 7 11 7 11 7 11 7 11 7 2e 7 a10d
FIXUPS: 3687e 11 7 e280 fffe78a8 12 12 12 12 12 12 12 12 17e76 c f f f
FIXUPS: 4430c f f b fffe815b 13 31 71 7 14 7 11 7 9e3f 18 8 11 e 11 e 11
FIXUPS: 3643b 11 e 5c 37 27 193 11 11 1d 20 33 11 29 b 11 29 b 11 e 11
FIXUPS: 36801 49 11 fffff82e 7 f 7 f 7 f 7 30 e 1c 17 11 21 11 24 4c 8
FIXUPS: 3620f 19 11 3a 8 11 19 11 1a 8 1a 4c 24 4e e71f 9 9 9 9 b ffff1162
FIXUPS: 35c8c 30 24 27 8 29 25 1e 52 1e 52 1e 52 1e 9e 1e 10 1e 1b 13 20
FIXUPS: 3603a 1d 7 10 fffff9d1 14 f 8 35 d e 13 12 d e 13 12 d e 13 12
FIXUPS: 35b6c e 13 12 d e 13 12 d e 13 14 ee93 9 9 ffff0d3a 15 9 e 12 15
FIXUPS: 3585c e 14 1d 18 f f 14 f 14 f 14 f 14 f 14 f 18 18 f f 18 18 f
FIXUPS: 35a1c 14 fffffba0 e 13 e 13 12 18 13 f 12 18 13 f e 13 8 35 15
FIXUPS: 35726 e 12 15 9 e 12 15 9 e 12 15 9 e fffffa10 25 8 f 17 d 73 9
FIXUPS: 35338 9 2e f e 25 f 24 34 30 2e 3f 1e 19 19 2e 18 13 f e 13 e 13
FIXUPS: 355bd fffff967 22 fb1e b ffff051e 1e 19 11 1a 11 14 37 4f 12 b
FIXUPS: 350d0 28 f 10 b f f 12 f935 c c b ffff06d3 1e 13 1f 1e fffff941
FIXUPS: 34b45 11 28 2c 1b 1e 18 1e 18 1d 18 1e 18 1e 20 18 8 10 f fd2b
FIXUPS: 44a4f ffff0306 14 1d 1e 29 a1 42 12 f 44 fffff747 241 29 c 23 18
FIXUPS: 34919 16 c c f 1008e 9 9 9 c c c c b fffeff63 1e 57 1e 10 1e 48
FIXUPS: 34ac4 8 14 19 15 fffff7d4 b 2a e 1f 20 e 1f 20 e 1f 20 e 1f 20
FIXUPS: 34459 1f 20 e 1f 20 e 1f 20 e 1f 1f 10 e e 2b 26 fffff8d7 12 11
FIXUPS: 33f2a 8 f c e 19 c c f 1d 12 c 20 29 17 47 1b 55 b f2 e 18 19 19
FIXUPS: 3425b 19 1b 1c 1c fffff9e2 8 c c 10 f 10c9c 9 9 9 9 9 9 9 b fffef372
FIXUPS: 33d5e 10 1e 1d 47 12 c 10 8 13 25 f d a 21 9 fffffb87 10 8 d 12
FIXUPS: 33aa3 f a 9 12 1c 11 1f 1f 16 8 c c d 10 8 d 12 37 f a 9 12 1c
FIXUPS: 33c54 1f 1f fffffb24 20 8 f 1a 3c 2d 12 c 12 2c e 10 1a f 10 f
FIXUPS: 3393e 11007 9 9 c b fffef01e 1e 10 1e 13 1d 9 7 12 fffff8e7 f 7e
FIXUPS: 333a9 f 7d b f 81 b f 77 20 1d 23 11353 b fffeecf6 1e 13 8 12 26
FIXUPS: 336a7 7 7 10 32 1e 19 1a 18 11083 c c c c c c c c c c c c c c c
FIXUPS: 448a3 c c c c c c c b fffee8fd 2b 34 2d 24 b 4c fffff745 59 21
FIXUPS: 32af0 1e 21 2b 1a5 b 13 28 28 f b 166 21 3c 1e 21 3e 1e 21 3e 23
FIXUPS: 3308d 2c 70 11 c e 18 1166b fffedb02 21 3c 1e 21 3e 1e 21 3e 14
FIXUPS: 3249d 21 2b 1e 21 2b 1a5 b 13 28 28 f b 160 21 3c 1e 21 3e 1e 21
FIXUPS: 32a37 ffffeee3 2b 1a5 b 13 28 28 f b 160 21 3c 1e 21 3e 1e 21 3e
FIXUPS: 31e3d 59 21 2b 1e 21 2b 1a5 b 13 28 28 f b 1261a c c c b fffecd37
FIXUPS: 31517 10 1e 31 62 24 24 24 2f 22 22 22 1a 19 70 2d 33 b 11 11 16
FIXUPS: 31836 59 21 2b 1e fffffa0e 21 3b 23 26 25 18 45 e 3d 12 1320c c
FIXUPS: 446af c c c c c c c c c c c c c c c c c c fffec42a f b d6 21 39
FIXUPS: 30d19 21 3b 1e 21 3b 14 59 21 2b 1e 21 2b 1a2 b 13 28 28 f b d9
FIXUPS: 31236 39 1e 21 3b fffff0b2 2b 1e 21 2b 1a2 b 13 28 28 f b d6 21
FIXUPS: 3078a 1e 21 3b 1e 21 3b 14 59 21 2b 1e 21 2b 1a2 b 13 28 fffff14f
FIXUPS: 2fd29 2d b 11 11 16 17 59 21 2b 1e 21 2b 1a2 b 13 28 28 f b d6
FIXUPS: 301e0 39 1e 21 3b 1e 21 3b 14 59 fffff5fe 24 24 24 2f 22 22 22
FIXUPS: 2fa8f 17 1b 7 19 55 11 e 11 e 11 e 11 e 11 e 11 e 11 e 11 e 11
FIXUPS: 2fc4d 14a15 b fffeadb6 56 1e 10 1e 39 2c f b 11 4e 21 17 85 b b
FIXUPS: 2f6bf 43 bb 28 c b c 3f c 14e33 fffeb213 1e 10 1e fffff982 b 6
FIXUPS: 2f289 23 b 6 11 23 b 6 11 23 b 6 12 c c c c d c c f 15257 9 9 c
FIXUPS: 4463e 9 9 9 fffea91b 18 f b 1a b 1563b fffeaa1f 1e 28 f c 16 8
FIXUPS: 2f0bd 25 f d a 9 15 12 25 f e b 6 1e 1f 1f 1f 3e fffffa31 25 c
FIXUPS: 2ecad 23 8 c e 2d 60 26 2d 2d 2d 25 e 15 7 e 7 47 c c c f 156ba
FIXUPS: 445cd 9 c 9 b fffea960 fffff9d8 10 10 10 3e 60 e 1e 48 1e 10 1e
FIXUPS: 2eaec 7 7 15 11 29 b 15 7 1f 7 1f c 3e f 12 13 d 16 9 fffff8dd
FIXUPS: 2e54e 12 15fe4 f f b fffea0d3 13 b3 12 12 12 f 15e39 f f f b fffea234
FIXUPS: 2e810 24 2c c 28 e 18 19 1b 10 10 10 7fd7 3f e1f0 b ffff1e61 13
FIXUPS: 36a0b 1c e11d b ffff1f1a 25 23 3b 34 13 36 46 27 bc 7a 34 13 36
FIXUPS: 36dcf 27 86 ffff75ef 18 160a9 b fffe9fee
